Archive member included because of file (symbol)

c:/program files (x86)/microchip/xc32/v1.42/bin/bin/../../lib/gcc/pic32mx/4.8.3\libgcc.a(floatunsisf.o)
                              build/pic32mz_ef_sk_meb2/production/_ext/493934858/lodepng.o (__floatunsisf)
c:/program files (x86)/microchip/xc32/v1.42/bin/bin/../../lib/gcc/pic32mx/4.8.3/../../../../pic32mx/lib\libpic32.a(memcpy.o)
                              build/pic32mz_ef_sk_meb2/production/_ext/493934858/lodepng.o (memcpy)
c:/program files (x86)/microchip/xc32/v1.42/bin/bin/../../lib/gcc/pic32mx/4.8.3/../../../../pic32mx/lib\libpic32.a(memset.o)
                              build/pic32mz_ef_sk_meb2/production/_ext/493934858/lodepng.o (memset)
c:/program files (x86)/microchip/xc32/v1.42/bin/bin/../../lib/gcc/pic32mx/4.8.3/../../../../pic32mx/lib\libpic32.a(strcmp.o)
                              build/pic32mz_ef_sk_meb2/production/_ext/493934858/lodepng.o (strcmp)
c:/program files (x86)/microchip/xc32/v1.42/bin/bin/../../lib/gcc/pic32mx/4.8.3/../../../../pic32mx/lib\libpic32.a(strcpy.o)
                              build/pic32mz_ef_sk_meb2/production/_ext/713288229/drv_gfx_lcc_generic.o (strcpy)
c:/program files (x86)/microchip/xc32/v1.42/bin/bin/../../lib/gcc/pic32mx/4.8.3/../../../../pic32mx/lib\libpic32.a(strlen.o)
                              build/pic32mz_ef_sk_meb2/production/_ext/493934858/lodepng.o (strlen)
c:/program files (x86)/microchip/xc32/v1.42/bin/bin/../../lib/gcc/pic32mx/4.8.3/../../../../pic32mx/lib\libpic32.a(default-bootstrap-exception-handler.o)
                              c:/program files (x86)/microchip/xc32/v1.42/bin/bin/../../lib/gcc/pic32mx/4.8.3/../../../../pic32mx/lib/./proc/32MZ2048ECG144/crt0_mips32r2.o (_bootstrap_exception_handler)
c:/program files (x86)/microchip/xc32/v1.42/bin/bin/../../lib/gcc/pic32mx/4.8.3/../../../../pic32mx/lib\libpic32.a(default-on-reset.o)
                              c:/program files (x86)/microchip/xc32/v1.42/bin/bin/../../lib/gcc/pic32mx/4.8.3/../../../../pic32mx/lib/./proc/32MZ2048ECG144/crt0_mips32r2.o (_on_reset)
c:/program files (x86)/microchip/xc32/v1.42/bin/bin/../../lib/gcc/pic32mx/4.8.3/../../../../pic32mx/lib\libpic32.a(default-on-bootstrap.o)
                              c:/program files (x86)/microchip/xc32/v1.42/bin/bin/../../lib/gcc/pic32mx/4.8.3/../../../../pic32mx/lib/./proc/32MZ2048ECG144/crt0_mips32r2.o (_on_bootstrap)
c:/program files (x86)/microchip/xc32/v1.42/bin/bin/../../lib/gcc/pic32mx/4.8.3/../../../../pic32mx/lib\libpic32.a(default-nmi-handler.o)
                              c:/program files (x86)/microchip/xc32/v1.42/bin/bin/../../lib/gcc/pic32mx/4.8.3/../../../../pic32mx/lib/./proc/32MZ2048ECG144/crt0_mips32r2.o (_nmi_handler)
c:/program files (x86)/microchip/xc32/v1.42/bin/bin/../../lib/gcc/pic32mx/4.8.3/../../../../pic32mx/lib\libpic32.a(pic32_init_cache.o)
                              c:/program files (x86)/microchip/xc32/v1.42/bin/bin/../../lib/gcc/pic32mx/4.8.3/../../../../pic32mx/lib/./proc/32MZ2048ECG144/crt0_mips32r2.o (__pic32_init_cache)
c:/program files (x86)/microchip/xc32/v1.42/bin/bin/../../lib/gcc/pic32mx/4.8.3/../../../../pic32mx/lib\libpic32.a(pic32_init_tlb_ebi_sqi.o)
                              c:/program files (x86)/microchip/xc32/v1.42/bin/bin/../../lib/gcc/pic32mx/4.8.3/../../../../pic32mx/lib/./proc/32MZ2048ECG144/crt0_mips32r2.o (__pic32_tlb_init_ebi_sqi)
c:/program files (x86)/microchip/xc32/v1.42/bin/bin/../../lib/gcc/pic32mx/4.8.3/../../../../pic32mx/lib\libpic32.a(general-exception.o)
                              c:/program files (x86)/microchip/xc32/v1.42/bin/bin/../../lib/gcc/pic32mx/4.8.3/../../../../pic32mx/lib/./proc/32MZ2048ECG144/crt0_mips32r2.o (_general_exception_context)
c:/program files (x86)/microchip/xc32/v1.42/bin/bin/../../lib/gcc/pic32mx/4.8.3/../../../../pic32mx/lib\libpic32.a(cache-err-exception.o)
                              c:/program files (x86)/microchip/xc32/v1.42/bin/bin/../../lib/gcc/pic32mx/4.8.3/../../../../pic32mx/lib/./proc/32MZ2048ECG144/crt0_mips32r2.o (_cache_err_exception_context)
c:/program files (x86)/microchip/xc32/v1.42/bin/bin/../../lib/gcc/pic32mx/4.8.3/../../../../pic32mx/lib\libpic32.a(simple-tlb-refill-exception.o)
                              c:/program files (x86)/microchip/xc32/v1.42/bin/bin/../../lib/gcc/pic32mx/4.8.3/../../../../pic32mx/lib/./proc/32MZ2048ECG144/crt0_mips32r2.o (_simple_tlb_refill_exception_context)
c:/program files (x86)/microchip/xc32/v1.42/bin/bin/../../lib/gcc/pic32mx/4.8.3/../../../../pic32mx/lib\libpic32.a(defaultinterrupt.o)
                              c:/program files (x86)/microchip/xc32/v1.42/bin/bin/../../lib/gcc/pic32mx/4.8.3/../../../../pic32mx/lib/./proc/32MZ2048ECG144\default_isr_vectors.o (_DefaultInterrupt)
c:/program files (x86)/microchip/xc32/v1.42/bin/bin/../../lib/gcc/pic32mx/4.8.3/../../../../pic32mx/lib\libpic32.a(default-cache-err-exception-handler.o)
                              c:/program files (x86)/microchip/xc32/v1.42/bin/bin/../../lib/gcc/pic32mx/4.8.3/../../../../pic32mx/lib\libpic32.a(cache-err-exception.o) (_cache_err_exception_handler)
c:/program files (x86)/microchip/xc32/v1.42/bin/bin/../../lib/gcc/pic32mx/4.8.3/../../../../pic32mx/lib\libpic32.a(default-simple-tlb-refill-exception-handler.o)
                              c:/program files (x86)/microchip/xc32/v1.42/bin/bin/../../lib/gcc/pic32mx/4.8.3/../../../../pic32mx/lib\libpic32.a(simple-tlb-refill-exception.o) (_simple_tlb_refill_exception_handler)
c:/program files (x86)/microchip/xc32/v1.42/bin/bin/../../lib/gcc/pic32mx/4.8.3/../../../../pic32mx/lib\libm.a(fp32div.o)
                              build/pic32mz_ef_sk_meb2/production/_ext/493934858/lodepng.o (fpdiv)
c:/program files (x86)/microchip/xc32/v1.42/bin/bin/../../lib/gcc/pic32mx/4.8.3/../../../../pic32mx/lib\libm.a(fp32mul.o)
                              build/pic32mz_ef_sk_meb2/production/_ext/493934858/lodepng.o (fpmul)
c:/program files (x86)/microchip/xc32/v1.42/bin/bin/../../lib/gcc/pic32mx/4.8.3/../../../../pic32mx/lib\libm.a(fp32subadd.o)
                              build/pic32mz_ef_sk_meb2/production/_ext/493934858/lodepng.o (fpsub)
c:/program files (x86)/microchip/xc32/v1.42/bin/bin/../../lib/gcc/pic32mx/4.8.3/../../../../pic32mx/lib\libm.a(fpcmp.o)
                              build/pic32mz_ef_sk_meb2/production/_ext/493934858/lodepng.o (fpcmp)
c:/program files (x86)/microchip/xc32/v1.42/bin/bin/../../lib/gcc/pic32mx/4.8.3/../../../../pic32mx/lib\libm.a(fptoul.o)
                              build/pic32mz_ef_sk_meb2/production/_ext/1847583374/gfx_math.o (fptoui)
c:/program files (x86)/microchip/xc32/v1.42/bin/bin/../../lib/gcc/pic32mx/4.8.3/../../../../pic32mx/lib\libm.a(sitofp.o)
                              c:/program files (x86)/microchip/xc32/v1.42/bin/bin/../../lib/gcc/pic32mx/4.8.3\libgcc.a(floatunsisf.o) (sitofp)
c:/program files (x86)/microchip/xc32/v1.42/bin/bin/../../lib/gcc/pic32mx/4.8.3/../../../../pic32mx/lib\libc.a(fclose.o)
                              build/pic32mz_ef_sk_meb2/production/_ext/493934858/lodepng.o (fclose)
c:/program files (x86)/microchip/xc32/v1.42/bin/bin/../../lib/gcc/pic32mx/4.8.3/../../../../pic32mx/lib\libc.a(fflush.o)
                              c:/program files (x86)/microchip/xc32/v1.42/bin/bin/../../lib/gcc/pic32mx/4.8.3/../../../../pic32mx/lib\libc.a(fclose.o) (fflush)
c:/program files (x86)/microchip/xc32/v1.42/bin/bin/../../lib/gcc/pic32mx/4.8.3/../../../../pic32mx/lib\libc.a(fopen.o)
                              build/pic32mz_ef_sk_meb2/production/_ext/493934858/lodepng.o (fopen)
c:/program files (x86)/microchip/xc32/v1.42/bin/bin/../../lib/gcc/pic32mx/4.8.3/../../../../pic32mx/lib\libc.a(fread.o)
                              build/pic32mz_ef_sk_meb2/production/_ext/493934858/lodepng.o (fread)
c:/program files (x86)/microchip/xc32/v1.42/bin/bin/../../lib/gcc/pic32mx/4.8.3/../../../../pic32mx/lib\libc.a(freopen.o)
                              c:/program files (x86)/microchip/xc32/v1.42/bin/bin/../../lib/gcc/pic32mx/4.8.3/../../../../pic32mx/lib\libc.a(fopen.o) (freopen)
c:/program files (x86)/microchip/xc32/v1.42/bin/bin/../../lib/gcc/pic32mx/4.8.3/../../../../pic32mx/lib\libc.a(fseek.o)
                              build/pic32mz_ef_sk_meb2/production/_ext/493934858/lodepng.o (ftell)
c:/program files (x86)/microchip/xc32/v1.42/bin/bin/../../lib/gcc/pic32mx/4.8.3/../../../../pic32mx/lib\libc.a(fwrite.o)
                              build/pic32mz_ef_sk_meb2/production/_ext/493934858/lodepng.o (fwrite)
c:/program files (x86)/microchip/xc32/v1.42/bin/bin/../../lib/gcc/pic32mx/4.8.3/../../../../pic32mx/lib\libc.a(buf.o)
                              c:/program files (x86)/microchip/xc32/v1.42/bin/bin/../../lib/gcc/pic32mx/4.8.3/../../../../pic32mx/lib\libc.a(freopen.o) (_bufallo)
c:/program files (x86)/microchip/xc32/v1.42/bin/bin/../../lib/gcc/pic32mx/4.8.3/../../../../pic32mx/lib\libc.a(calloc.o)
                              build/pic32mz_ef_sk_meb2/production/_ext/1907747181/libaria_context.o (calloc)
c:/program files (x86)/microchip/xc32/v1.42/bin/bin/../../lib/gcc/pic32mx/4.8.3/../../../../pic32mx/lib\libc.a(errno.o)
                              c:/program files (x86)/microchip/xc32/v1.42/bin/bin/../../lib/gcc/pic32mx/4.8.3/../../../../pic32mx/lib\libc.a(buf.o) (errno)
c:/program files (x86)/microchip/xc32/v1.42/bin/bin/../../lib/gcc/pic32mx/4.8.3/../../../../pic32mx/lib\libc.a(malloc.o)
                              build/pic32mz_ef_sk_meb2/production/_ext/493934858/lodepng.o (malloc)
c:/program files (x86)/microchip/xc32/v1.42/bin/bin/../../lib/gcc/pic32mx/4.8.3/../../../../pic32mx/lib\libc.a(tfiles.o)
                              c:/program files (x86)/microchip/xc32/v1.42/bin/bin/../../lib/gcc/pic32mx/4.8.3/../../../../pic32mx/lib\libc.a(fclose.o) (_tfilesptr)
c:/program files (x86)/microchip/xc32/v1.42/bin/bin/../../lib/gcc/pic32mx/4.8.3/../../../../pic32mx/lib\libc.a(_iob.o)
                              c:/program files (x86)/microchip/xc32/v1.42/bin/bin/../../lib/gcc/pic32mx/4.8.3/../../../../pic32mx/lib\libc.a(fopen.o) (_iob)
c:/program files (x86)/microchip/xc32/v1.42/bin/bin/../../lib/gcc/pic32mx/4.8.3/../../../../pic32mx/lib\libc.a(fgetc.o)
                              c:/program files (x86)/microchip/xc32/v1.42/bin/bin/../../lib/gcc/pic32mx/4.8.3/../../../../pic32mx/lib\libc.a(fread.o) (fgetc)
c:/program files (x86)/microchip/xc32/v1.42/bin/bin/../../lib/gcc/pic32mx/4.8.3/../../../../pic32mx/lib\libc.a(_fputc_simple.o)
                              c:/program files (x86)/microchip/xc32/v1.42/bin/bin/../../lib/gcc/pic32mx/4.8.3/../../../../pic32mx/lib\libc.a(fwrite.o) (fputc)
c:/program files (x86)/microchip/xc32/v1.42/bin/bin/../../lib/gcc/pic32mx/4.8.3/../../../../pic32mx/lib\libc.a(filbuf.o)
                              c:/program files (x86)/microchip/xc32/v1.42/bin/bin/../../lib/gcc/pic32mx/4.8.3/../../../../pic32mx/lib\libc.a(fgetc.o) (_filbuf)
c:/program files (x86)/microchip/xc32/v1.42/bin/bin/../../lib/gcc/pic32mx/4.8.3/../../../../pic32mx/lib\libc.a(_flsbuf_simple.o)
                              c:/program files (x86)/microchip/xc32/v1.42/bin/bin/../../lib/gcc/pic32mx/4.8.3/../../../../pic32mx/lib\libc.a(_fputc_simple.o) (_flsbuf)
c:/program files (x86)/microchip/xc32/v1.42/bin/bin/../../lib/gcc/pic32mx/4.8.3/../../../../pic32mx/lib\libpic32.a(sbrk.o)
                              c:/program files (x86)/microchip/xc32/v1.42/bin/bin/../../lib/gcc/pic32mx/4.8.3/../../../../pic32mx/lib\libc.a(buf.o) (sbrk)
c:/program files (x86)/microchip/xc32/v1.42/bin/bin/../../lib/gcc/pic32mx/4.8.3/../../../../pic32mx/lib\libpic32.a(read.o)
                              c:/program files (x86)/microchip/xc32/v1.42/bin/bin/../../lib/gcc/pic32mx/4.8.3/../../../../pic32mx/lib\libc.a(filbuf.o) (read)
c:/program files (x86)/microchip/xc32/v1.42/bin/bin/../../lib/gcc/pic32mx/4.8.3/../../../../pic32mx/lib\libpic32.a(write.o)
                              c:/program files (x86)/microchip/xc32/v1.42/bin/bin/../../lib/gcc/pic32mx/4.8.3/../../../../pic32mx/lib\libc.a(fflush.o) (write)
c:/program files (x86)/microchip/xc32/v1.42/bin/bin/../../lib/gcc/pic32mx/4.8.3/../../../../pic32mx/lib\libpic32.a(lseek.o)
                              c:/program files (x86)/microchip/xc32/v1.42/bin/bin/../../lib/gcc/pic32mx/4.8.3/../../../../pic32mx/lib\libc.a(fseek.o) (lseek)
c:/program files (x86)/microchip/xc32/v1.42/bin/bin/../../lib/gcc/pic32mx/4.8.3/../../../../pic32mx/lib\libpic32.a(remove.o)
                              c:/program files (x86)/microchip/xc32/v1.42/bin/bin/../../lib/gcc/pic32mx/4.8.3/../../../../pic32mx/lib\libc.a(fclose.o) (remove)
c:/program files (x86)/microchip/xc32/v1.42/bin/bin/../../lib/gcc/pic32mx/4.8.3/../../../../pic32mx/lib\libpic32.a(close.o)
                              c:/program files (x86)/microchip/xc32/v1.42/bin/bin/../../lib/gcc/pic32mx/4.8.3/../../../../pic32mx/lib\libc.a(fclose.o) (close)
c:/program files (x86)/microchip/xc32/v1.42/bin/bin/../../lib/gcc/pic32mx/4.8.3/../../../../pic32mx/lib\libpic32.a(open.o)
                              c:/program files (x86)/microchip/xc32/v1.42/bin/bin/../../lib/gcc/pic32mx/4.8.3/../../../../pic32mx/lib\libc.a(freopen.o) (open)
c:/program files (x86)/microchip/xc32/v1.42/bin/bin/../../lib/gcc/pic32mx/4.8.3/../../../../pic32mx/lib\libpic32.a(xc32_uart.o)
                              c:/program files (x86)/microchip/xc32/v1.42/bin/bin/../../lib/gcc/pic32mx/4.8.3/../../../../pic32mx/lib\libpic32.a(read.o) (__XC_UART)
c:/program files (x86)/microchip/xc32/v1.42/bin/bin/../../lib/gcc/pic32mx/4.8.3/../../../../pic32mx/lib\libpic32.a(_mon_putc.o)
                              c:/program files (x86)/microchip/xc32/v1.42/bin/bin/../../lib/gcc/pic32mx/4.8.3/../../../../pic32mx/lib\libpic32.a(write.o) (_mon_putc)

Allocating common symbols
Common symbol       size              file

DISP_VER_RESOLUTION
                    0x4               build/pic32mz_ef_sk_meb2/production/_ext/713288229/drv_gfx_lcc_generic.o
delayTimer          0x4               build/pic32mz_ef_sk_meb2/production/_ext/1360937237/app.o
DISP_VER_FRONT_PORCH
                    0x4               build/pic32mz_ef_sk_meb2/production/_ext/713288229/drv_gfx_lcc_generic.o
ImageWidget1        0x4               build/pic32mz_ef_sk_meb2/production/_ext/1740298103/libaria_init.o
DISP_HOR_FRONT_PORCH
                    0x4               build/pic32mz_ef_sk_meb2/production/_ext/713288229/drv_gfx_lcc_generic.o
last                0x4               build/pic32mz_ef_sk_meb2/production/_ext/1847583374/gfx_color_blend.o
appData             0x4               build/pic32mz_ef_sk_meb2/production/_ext/1360937237/app.o
DISP_HOR_PULSE_WIDTH
                    0x4               build/pic32mz_ef_sk_meb2/production/_ext/713288229/drv_gfx_lcc_generic.o
cntxt               0x4               build/pic32mz_ef_sk_meb2/production/_ext/713288229/drv_gfx_lcc_generic.o
delayUsTimer        0x4               build/pic32mz_ef_sk_meb2/production/_ext/1360937237/app.o
libariaObj          0x4               build/pic32mz_ef_sk_meb2/production/_ext/1740298103/libaria_harmony.o
defaultScheme       0x40              build/pic32mz_ef_sk_meb2/production/_ext/1740298103/libaria_init.o
sysObj              0xc               build/pic32mz_ef_sk_meb2/production/_ext/1951523377/system_init.o
DISP_VER_PULSE_WIDTH
                    0x4               build/pic32mz_ef_sk_meb2/production/_ext/713288229/drv_gfx_lcc_generic.o
LabelWidget1        0x4               build/pic32mz_ef_sk_meb2/production/_ext/1740298103/libaria_init.o
DISP_HOR_BACK_PORCH
                    0x4               build/pic32mz_ef_sk_meb2/production/_ext/713288229/drv_gfx_lcc_generic.o
delay_ms            0x4               build/pic32mz_ef_sk_meb2/production/_ext/1360937237/app.o
RectangleWidget1    0x4               build/pic32mz_ef_sk_meb2/production/_ext/1740298103/libaria_init.o
delay_us            0x4               build/pic32mz_ef_sk_meb2/production/_ext/1360937237/app.o
HBackPorch          0x2               build/pic32mz_ef_sk_meb2/production/_ext/713288229/drv_gfx_lcc_generic.o
gSysDMAChannelObj   0x80              build/pic32mz_ef_sk_meb2/production/_ext/853959373/sys_dma.o
clkObject           0xb0              build/pic32mz_ef_sk_meb2/production/_ext/1847413222/sys_clk.o
ButtonWidget1       0x4               build/pic32mz_ef_sk_meb2/production/_ext/1740298103/libaria_init.o
VER_BLANK           0x4               build/pic32mz_ef_sk_meb2/production/_ext/713288229/drv_gfx_lcc_generic.o
sysDevconObj        0x8               build/pic32mz_ef_sk_meb2/production/_ext/924081491/sys_devcon.o
state               0x4               build/pic32mz_ef_sk_meb2/production/_ext/713288229/drv_gfx_lcc_generic.o
DISP_VER_BACK_PORCH
                    0x4               build/pic32mz_ef_sk_meb2/production/_ext/713288229/drv_gfx_lcc_generic.o
DISP_HOR_RESOLUTION
                    0x4               build/pic32mz_ef_sk_meb2/production/_ext/713288229/drv_gfx_lcc_generic.o

Microchip PIC32 Memory-Usage Report

kseg0 Program-Memory Usage
section                    address  length [bytes]      (dec)  Description
-------                 ----------  -------------------------  -----------
.simple_tlb_refill_excp 0x9d000000           0x10          16   
.text.ov2640Initialisat 0x9d000010           0xf0         240   
.cache_err_excpt        0x9d000100           0x10          16   
.text.laList_Find       0x9d000110           0x70         112   
.app_excpt              0x9d000180           0x10          16  General-Exception 
.text.laString_CreateFr 0x9d000190           0x70         112   
.vectors                0x9d000200           0x68         104   
.dinit                  0x9d000268         0x2d90       11664   
.rodata                 0x9d002ff8         0x16ac        5804  Read-only const 
.text.lodepng_decode    0x9d0046a4         0x15cc        5580   
.text.GFXU_DrawImageJpg 0x9d005c70          0xfe4        4068   
.text.lodepng_inflate   0x9d006c54          0x978        2424   
.text.JPEG_bReadHeader  0x9d0075cc          0x880        2176   
.rodata                 0x9d007e4c          0x878        2168  Read-only const 
.text.jpeg_idct_islow   0x9d0086c4          0x6b8        1720   
.text.getPixelColorsRGB 0x9d008d7c          0x540        1344   
.text.lodepng_convert   0x9d0092bc          0x538        1336   
.text.run               0x9d0097f4          0xa28        2600   
.text.contextDefInitial 0x9d00a21c          0x45c        1116   
.text.run               0x9d00a678          0x434        1076   
.text.getPixelColorRGBA 0x9d00aaac          0x400        1024   
.text.unfilter          0x9d00aeac          0x390         912   
.text.HuffmanTree_makeF 0x9d00b23c          0x350         848   
.text.cpuDrawBlit       0x9d00b58c          0x350         848   
.text.GFXU_DrawImageRLE 0x9d00b8dc          0x318         792   
.text.GFX_Open          0x9d00bbf4          0x30c         780   
.text.malloc            0x9d00bf00          0x288         648   
.text.fpsubadd          0x9d00c188          0x278         632   
.text.drawImage         0x9d00c400          0x264         612   
.text.laUtils_ArrangeRe 0x9d00c664          0x260         608   
.text.GFXU_DrawImage    0x9d00c8c4          0x250         592   
.text.ScreenCreate_defa 0x9d00cb14          0x250         592   
.text.lodepng_inspect   0x9d00cd64          0x24c         588   
.text._laContext_PaintW 0x9d00cfb0          0x240         576   
.text.fp32div           0x9d00d1f0          0x230         560   
.text.getPixelColorRGBA 0x9d00d420          0x224         548   
.text.SYS_PORTS_Initial 0x9d00d644          0x210         528   
.text.drawImage         0x9d00d854          0x204         516   
.text.lccInitialize     0x9d00da58          0x200         512   
.text.laUtils_ArrangeRe 0x9d00dc58          0x1fc         508   
.text.GFXU_DecodeUTF8   0x9d00de54          0x1f8         504   
.text.DRV_GFX_LCC_Displ 0x9d00e04c          0x1f8         504   
.text.lodepng_add_itext 0x9d00e244          0x1f0         496   
.text.drawString        0x9d00e434          0x1f0         496   
.text.lodepng_zlib_deco 0x9d00e624          0x1dc         476   
.text.GFXU_DrawImagePng 0x9d00e800          0x1d0         464   
.text.fp32mul           0x9d00e9d0          0x1bc         444   
.text.GFXU_DrawImageRaw 0x9d00eb8c          0x1b8         440   
.text.SYS_CLK_Initializ 0x9d00ed44          0x1b8         440   
.text.IntHandlerDrvTmrI 0x9d00eefc          0x1b0         432   
.text.IntHandlerDrvTmrI 0x9d00f0ac          0x1b0         432   
.text.laDraw_2x2BevelBo 0x9d00f25c          0x1ac         428   
.text._IntHandlerSysDma 0x9d00f408          0x1a8         424   
.text.laScheme_Initiali 0x9d00f5b0          0x1a4         420   
.text                   0x9d00f754          0x1a0         416  App's exec code 
.text.Adam7_getpassvalu 0x9d00f8f4          0x19c         412   
.text._LCCRefreshISR    0x9d00fa90          0x19c         412   
.text.cpuDrawLine       0x9d00fc2c          0x198         408   
.text._sbrk_init        0x9d00fdc4          0x194         404   
.text.GFXU_DecodeAndDra 0x9d00ff58          0x188         392   
.text.drawBackground    0x9d0100e0          0x180         384   
.text.drawString        0x9d010260          0x17c         380   
.text.laContext_Create  0x9d0103dc          0x174         372   
.text.SYS_DMA_ChannelSe 0x9d010550          0x16c         364   
.text.GFXU_CompareStrin 0x9d0106bc          0x168         360   
.text.defColorModeSet   0x9d010824          0x168         360   
.text                   0x9d01098c          0x2d0         720  App's exec code 
.text.GFXU_DrawStringBu 0x9d010c5c          0x15c         348   
.text.blend_rgb565      0x9d010db8          0x15c         348   
.text.SYS_DMA_ChannelTr 0x9d010f14          0x15c         348   
.text.laDraw_1x2BevelBo 0x9d011070          0x158         344   
.text.blend_rgba8888    0x9d0111c8          0x154         340   
.text.GFX_LayerOriginFr 0x9d01131c          0x14c         332   
.text.realloc           0x9d011468          0x14c         332   
.text.cpuDrawCircle_Lin 0x9d0115b4          0x148         328   
.text.cpuDrawRect_Fill  0x9d0116fc          0x144         324   
.text.JPEG_bGet1Bit     0x9d011840          0x140         320   
.text.rleReadRequestCom 0x9d011980          0x140         320   
.text.cpuDrawRect_Gradi 0x9d011ac0          0x140         320   
.text.cpuDrawRect_Gradi 0x9d011c00          0x140         320   
.text.cpuDrawLine_Thick 0x9d011d40          0x13c         316   
.text.lccUpdate         0x9d011e7c          0x138         312   
.text.GFX_Close         0x9d011fb4          0x134         308   
.text.defOrientationSet 0x9d0120e8          0x134         308   
.text.setLayerAttribute 0x9d01221c          0x12c         300   
.text.drawEdge          0x9d012348          0x12c         300   
.text.checkColorValidit 0x9d012474          0x128         296   
.rodata                 0x9d01259c          0x128         296  Read-only const 
.text._laWidget_Invalid 0x9d0126c4          0x124         292   
.text.drawBackground    0x9d0127e8          0x124         292   
.text.GFX_LayerOriginTo 0x9d01290c          0x124         292   
.text.stringDataRequest 0x9d012a30          0x11c         284   
.text.GFXU_CalculateStr 0x9d012b4c          0x118         280   
.text._laContext_Paint  0x9d012c64          0x118         280   
.text.laWidget_Invalida 0x9d012d7c          0x118         280   
.text.cpuDrawPixel_Unsa 0x9d012e94          0x118         280   
.text.lodepng_add_text  0x9d012fac          0x114         276   
.text._laWidget_Constru 0x9d0130c0          0x114         276   
.text.defDestroy        0x9d0131d4          0x110         272   
.text._occlusionCullTes 0x9d0132e4          0x10c         268   
.text.touchUp           0x9d0133f0          0x108         264   
.text.layerBufferAlloca 0x9d0134f8          0x108         264   
.text.SYS_DEVCON_Perfor 0x9d013600          0x104         260   
.text.color_tree_add    0x9d013704          0x100         256   
.text.laString_Compare  0x9d013804           0xfc         252   
.text.drawBackground    0x9d013900          0x1f8         504   
.text.cpuDrawRect_Line  0x9d013af8           0xf8         248   
.text.SYS_DMA_TasksISR  0x9d013bf0           0xf8         248   
.text.laList_Remove     0x9d013ce8           0xf4         244   
.text.SYS_Initialize    0x9d013ddc           0xf4         244   
.text.GFXU_DrawString   0x9d013ed0           0xf0         240   
.text.defMirroringSet   0x9d013fc0           0xf0         240   
.text.defLayerBufferCou 0x9d0140b0           0xf0         240   
.text.laScreen_Hide     0x9d0141a0           0xec         236   
.text.laString_Copy     0x9d01428c           0xec         236   
.text.laUtils_Occlusion 0x9d014378           0xec         236   
.text.touchMoved        0x9d014464           0xec         236   
.text.getRLEDataAtIndex 0x9d014550           0xe8         232   
.text.laUtils_Pick      0x9d014638           0xe8         232   
.text.GFX_PixelBufferCr 0x9d014720           0xe8         232   
.text.lodepng_color_mod 0x9d014808           0xe4         228   
.text.laString_Draw     0x9d0148ec           0xe4         228   
.text.drawBackground    0x9d0149d0           0xe4         228   
.text.GFXU_DrawImageRaw 0x9d014ab4           0xe0         224   
.text.GFXU_DrawImageRLE 0x9d014b94           0xe0         224   
.text.GFX_DrawLine      0x9d014c74           0xe0         224   
.text.lodepng_color_mod 0x9d014d54           0xdc         220   
.text.waitImage         0x9d014e30           0xdc         220   
.text.GFX_DrawRect      0x9d014f0c           0xdc         220   
.text.GFX_DrawBlit      0x9d014fe8           0xdc         220   
.text.general_exception 0x9d0150c4           0xdc         220   
.text.drawBorder        0x9d0151a0           0xd8         216   
.text.defInitialize     0x9d015278           0xd8         216   
.text._cache_err_except 0x9d015350           0xd8         216   
.text.simple_tlb_refill 0x9d015428           0xd8         216   
.text.generateFixedLitL 0x9d015500           0xd4         212   
.text.GFXU_DrawStringEx 0x9d0155d4           0xd0         208   
.text.laEvent_ProcessEv 0x9d0156a4           0xd0         208   
.text.drawBorder        0x9d015774          0x340         832   
.text.color_tree_get    0x9d015ab4           0xcc         204   
.text.LodePNGIText_clea 0x9d015b80           0xc8         200   
.text.lodepng_chunk_app 0x9d015c48           0xc8         200   
.text.GFXU_CalculateCha 0x9d015d10           0xc8         200   
.text.laScreen_Show     0x9d015dd8           0xc8         200   
.text._sbrk             0x9d015ea0           0xc8         200   
.text.APP_Tasks         0x9d015f68           0xc4         196   
.text.drawGlyphRow8bpp  0x9d01602c           0xc4         196   
.text.touchDown         0x9d0160f0           0xc4         196   
.text.libaria_initializ 0x9d0161b4           0xc4         196   
.text.removePaddingBits 0x9d016278           0xc0         192   
.text.la_strcmp         0x9d016338           0xc0         192   
.text.pickChild         0x9d0163f8           0xc0         192   
.text.JPEG_bGetNextHuff 0x9d0164b8           0xbc         188   
.text.defLayerBufferAdd 0x9d016574           0xbc         188   
.tlb.__pic32_tlb_init_e 0x9d016630           0xbc         188   
.text.drawGlyphRow1bpp  0x9d0166ec           0xb0         176   
.text.GFXU_FontGetLooku 0x9d01679c           0xb0         176   
.text.GFX_DrawPixel     0x9d01684c           0xb0         176   
.text.get_displayInfo   0x9d0168fc           0xb0         176   
.text.lerp_argb8888     0x9d0169ac           0xb0         176   
.text.lerp_rgba8888     0x9d016a5c           0xb0         176   
.text.GFXU_GetStringRec 0x9d016b0c           0xac         172   
.text.laString_GetRect  0x9d016bb8           0xac         172   
.text.laWidget_GetCumul 0x9d016c64           0xac         172   
.text._laButtonWidget_C 0x9d016d10           0xac         172   
.text.BSP_LEDOff        0x9d016dbc           0xac         172   
.text.waitString        0x9d016e68           0xa8         168   
.text.waitImage         0x9d016f10           0xa8         168   
.text.waitString        0x9d016fb8           0xa8         168   
.text                   0x9d017060           0xa8         168  App's exec code 
.text.i2c_Write_Bit     0x9d017108           0xa4         164   
.text.laScreen_New      0x9d0171ac           0xa4         164   
.text.cpuDrawLineHorz   0x9d017250           0xa4         164   
.text.HuffmanTree_makeF 0x9d0172f4           0xa0         160   
.text.imageReadRequestC 0x9d017394           0xa0         160   
.text.GFXU_DecodeUTF16  0x9d017434           0xa0         160   
.text.laContext_SetActi 0x9d0174d4           0xa0         160   
.text.laWidget_AddChild 0x9d017574           0xa0         160   
.text.cpuDrawLineVert   0x9d017614           0xa0         160   
.text.i2c_Write_Byte    0x9d0176b4           0x9c         156   
.text.laContext_RedrawA 0x9d017750           0x9c         156   
.text.laLayer_New       0x9d0177ec           0x9c         156   
.text.GFX_PixelBufferSe 0x9d017888           0x9c         156   
.text.i2c_Read_Byte     0x9d017924           0x98         152   
.text.lerp_rgba5551     0x9d0179bc           0x98         152   
.text.GFXU_FontGetGlyph 0x9d017a54           0x94         148   
.text.laList_PushBack   0x9d017ae8           0x94         148   
.text.laUtils_ClipRectT 0x9d017b7c           0x94         148   
.text.laWidget_SetSize  0x9d017c10           0x94         148   
.text._laRectangleWidge 0x9d017ca4           0x94         148   
.text.GFX_PixelBufferCl 0x9d017d38           0x94         148   
.text.DRV_TMR0_Initiali 0x9d017dcc           0x94         148   
.text.LodePNGText_clean 0x9d017e60           0x90         144   
.text.laContext_SetEdit 0x9d017ef0           0x90         144   
.text.cpuDrawPixel      0x9d017f80           0x90         144   
.text.lodepng_decode_me 0x9d018010           0x8c         140   
.text.GFXU_StringLookup 0x9d01809c           0x8c         140   
.text.laList_Destroy    0x9d018128           0x8c         140   
.text.GFX_RectClip      0x9d0181b4           0x8c         140   
.text.i2c_Read_Reg      0x9d018240           0x88         136   
.text.lodepng_chunk_typ 0x9d0182c8           0x88         136   
.text.laWidget_SetPosit 0x9d018350           0x88         136   
.text.defDrawPaletteSet 0x9d0183d8           0x88         136   
.text.DRV_TMR1_Initiali 0x9d018460           0x88         136   
.text.i2c_Start         0x9d0184e8           0x84         132   
.text.i2c_Stop          0x9d01856c           0x84         132   
.text.string_set        0x9d0185f0           0x84         132   
.text.uivector_resize   0x9d018674           0x84         132   
.text.lodepng_info_init 0x9d0186f8           0x84         132   
.text.defLayerPositionS 0x9d01877c           0x84         132   
.text.uivector_resizev  0x9d018800           0x80         128   
.text.generateFixedDist 0x9d018880           0x80         128   
.text.GFXU_DrawStringIn 0x9d018900           0x80         128   
.text.layerBufferFree   0x9d018980           0x80         128   
.text.defLayerSwapSet   0x9d018a00           0x80         128   
.text.lerp_rgb888       0x9d018a80           0x80         128   
.text.lerp_rgb565       0x9d018b00           0x80         128   
.text.lerp_rgb332       0x9d018b80           0x80         128   
.text.i2c_Read_Bit      0x9d018c00           0x7c         124   
.text.readBitsFromRever 0x9d018c7c           0x7c         124   
.text.blend_argb8888    0x9d018cf8           0x7c         124   
.text.GFX_PercentOf     0x9d018d74           0x7c         124   
.text.DRV_TMR0_Tasks    0x9d018df0           0x7c         124   
.text.DRV_TMR1_Tasks    0x9d018e6c           0x7c         124   
.text.fptoul            0x9d018ee8           0x7c         124   
.text.huffmanDecodeSymb 0x9d018f64           0x78         120   
.text.addColorBits      0x9d018fdc           0x78         120   
.text.paethPredictor    0x9d019054           0x78         120   
.text.GFXU_StringIndexL 0x9d0190cc           0x78         120   
.text.handleTouchDown   0x9d019144           0x78         120   
.text.laList_Clear      0x9d0191bc           0x78         120   
.text._laWidget_Destruc 0x9d019234           0x78         120   
.text.GFX_PixelBufferGe 0x9d0192ac           0x78         120   
.text.ucvector_reserve  0x9d019324           0x74         116   
.text.GFXU_StringFontIn 0x9d019398           0x74         116   
.text.GFXU_DrawUnknownG 0x9d01940c           0x74         116   
.text.laContext_SetFocu 0x9d019480           0x74         116   
.text.laScreen_SetLayer 0x9d0194f4           0x74         116   
.text.laUtils_ChildInte 0x9d019568           0x74         116   
.text.GFX_RectContainsR 0x9d0195dc           0x74         116   
.text.GFX_RectIntersect 0x9d019650           0x74         116   
.text.laUtils_RectToScr 0x9d0196c4           0x70         112   
.text.GFX_Set           0x9d019734           0x70         112   
.text.GFX_ScaleInteger  0x9d0197a4           0x70         112   
.text.GFX_Lerp          0x9d019814           0x70         112   
.text.LibAria_Initializ 0x9d019884           0x70         112   
.text.i2c_Write_Reg     0x9d0198f4           0x6c         108   
.text.JPEG_wGetBits     0x9d019960           0x6c         108   
.text.laString_Destroy  0x9d0199cc           0x6c         108   
.text.laUtils_GetLayer  0x9d019a38           0x6c         108   
.text._laLabelWidget_Co 0x9d019aa4           0x6c         108   
.text.SYS_DMA_Initializ 0x9d019b10           0x6c         108   
.text.setBitOfReversedS 0x9d019b7c           0x68         104   
.text.laContext_GetScre 0x9d019be4           0x68         104   
.text._laImageWidget_Co 0x9d019c4c           0x68         104   
.text.defDrawGradientCo 0x9d019cb4           0x68         104   
.text.GFX_PixelBufferOf 0x9d019d1c           0x68         104   
.text.GFX_PixelBufferSe 0x9d019d84           0x68         104   
.text.getNumColorChanne 0x9d019dec           0x64         100   
.text._laLayer_Moved    0x9d019e50           0x64         100   
.text._laLayer_Resized  0x9d019eb4           0x64         100   
.text._laLayer_Paint    0x9d019f18           0x64         100   
.text.isAncestorOf      0x9d019f7c           0x64         100   
.text.laWidget_RemoveCh 0x9d019fe0           0x64         100   
.text.laButtonWidget_Se 0x9d01a044           0x64         100   
.text.laLabelWidget_Set 0x9d01a0a8           0x64         100   
.text._laRectangleWidge 0x9d01a10c           0x64         100   
.text.defLayerSizeGet   0x9d01a170           0x64         100   
.text.defLayerSizeSet   0x9d01a1d4           0x64         100   
.text.indexGet          0x9d01a238           0x64         100   
.text.rgb565_gs8        0x9d01a29c           0x64         100   
.text.rgb332_gs8        0x9d01a300           0x64         100   
.text.DRV_TMR_AlarmRegi 0x9d01a364           0x64         100   
.text.JPEG_wReadWord    0x9d01a3c8           0x60          96   
.text.JPEG_sGetBitsValu 0x9d01a428           0x60          96   
.text.color_tree_cleanu 0x9d01a488           0x60          96   
.text.GFXU_GetStringHei 0x9d01a4e8           0x60          96   
.text._laContext_Handle 0x9d01a548           0x60          96   
.text._laInput_HandleIn 0x9d01a5a8           0x60          96   
.text.GFX_LayerSwap     0x9d01a608           0x60          96   
.text.GFX_PixelBufferGe 0x9d01a668           0x60          96   
.text.lut_argb8888      0x9d01a6c8           0x60          96   
.text.lut_rgba8888      0x9d01a728           0x60          96   
.text.lut_rgb888        0x9d01a788           0x60          96   
.text.lut_rgba5551      0x9d01a7e8           0x60          96   
.text.lut_rgb565        0x9d01a848           0x60          96   
.text.lut_rgb332        0x9d01a8a8           0x60          96   
.text.lut_gs8           0x9d01a908           0x60          96   
.text.sitofp            0x9d01a968           0x60          96   
.text.lodepng_chunk_che 0x9d01a9c8           0x5c          92   
.text.stringEntrySizeRe 0x9d01aa24           0x5c          92   
.text.laUtils_RectToLay 0x9d01aa80           0x5c          92   
.text.defLayerActiveSet 0x9d01aadc           0x5c          92   
.text.defDrawGradientCo 0x9d01ab38           0x5c          92   
.text.GFX_PixelBufferDe 0x9d01ab94           0x5c          92   
.text.SYS_DMA_ChannelAl 0x9d01abf0           0x5c          92   
.rodata                 0x9d01ac4c           0x5c          92  Read-only const 
.text.stringArraySizeRe 0x9d01aca8           0x58          88   
.text.laDraw_LineBorder 0x9d01ad00           0x58          88   
.text.laImageWidget_New 0x9d01ad58           0x58          88   
.text.laRectangleWidget 0x9d01adb0           0x58          88   
.text.GFX_ColorModeInfo 0x9d01ae08           0x58          88   
.text.defDrawPaletteGet 0x9d01ae60           0x58          88   
.text.DRV_TMR0_AlarmReg 0x9d01aeb8           0x58          88   
.text.DRV_TMR1_AlarmReg 0x9d01af10           0x58          88   
.text.SYS_DEVCON_System 0x9d01af68           0x58          88   
.text.main_entry        0x9d01afc0           0x54          84   
.text.ucvector_push_bac 0x9d01b014           0x54          84   
.text.lodepng_crc32     0x9d01b068           0x54          84   
.text.lodepng_get_raw_s 0x9d01b0bc           0x54          84   
.text.lodepng_get_raw_s 0x9d01b110           0x54          84   
.text._laContext_Update 0x9d01b164           0x54          84   
.text.laWidget_GetCumul 0x9d01b1b8           0x54          84   
.text._laButtonWidget_D 0x9d01b20c           0x54          84   
.text._laLabelWidget_De 0x9d01b260           0x54          84   
.text.GFX_Get           0x9d01b2b4           0x54          84   
.text.defLayerPositionG 0x9d01b308           0x54          84   
.text.orient_90         0x9d01b35c           0x54          84   
.text.orient_270        0x9d01b3b0           0x54          84   
.text.lodepng_info_clea 0x9d01b404           0x50          80   
.text.laButtonWidget_Ne 0x9d01b454           0x50          80   
.text.laLabelWidget_New 0x9d01b4a4           0x50          80   
.text.GFX_PixelBufferGe 0x9d01b4f4           0x50          80   
.text.GFX_RectContainsP 0x9d01b544           0x50          80   
.text.sbrk              0x9d01b594           0x50          80   
.rodata                 0x9d01b5e4           0x4c          76  Read-only const 
.text.readBitsFromStrea 0x9d01b630           0x4c          76   
.text._laWidget_Paint   0x9d01b67c           0x4c          76   
.text._laButtonWidget_P 0x9d01b6c8           0x4c          76   
.text._laImageWidget_Pa 0x9d01b714           0x4c          76   
.text._laLabelWidget_Pa 0x9d01b760           0x4c          76   
.text.defLayerBufferCoh 0x9d01b7ac           0x4c          76   
.text.orient_180        0x9d01b7f8           0x4c          76   
.text.DRV_TMR_Start     0x9d01b844           0x4c          76   
.text                   0x9d01b890           0x4c          76  App's exec code 
.text.calloc            0x9d01b8dc           0x4c          76   
.text.APP_Initialize    0x9d01b928           0x48          72   
.text.GFXU_GetStringSiz 0x9d01b970           0x48          72   
.text.laContext_AddScre 0x9d01b9b8           0x48          72   
.text.laEvent_AddEvent  0x9d01ba00           0x48          72   
.text.laList_Get        0x9d01ba48           0x48          72   
.text.la_strcpy         0x9d01ba90           0x48          72   
.text._laWidget_Invalid 0x9d01bad8           0x48          72   
.text._laImageWidget_De 0x9d01bb20           0x48          72   
.text.defDrawClipRectGe 0x9d01bb68           0x48          72   
.text.defDrawClipRectSe 0x9d01bbb0           0x48          72   
.text.DRV_TMR_AlarmEnab 0x9d01bbf8           0x48          72   
.text.driverLCCInfoGet  0x9d01bc40           0x48          72   
.text.SYS_DEVCON_System 0x9d01bc88           0x48          72   
.text.BSP_Initialize    0x9d01bcd0           0x48          72   
.text._bootstrap_except 0x9d01bd18           0x48          72   
.text._cache_err_except 0x9d01bd60           0x48          72   
.text._simple_tlb_refil 0x9d01bda8           0x48          72   
.text.lodepng_encoder_s 0x9d01bdf0           0x44          68   
.text.lodepng_state_ini 0x9d01be34           0x44          68   
.text._laWidget_Invalid 0x9d01be78           0x44          68   
.text.defBegin          0x9d01bebc           0x44          68   
.text.defLayerBufferIsA 0x9d01bf00           0x44          68   
.text.get_layerBufferAd 0x9d01bf44           0x44          68   
.text.get_layerBufferCo 0x9d01bf88           0x44          68   
.text.get_layerBufferAl 0x9d01bfcc           0x44          68   
.text.GFX_ColorLerp     0x9d01c010           0x44          68   
.text.GFX_PercentWholeR 0x9d01c054           0x44          68   
.text.lccDestroy        0x9d01c098           0x44          68   
.text                   0x9d01c0dc           0x44          68  App's exec code 
.text.JPEG_Read         0x9d01c120           0x40          64   
.text.ucvector_resize   0x9d01c160           0x40          64   
.text.string_init       0x9d01c1a0           0x40          64   
.text.GFXU_DrawCharStri 0x9d01c1e0           0x40          64   
.text.laContext_Update  0x9d01c220           0x40          64   
.text._laWidget_Validat 0x9d01c260           0x40          64   
.text.defBrightnessSet  0x9d01c2a0           0x40          64   
.text.get_drawGradientC 0x9d01c2e0           0x40          64   
.text.GFX_PixelBufferOf 0x9d01c320           0x40          64   
.text.rgba5551_rgba8888 0x9d01c360           0x40          64   
.text.rgba5551_argb8888 0x9d01c3a0           0x40          64   
.text.GFX_ColorConvert  0x9d01c3e0           0x40          64   
.text.zlib_decompress   0x9d01c420           0x3c          60   
.text.lodepng_compress_ 0x9d01c45c           0x3c          60   
.text.lodepng_palette_c 0x9d01c498           0x3c          60   
.text.GFXU_DrawGlyphRow 0x9d01c4d4           0x3c          60   
.text.laContext_GetActi 0x9d01c510           0x3c          60   
.text.handleTouchUp     0x9d01c54c           0x3c          60   
.text.handleTouchMoved  0x9d01c588           0x3c          60   
.text.defVSyncCallbackS 0x9d01c5c4           0x3c          60   
.text.defHSyncCallbackS 0x9d01c600           0x3c          60   
.text.defLayerBufferAdd 0x9d01c63c           0x3c          60   
.text.defLayerBufferCoh 0x9d01c678           0x3c          60   
.text.defLayerAlphaAmou 0x9d01c6b4           0x3c          60   
.text.set_drawGradientC 0x9d01c6f0           0x3c          60   
.text._general_exceptio 0x9d01c72c           0x3c          60   
.text.HuffmanTree_clean 0x9d01c768           0x38          56   
.text.GFXU_DecodeCodePo 0x9d01c7a0           0x38          56   
.text.laInitialize      0x9d01c7d8           0x38          56   
.text._laContext_Update 0x9d01c810           0x38          56   
.text.laEditWidget_Star 0x9d01c848           0x38          56   
.text.GFX_Update        0x9d01c880           0x38          56   
.text.GFX_Begin         0x9d01c8b8           0x38          56   
.text.defDrawBlendModeS 0x9d01c8f0           0x38          56   
.text.GFX_DriverIntfGet 0x9d01c928           0x38          56   
.text.get_brightness    0x9d01c960           0x38          56   
.text.get_vsyncCallback 0x9d01c998           0x38          56   
.text.get_hsyncCallback 0x9d01c9d0           0x38          56   
.text.get_orientation   0x9d01ca08           0x38          56   
.text.get_mirroring     0x9d01ca40           0x38          56   
.text.get_colorMode     0x9d01ca78           0x38          56   
.text.get_layerEnabled  0x9d01cab0           0x38          56   
.text.get_layerVisible  0x9d01cae8           0x38          56   
.text.get_layerVsync    0x9d01cb20           0x38          56   
.text.get_layerSwap     0x9d01cb58           0x38          56   
.text.get_layerAlphaEna 0x9d01cb90           0x38          56   
.text.get_layerAlphaAmo 0x9d01cbc8           0x38          56   
.text.get_layerMaskEnab 0x9d01cc00           0x38          56   
.text.get_layerMaskColo 0x9d01cc38           0x38          56   
.text.get_layerBufferCo 0x9d01cc70           0x38          56   
.text.get_drawMode      0x9d01cca8           0x38          56   
.text.get_drawColor     0x9d01cce0           0x38          56   
.text.get_drawBlendMode 0x9d01cd18           0x38          56   
.text.get_drawAlphaEnab 0x9d01cd50           0x38          56   
.text.get_drawAlphaValu 0x9d01cd88           0x38          56   
.text.get_drawMaskEnabl 0x9d01cdc0           0x38          56   
.text.get_drawMaskValue 0x9d01cdf8           0x38          56   
.text.get_drawThickness 0x9d01ce30           0x38          56   
.text.get_drawClipEnabl 0x9d01ce68           0x38          56   
.text._GFX_LayerSizeSet 0x9d01cea0           0x38          56   
.text.GFX_ColorBlendAlp 0x9d01ced8           0x38          56   
.text.SYS_DMA_ChannelEn 0x9d01cf10           0x38          56   
.text.SYS_DMA_ChannelFo 0x9d01cf48           0x38          56   
.text.DRV_TMR0_Start    0x9d01cf80           0x38          56   
.text.ucvector_cleanup  0x9d01cfb8           0x34          52   
.text.uivector_cleanup  0x9d01cfec           0x34          52   
.text.laInput_SetEnable 0x9d01d020           0x34          52   
.text.laWidget_SetSchem 0x9d01d054           0x34          52   
.text.laImageWidget_Set 0x9d01d088           0x34          52   
.text.defLayerBufferFre 0x9d01d0bc           0x34          52   
.text.defLayerBufferAll 0x9d01d0f0           0x34          52   
.text.get_driverInfo    0x9d01d124           0x34          52   
.text.get_brightnessRan 0x9d01d158           0x34          52   
.text.get_layerCount    0x9d01d18c           0x34          52   
.text.get_layerActive   0x9d01d1c0           0x34          52   
.text.get_layerPosition 0x9d01d1f4           0x34          52   
.text.get_layerSize     0x9d01d228           0x34          52   
.text.get_drawPalette   0x9d01d25c           0x34          52   
.text.set_layerPosition 0x9d01d290           0x34          52   
.text.set_layerSize     0x9d01d2c4           0x34          52   
.text.set_layerBufferAd 0x9d01d2f8           0x34          52   
.text.set_layerBufferCo 0x9d01d32c           0x34          52   
.text.LibAria_Tasks     0x9d01d360           0x34          52   
.text.lodepng_get_bpp   0x9d01d394           0x30          48   
.text.lodepng_state_cle 0x9d01d3c4           0x30          48   
.text.laEditWidget_EndE 0x9d01d3f4           0x30          48   
.text.GFX_End           0x9d01d424           0x30          48   
.text.defLayerEnabledSe 0x9d01d454           0x30          48   
.text.defLayerVisibleSe 0x9d01d484           0x30          48   
.text.defLayerVsyncSet  0x9d01d4b4           0x30          48   
.text.defLayerAlphaEnab 0x9d01d4e4           0x30          48   
.text.defLayerMaskEnabl 0x9d01d514           0x30          48   
.text.defLayerMaskColor 0x9d01d544           0x30          48   
.text.get_drawClipRect  0x9d01d574           0x30          48   
.text.set_brightness    0x9d01d5a4           0x30          48   
.text.set_vsyncCallback 0x9d01d5d4           0x30          48   
.text.set_hsyncCallback 0x9d01d604           0x30          48   
.text.set_orientation   0x9d01d634           0x30          48   
.text.set_mirroring     0x9d01d664           0x30          48   
.text.set_colorMode     0x9d01d694           0x30          48   
.text.set_layerActive   0x9d01d6c4           0x30          48   
.text.set_layerEnabled  0x9d01d6f4           0x30          48   
.text.set_layerVisible  0x9d01d724           0x30          48   
.text.set_layerVsync    0x9d01d754           0x30          48   
.text.set_layerSwap     0x9d01d784           0x30          48   
.text.set_layerAlphaEna 0x9d01d7b4           0x30          48   
.text.set_layerAlphaAmo 0x9d01d7e4           0x30          48   
.text.set_layerMaskEnab 0x9d01d814           0x30          48   
.text.set_layerMaskColo 0x9d01d844           0x30          48   
.text.set_layerBufferCo 0x9d01d874           0x30          48   
.text.set_layerBufferAl 0x9d01d8a4           0x30          48   
.text.set_layerBufferFr 0x9d01d8d4           0x30          48   
.text.set_drawMode      0x9d01d904           0x30          48   
.text.set_drawColor     0x9d01d934           0x30          48   
.text.set_drawPalette   0x9d01d964           0x30          48   
.text.set_drawBlendMode 0x9d01d994           0x30          48   
.text.set_drawAlphaEnab 0x9d01d9c4           0x30          48   
.text.set_drawAlphaValu 0x9d01d9f4           0x30          48   
.text.set_drawMaskEnabl 0x9d01da24           0x30          48   
.text.set_drawMaskValue 0x9d01da54           0x30          48   
.text.set_drawThickness 0x9d01da84           0x30          48   
.text.set_drawClipEnabl 0x9d01dab4           0x30          48   
.text.set_drawClipRect  0x9d01dae4           0x30          48   
.text.rgb332_rgb888     0x9d01db14           0x30          48   
.text.rgb332_rgba8888   0x9d01db44           0x30          48   
.text.rgb332_argb8888   0x9d01db74           0x30          48   
.text.rgba5551_rgb888   0x9d01dba4           0x30          48   
.text.rgba8888_rgba5551 0x9d01dbd4           0x30          48   
.text.argb8888_rgba5551 0x9d01dc04           0x30          48   
.text.DRV_TMR0_AlarmEna 0x9d01dc34           0x30          48   
.text.DRV_TMR1_Start    0x9d01dc64           0x30          48   
.text.DRV_TMR1_AlarmEna 0x9d01dc94           0x30          48   
.text.free              0x9d01dcc4           0x30          48   
.text.JPEG_bReadByte    0x9d01dcf4           0x2c          44   
.text.lodepng_read32bit 0x9d01dd20           0x2c          44   
.text.lodepng_chunk_nex 0x9d01dd4c           0x2c          44   
.text.lodepng_color_mod 0x9d01dd78           0x2c          44   
.text.getDiscreteValueA 0x9d01dda4           0x2c          44   
.text.getOffsetFromInde 0x9d01ddd0           0x2c          44   
.text.defDrawModeSet    0x9d01ddfc           0x2c          44   
.text.defDrawColorSet   0x9d01de28           0x2c          44   
.text.defDrawAlphaEnabl 0x9d01de54           0x2c          44   
.text.defDrawAlphaValue 0x9d01de80           0x2c          44   
.text.defDrawMaskEnable 0x9d01deac           0x2c          44   
.text.defDrawMaskValueS 0x9d01ded8           0x2c          44   
.text.defDrawThicknessS 0x9d01df04           0x2c          44   
.text.defDrawClipEnable 0x9d01df30           0x2c          44   
.text.indexGet1bpp      0x9d01df5c           0x2c          44   
.text.GFX_UtilOrientPoi 0x9d01df88           0x2c          44   
.text.GFX_LayerSizeFrom 0x9d01dfb4           0x2c          44   
.text.GFX_LayerSizeToOr 0x9d01dfe0           0x2c          44   
.text.rgb565_argb8888   0x9d01e00c           0x2c          44   
.text.GFX_Percent       0x9d01e038           0x2c          44   
.text.SYS_Tasks         0x9d01e064           0x2c          44   
.text._stub_sbd_memlayo 0x9d01e090           0x2c          44   
.text.readBitFromRevers 0x9d01e0bc           0x28          40   
.text.lodepng_decoder_s 0x9d01e0e4           0x28          40   
.text.headerReadRequest 0x9d01e10c           0x28          40   
.text.laContext_SetStri 0x9d01e134           0x28          40   
.text.laWidget_SetBorde 0x9d01e15c           0x28          40   
.text.laWidget_SetDrawB 0x9d01e184           0x28          40   
.text.GFX_Initialize    0x9d01e1ac           0x28          40   
.text.orient_0          0x9d01e1d4           0x28          40   
.text.rgb332_rgb565     0x9d01e1fc           0x28          40   
.text.rgb332_rgba5551   0x9d01e224           0x28          40   
.text.rgb565_rgba8888   0x9d01e24c           0x28          40   
.text.rgb888_rgba5551   0x9d01e274           0x28          40   
.text.GFX_InitializeDri 0x9d01e29c           0x28          40   
.text.APP_TimerUsCallba 0x9d01e2c4           0x24          36   
.text.laList_Create     0x9d01e2e8           0x24          36   
.text.laString_Initiali 0x9d01e30c           0x24          36   
.text.defEnd            0x9d01e330           0x24          36   
.text.defLayerEnabledGe 0x9d01e354           0x24          36   
.text.defLayerVisibleGe 0x9d01e378           0x24          36   
.text.defLayerBufferCou 0x9d01e39c           0x24          36   
.text.defLayerVsyncGet  0x9d01e3c0           0x24          36   
.text.defLayerSwapGet   0x9d01e3e4           0x24          36   
.text.defLayerAlphaEnab 0x9d01e408           0x24          36   
.text.defLayerAlphaAmou 0x9d01e42c           0x24          36   
.text.defLayerMaskEnabl 0x9d01e450           0x24          36   
.text.defLayerMaskColor 0x9d01e474           0x24          36   
.text.indexGet4bpp      0x9d01e498           0x24          36   
.text.rgb565_rgb888     0x9d01e4bc           0x24          36   
.text.rgb888_rgb332     0x9d01e4e0           0x24          36   
.text.rgba8888_rgb888   0x9d01e504           0x24          36   
.text.DRV_TMR0_AlarmDis 0x9d01e528           0x24          36   
.text.DRV_TMR1_AlarmDis 0x9d01e54c           0x24          36   
.text.main              0x9d01e570           0x20          32   
.text.getDiscreteValueA 0x9d01e590           0x20          32   
.text.laLayer_Delete    0x9d01e5b0           0x20          32   
.text.defBrightnessGet  0x9d01e5d0           0x20          32   
.text.defVSyncCallbackG 0x9d01e5f0           0x20          32   
.text.defHSyncCallbackG 0x9d01e610           0x20          32   
.text.defOrientationGet 0x9d01e630           0x20          32   
.text.defMirroringGet   0x9d01e650           0x20          32   
.text.defColorModeGet   0x9d01e670           0x20          32   
.text.defLayerActiveGet 0x9d01e690           0x20          32   
.text.defDrawModeGet    0x9d01e6b0           0x20          32   
.text.defDrawColorGet   0x9d01e6d0           0x20          32   
.text.defDrawBlendModeG 0x9d01e6f0           0x20          32   
.text.defDrawAlphaEnabl 0x9d01e710           0x20          32   
.text.defDrawAlphaValue 0x9d01e730           0x20          32   
.text.defDrawMaskEnable 0x9d01e750           0x20          32   
.text.defDrawMaskValueG 0x9d01e770           0x20          32   
.text.defDrawThicknessG 0x9d01e790           0x20          32   
.text.defDrawClipEnable 0x9d01e7b0           0x20          32   
.text.gs8_rgb565        0x9d01e7d0           0x20          32   
.text.gs8_rgba5551      0x9d01e7f0           0x20          32   
.text.rgb565_rgb332     0x9d01e810           0x20          32   
.text.rgba5551_rgb332   0x9d01e830           0x20          32   
.text.rgb888_rgb565     0x9d01e850           0x20          32   
.text.rgba8888_rgb332   0x9d01e870           0x20          32   
.text.rgba8888_rgb565   0x9d01e890           0x20          32   
.text.driverLCCContextI 0x9d01e8b0           0x20          32   
.text.Delay_ms          0x9d01e8d0           0x1c          28   
.text.laUpdate          0x9d01e8ec           0x1c          28   
.text.laContext_GetStri 0x9d01e908           0x1c          28   
.text.laContext_GetStri 0x9d01e924           0x1c          28   
.text.laContext_GetEdit 0x9d01e940           0x1c          28   
.text.laLayer_SetBuffer 0x9d01e95c           0x1c          28   
.text._laLayer_Invalida 0x9d01e978           0x1c          28   
.text._laRectangleWidge 0x9d01e994           0x1c          28   
.text.defPixelGet       0x9d01e9b0           0x1c          28   
.text.defPixelSet       0x9d01e9cc           0x1c          28   
.text.GFX_DriverIntfIni 0x9d01e9e8           0x1c          28   
.text.gs8_rgba8888      0x9d01ea04           0x1c          28   
.text.gs8_argb8888      0x9d01ea20           0x1c          28   
.text.lerp_gs8          0x9d01ea3c           0x1c          28   
.text.getDiscreteValueA 0x9d01ea58           0x18          24   
.text.GFXU_DecodeASCII  0x9d01ea70           0x18          24   
.text.GFX_DisplayInfoPt 0x9d01ea88           0x18          24   
.text.gs8_rgb332        0x9d01eaa0           0x18          24   
.text.rgb565_rgba5551   0x9d01eab8           0x18          24   
.text                   0x9d01ead0           0x18          24  App's exec code 
.text.APP_TimerCallback 0x9d01eae8           0x14          20   
.text.paletteReadReques 0x9d01eafc           0x28          40   
.text.fontDataRequestCo 0x9d01eb24           0x14          20   
.text.laContext_GetDefa 0x9d01eb38           0x14          20   
.text.laScreen_GetLayer 0x9d01eb4c           0x14          20   
.text.defBrightnessRang 0x9d01eb60           0x14          20   
.text.get_displayCount  0x9d01eb74           0x14          20   
.text.get_driverCount   0x9d01eb88           0x14          20   
.text.gs8_rgb888        0x9d01eb9c           0x14          20   
.text.rgba5551_rgb565   0x9d01ebb0           0x14          20   
.text.SYS_DMA_Suspend   0x9d01ebc4           0x14          20   
.text.SYS_DMA_Resume    0x9d01ebd8           0x14          20   
.text.SYS_INT_Initializ 0x9d01ebec           0x14          20   
.text.SYS_DEVCON_Initia 0x9d01ec00           0x14          20   
.rodata                 0x9d01ec14           0x20          32  Read-only const 
.text.blend_rgba5551    0x9d01ec34           0x10          16   
.text.alpha_rgba8888    0x9d01ec44           0x10          16   
.text.DRV_TMR_Open      0x9d01ec54           0x10          16   
.text.calcOffset24bpp   0x9d01ec64            0xc          12   
.text.laContext_SetActi 0x9d01ec70            0xc          12   
.text.GFX_DriverIntfPtr 0x9d01ec7c            0xc          12   
.text.alpha_rgba5551    0x9d01ec88            0xc          12   
.text.alpha_argb8888    0x9d01ec94            0xc          12   
.text.rgb888_rgba8888   0x9d01eca0            0xc          12   
.text.rgb888_argb8888   0x9d01ecac            0xc          12   
.text.SYS_CLK_SystemFre 0x9d01ecb8            0xc          12   
.text.getDiscreteValueA 0x9d01ecc4            0x8           8   
.text.calcOffset1bpp    0x9d01eccc            0x8           8   
.text.calcOffset4bpp    0x9d01ecd4            0x8           8   
.text.calcOffset8bpp    0x9d01ecdc            0x8           8   
.text.calcOffset16bpp   0x9d01ece4            0x8           8   
.text.calcOffset32bpp   0x9d01ecec            0x8           8   
.text.laContext_GetActi 0x9d01ecf4            0x8           8   
.text.update            0x9d01ecfc            0x8           8   
.text.moved             0x9d01ed04            0x8           8   
.text.resized           0x9d01ed0c            0x8           8   
.text.focusGained       0x9d01ed14            0x8           8   
.text.focusLost         0x9d01ed1c            0x8           8   
.text.touchDownEvent    0x9d01ed24            0x8           8   
.text.touchUpEvent      0x9d01ed2c            0x8           8   
.text.touchMovedEvent   0x9d01ed34            0x8           8   
.text.GFX_ActiveContext 0x9d01ed3c            0x8           8   
.text.GFX_ContextActive 0x9d01ed44            0x8           8   
.text._GFX_DefaultSyncC 0x9d01ed4c            0x8           8   
.text.defUpdate         0x9d01ed54            0x8           8   
.text.defLayerSwapped   0x9d01ed5c            0x8           8   
.text.defDrawLock       0x9d01ed64            0x8           8   
.text.defDrawUnlock     0x9d01ed6c            0x8           8   
.text.defInterrupt      0x9d01ed74            0x8           8   
.text.get_unimplemented 0x9d01ed7c            0x8           8   
.text.set_unimplemented 0x9d01ed84            0x8           8   
.text.blend_none        0x9d01ed8c            0x8           8   
.text.alpha_none        0x9d01ed94            0x8           8   
.text.no_conv           0x9d01ed9c            0x8           8   
.text.gs8_yuv           0x9d01eda4            0x8           8   
.text.rgb332_yuv        0x9d01edac            0x8           8   
.text.rgb565_yuv        0x9d01edb4            0x8           8   
.text.rgba5551_gs8      0x9d01edbc            0x8           8   
.text.rgba5551_yuv      0x9d01edc4            0x8           8   
.text.rgb888_gs8        0x9d01edcc            0x8           8   
.text.rgb888_yuv        0x9d01edd4            0x8           8   
.text.rgba8888_gs8      0x9d01eddc            0x8           8   
.text.rgba8888_argb8888 0x9d01ede4            0x8           8   
.text.rgba8888_yuv      0x9d01edec            0x8           8   
.text.argb8888_rgb888   0x9d01edf4            0x8           8   
.text.argb8888_rgba8888 0x9d01edfc            0x8           8   
.text.yuv_gs8           0x9d01ee04            0x8           8   
.text.yuv_rgb332        0x9d01ee0c            0x8           8   
.text.yuv_rgb565        0x9d01ee14            0x8           8   
.text.yuv_rgba5551      0x9d01ee1c            0x8           8   
.text.yuv_rgb888        0x9d01ee24            0x8           8   
.text.yuv_rgba8888      0x9d01ee2c            0x8           8   
.text.yuv_argb8888      0x9d01ee34            0x8           8   
.text.lut_yuv           0x9d01ee3c            0x8           8   
.text.cpuDrawLine_AA    0x9d01ee44            0x8           8   
.text.cpuDrawRect_Line_ 0x9d01ee4c            0x8           8   
.text.cpuDrawRect_Fill_ 0x9d01ee54            0x8           8   
.text.layerBufferCountS 0x9d01ee5c            0x8           8   
.text.layerBufferAddres 0x9d01ee64            0x8           8   
.text.layerBufferAlloca 0x9d01ee6c            0x8           8   
.text._on_reset         0x9d01ee74            0x8           8   
.text._on_bootstrap     0x9d01ee7c            0x8           8   
.rodata                 0x9d01ee84            0x8           8  Read-only const 
      Total kseg0_program_mem used  :     0x1ee8c      126604  6.0% of 0x200000

kseg0 Boot-Memory Usage
section                    address  length [bytes]      (dec)  Description
-------                 ----------  -------------------------  -----------
         Total kseg0_boot_mem used  :           0           0  

kseg1 Boot-Memory Usage
section                    address  length [bytes]      (dec)  Description
-------                 ----------  -------------------------  -----------
.reset                  0xbfc00000          0x210         528  Reset handler 
.bev_excpt              0xbfc00380           0x10          16  BEV-Exception 
         Total kseg1_boot_mem used  :       0x220         544  47.2% of 0x480
        --------------------------------------------------------------------------
         Total Program Memory used  :     0x1f0ac      127148  6.1% of 0x200480
        --------------------------------------------------------------------------


kseg0 Data-Memory Usage
section                    address  length [bytes]      (dec)  Description
-------                 ----------  -------------------------  -----------
.sdata                  0x80000000          0x210         528  Small init data 
.sbss                   0x80000210          0x104         260  Small uninit data 
.bss                    0x80000314          0x17c         380  Uninitialized data 
.data                   0x80040090         0x2100        8448  Initialized data 
.bss                    0x80042190          0x9f8        2552  Uninitialized data 
.data                   0x80042b88          0x1e4         484  Initialized data 
.bss                    0x80042d6c          0x150         336  Uninitialized data 
.data                   0x80042ebc          0x370         880  Initialized data 
.bss                    0x8004322c           0x6c         108  Uninitialized data 
.data                   0x80043298           0x34          52  Initialized data 
.bss.errno              0x800432cc            0x4           4   
.bss.frameBuffer.frameB 0x80000490        0x3fc00      261120   
         Total kseg0_data_mem used  :     0x432d0      275152  52.5% of 0x80000
        --------------------------------------------------------------------------
            Total Data Memory used  :     0x432d0      275152  52.5% of 0x80000
        --------------------------------------------------------------------------


Dynamic Data-Memory Reservation
section                    address  length [bytes]      (dec)  Description
-------                 ----------  -------------------------  -----------
heap                    0x800432d8        0x19000      102400  Reserved for heap 
stack                   0x8005c2f0        0x23d08      146696  Reserved for stack 

        --------------------------------------------------------------------------

Discarded input sections

 .text          0x00000000        0x0 c:/program files (x86)/microchip/xc32/v1.42/bin/bin/../../lib/gcc/pic32mx/4.8.3/../../../../pic32mx/lib/./proc/32MZ2048ECG144/crt0_mips32r2.o
 .data          0x00000000        0x0 c:/program files (x86)/microchip/xc32/v1.42/bin/bin/../../lib/gcc/pic32mx/4.8.3/../../../../pic32mx/lib/./proc/32MZ2048ECG144/crt0_mips32r2.o
 .bss           0x00000000        0x0 c:/program files (x86)/microchip/xc32/v1.42/bin/bin/../../lib/gcc/pic32mx/4.8.3/../../../../pic32mx/lib/./proc/32MZ2048ECG144/crt0_mips32r2.o
 .text          0x00000000        0x0 c:/program files (x86)/microchip/xc32/v1.42/bin/bin/../../lib/gcc/pic32mx/4.8.3/../../../../pic32mx/lib\debug-exception-return.o
 .data          0x00000000        0x0 c:/program files (x86)/microchip/xc32/v1.42/bin/bin/../../lib/gcc/pic32mx/4.8.3/../../../../pic32mx/lib\debug-exception-return.o
 .bss           0x00000000        0x0 c:/program files (x86)/microchip/xc32/v1.42/bin/bin/../../lib/gcc/pic32mx/4.8.3/../../../../pic32mx/lib\debug-exception-return.o
 .reginfo       0x00000000       0x18 c:/program files (x86)/microchip/xc32/v1.42/bin/bin/../../lib/gcc/pic32mx/4.8.3/../../../../pic32mx/lib\debug-exception-return.o
 .text          0x00000000        0x0 build/pic32mz_ef_sk_meb2/production/_ext/1360937237/app.o
 .data          0x00000000        0x0 build/pic32mz_ef_sk_meb2/production/_ext/1360937237/app.o
 .bss           0x00000000        0x0 build/pic32mz_ef_sk_meb2/production/_ext/1360937237/app.o
 .reginfo       0x00000000       0x18 build/pic32mz_ef_sk_meb2/production/_ext/1360937237/app.o
 COMMON         0x00000000        0x0 build/pic32mz_ef_sk_meb2/production/_ext/1360937237/app.o
 .text          0x00000000        0x0 build/pic32mz_ef_sk_meb2/production/_ext/1360937237/main.o
 .data          0x00000000        0x0 build/pic32mz_ef_sk_meb2/production/_ext/1360937237/main.o
 .bss           0x00000000        0x0 build/pic32mz_ef_sk_meb2/production/_ext/1360937237/main.o
 .reginfo       0x00000000       0x18 build/pic32mz_ef_sk_meb2/production/_ext/1360937237/main.o
 .text          0x00000000        0x0 build/pic32mz_ef_sk_meb2/production/_ext/1360937237/ov2640.o
 .data          0x00000000        0x0 build/pic32mz_ef_sk_meb2/production/_ext/1360937237/ov2640.o
 .reginfo       0x00000000       0x18 build/pic32mz_ef_sk_meb2/production/_ext/1360937237/ov2640.o
 .text          0x00000000        0x0 build/pic32mz_ef_sk_meb2/production/_ext/1360937237/i2c_master_noint.o
 .data          0x00000000        0x0 build/pic32mz_ef_sk_meb2/production/_ext/1360937237/i2c_master_noint.o
 .bss           0x00000000        0x0 build/pic32mz_ef_sk_meb2/production/_ext/1360937237/i2c_master_noint.o
 .reginfo       0x00000000       0x18 build/pic32mz_ef_sk_meb2/production/_ext/1360937237/i2c_master_noint.o
 .text.i2c_master_setup
                0x00000000       0x28 build/pic32mz_ef_sk_meb2/production/_ext/1360937237/i2c_master_noint.o
 .text.i2c_master_start
                0x00000000       0x30 build/pic32mz_ef_sk_meb2/production/_ext/1360937237/i2c_master_noint.o
 .text.i2c_master_restart
                0x00000000       0x30 build/pic32mz_ef_sk_meb2/production/_ext/1360937237/i2c_master_noint.o
 .text.i2c_master_send
                0x00000000       0x2c build/pic32mz_ef_sk_meb2/production/_ext/1360937237/i2c_master_noint.o
 .text.i2c_master_recv
                0x00000000       0x34 build/pic32mz_ef_sk_meb2/production/_ext/1360937237/i2c_master_noint.o
 .text.i2c_master_ack
                0x00000000       0x3c build/pic32mz_ef_sk_meb2/production/_ext/1360937237/i2c_master_noint.o
 .text.i2c_master_stop
                0x00000000       0x54 build/pic32mz_ef_sk_meb2/production/_ext/1360937237/i2c_master_noint.o
 .text          0x00000000        0x0 build/pic32mz_ef_sk_meb2/production/_ext/1360937237/i2c_bitbanging.o
 .data          0x00000000        0x0 build/pic32mz_ef_sk_meb2/production/_ext/1360937237/i2c_bitbanging.o
 .bss           0x00000000        0x0 build/pic32mz_ef_sk_meb2/production/_ext/1360937237/i2c_bitbanging.o
 .reginfo       0x00000000       0x18 build/pic32mz_ef_sk_meb2/production/_ext/1360937237/i2c_bitbanging.o
 .text.i2c_Init
                0x00000000       0x20 build/pic32mz_ef_sk_meb2/production/_ext/1360937237/i2c_bitbanging.o
 .text          0x00000000        0x0 build/pic32mz_ef_sk_meb2/production/_ext/426253641/jidctint.o
 .data          0x00000000        0x0 build/pic32mz_ef_sk_meb2/production/_ext/426253641/jidctint.o
 .bss           0x00000000        0x0 build/pic32mz_ef_sk_meb2/production/_ext/426253641/jidctint.o
 .reginfo       0x00000000       0x18 build/pic32mz_ef_sk_meb2/production/_ext/426253641/jidctint.o
 .text          0x00000000        0x0 build/pic32mz_ef_sk_meb2/production/_ext/1597685232/gfxu_image.o
 .data          0x00000000        0x0 build/pic32mz_ef_sk_meb2/production/_ext/1597685232/gfxu_image.o
 .bss           0x00000000        0x0 build/pic32mz_ef_sk_meb2/production/_ext/1597685232/gfxu_image.o
 .reginfo       0x00000000       0x18 build/pic32mz_ef_sk_meb2/production/_ext/1597685232/gfxu_image.o
 .text          0x00000000        0x0 build/pic32mz_ef_sk_meb2/production/_ext/1597685232/gfxu_image_png_external.o
 .data          0x00000000        0x0 build/pic32mz_ef_sk_meb2/production/_ext/1597685232/gfxu_image_png_external.o
 .bss           0x00000000        0x0 build/pic32mz_ef_sk_meb2/production/_ext/1597685232/gfxu_image_png_external.o
 .reginfo       0x00000000       0x18 build/pic32mz_ef_sk_meb2/production/_ext/1597685232/gfxu_image_png_external.o
 .text.imageReadRequestCompleted
                0x00000000       0x10 build/pic32mz_ef_sk_meb2/production/_ext/1597685232/gfxu_image_png_external.o
 .text.run      0x00000000      0x240 build/pic32mz_ef_sk_meb2/production/_ext/1597685232/gfxu_image_png_external.o
 .text.GFXU_DrawImagePngExternal
                0x00000000       0xcc build/pic32mz_ef_sk_meb2/production/_ext/1597685232/gfxu_image_png_external.o
 .text          0x00000000        0x0 build/pic32mz_ef_sk_meb2/production/_ext/1597685232/gfxu_image_png_internal.o
 .data          0x00000000        0x0 build/pic32mz_ef_sk_meb2/production/_ext/1597685232/gfxu_image_png_internal.o
 .bss           0x00000000        0x0 build/pic32mz_ef_sk_meb2/production/_ext/1597685232/gfxu_image_png_internal.o
 .reginfo       0x00000000       0x18 build/pic32mz_ef_sk_meb2/production/_ext/1597685232/gfxu_image_png_internal.o
 .text          0x00000000        0x0 build/pic32mz_ef_sk_meb2/production/_ext/1597685232/gfxu_image_jpg_internal.o
 .data          0x00000000        0x0 build/pic32mz_ef_sk_meb2/production/_ext/1597685232/gfxu_image_jpg_internal.o
 .reginfo       0x00000000       0x18 build/pic32mz_ef_sk_meb2/production/_ext/1597685232/gfxu_image_jpg_internal.o
 .text.JPEG_bInterpretResourceHeader
                0x00000000       0x50 build/pic32mz_ef_sk_meb2/production/_ext/1597685232/gfxu_image_jpg_internal.o
 .text          0x00000000        0x0 build/pic32mz_ef_sk_meb2/production/_ext/493934858/lodepng.o
 .data          0x00000000        0x0 build/pic32mz_ef_sk_meb2/production/_ext/493934858/lodepng.o
 .bss           0x00000000        0x0 build/pic32mz_ef_sk_meb2/production/_ext/493934858/lodepng.o
 .reginfo       0x00000000       0x18 build/pic32mz_ef_sk_meb2/production/_ext/493934858/lodepng.o
 .text.bpmnode_create
                0x00000000      0x124 build/pic32mz_ef_sk_meb2/production/_ext/493934858/lodepng.o
 .text.boundaryPM
                0x00000000      0x184 build/pic32mz_ef_sk_meb2/production/_ext/493934858/lodepng.o
 .text.searchCodeIndex
                0x00000000       0x68 build/pic32mz_ef_sk_meb2/production/_ext/493934858/lodepng.o
 .text.getHash  0x00000000       0x78 build/pic32mz_ef_sk_meb2/production/_ext/493934858/lodepng.o
 .text.updateHashChain
                0x00000000       0x84 build/pic32mz_ef_sk_meb2/production/_ext/493934858/lodepng.o
 .text.filterScanline
                0x00000000      0x318 build/pic32mz_ef_sk_meb2/production/_ext/493934858/lodepng.o
 .text.addPaddingBits
                0x00000000       0xe0 build/pic32mz_ef_sk_meb2/production/_ext/493934858/lodepng.o
 .text.addBitsToStream
                0x00000000       0xb4 build/pic32mz_ef_sk_meb2/production/_ext/493934858/lodepng.o
 .text.addBitsToStreamReversed
                0x00000000       0xbc build/pic32mz_ef_sk_meb2/production/_ext/493934858/lodepng.o
 .text.lodepng_add32bitInt
                0x00000000       0x64 build/pic32mz_ef_sk_meb2/production/_ext/493934858/lodepng.o
 .text.writeLZ77data
                0x00000000      0x150 build/pic32mz_ef_sk_meb2/production/_ext/493934858/lodepng.o
 .text.uivector_push_back
                0x00000000       0x64 build/pic32mz_ef_sk_meb2/production/_ext/493934858/lodepng.o
 .text.encodeLZ77
                0x00000000      0x6bc build/pic32mz_ef_sk_meb2/production/_ext/493934858/lodepng.o
 .text.lodepng_load_file
                0x00000000      0x144 build/pic32mz_ef_sk_meb2/production/_ext/493934858/lodepng.o
 .text.lodepng_save_file
                0x00000000       0x70 build/pic32mz_ef_sk_meb2/production/_ext/493934858/lodepng.o
 .text.lodepng_huffman_code_lengths
                0x00000000      0x498 build/pic32mz_ef_sk_meb2/production/_ext/493934858/lodepng.o
 .text.HuffmanTree_makeFromFrequencies
                0x00000000       0xec build/pic32mz_ef_sk_meb2/production/_ext/493934858/lodepng.o
 .text.lodepng_deflate
                0x00000000      0xf50 build/pic32mz_ef_sk_meb2/production/_ext/493934858/lodepng.o
 .text.lodepng_zlib_compress
                0x00000000      0x1c8 build/pic32mz_ef_sk_meb2/production/_ext/493934858/lodepng.o
 .text.zlib_compress
                0x00000000       0x3c build/pic32mz_ef_sk_meb2/production/_ext/493934858/lodepng.o
 .text.lodepng_decompress_settings_init
                0x00000000       0x14 build/pic32mz_ef_sk_meb2/production/_ext/493934858/lodepng.o
 .text.lodepng_chunk_length
                0x00000000       0x1c build/pic32mz_ef_sk_meb2/production/_ext/493934858/lodepng.o
 .text.lodepng_chunk_type
                0x00000000       0x28 build/pic32mz_ef_sk_meb2/production/_ext/493934858/lodepng.o
 .text.lodepng_chunk_ancillary
                0x00000000        0xc build/pic32mz_ef_sk_meb2/production/_ext/493934858/lodepng.o
 .text.lodepng_chunk_private
                0x00000000        0xc build/pic32mz_ef_sk_meb2/production/_ext/493934858/lodepng.o
 .text.lodepng_chunk_safetocopy
                0x00000000        0xc build/pic32mz_ef_sk_meb2/production/_ext/493934858/lodepng.o
 .text.lodepng_chunk_data
                0x00000000        0x8 build/pic32mz_ef_sk_meb2/production/_ext/493934858/lodepng.o
 .text.lodepng_chunk_data_const
                0x00000000        0x8 build/pic32mz_ef_sk_meb2/production/_ext/493934858/lodepng.o
 .text.lodepng_chunk_generate_crc
                0x00000000       0x64 build/pic32mz_ef_sk_meb2/production/_ext/493934858/lodepng.o
 .text.lodepng_chunk_next
                0x00000000       0x2c build/pic32mz_ef_sk_meb2/production/_ext/493934858/lodepng.o
 .text.addUnknownChunks
                0x00000000       0x9c build/pic32mz_ef_sk_meb2/production/_ext/493934858/lodepng.o
 .text.lodepng_chunk_create
                0x00000000      0x108 build/pic32mz_ef_sk_meb2/production/_ext/493934858/lodepng.o
 .text.addChunk
                0x00000000       0x48 build/pic32mz_ef_sk_meb2/production/_ext/493934858/lodepng.o
 .text.addChunk_PLTE
                0x00000000       0xa4 build/pic32mz_ef_sk_meb2/production/_ext/493934858/lodepng.o
 .text.addChunk_tRNS
                0x00000000      0x170 build/pic32mz_ef_sk_meb2/production/_ext/493934858/lodepng.o
 .text.addChunk_tEXt
                0x00000000       0xec build/pic32mz_ef_sk_meb2/production/_ext/493934858/lodepng.o
 .text.lodepng_color_mode_cleanup
                0x00000000       0x1c build/pic32mz_ef_sk_meb2/production/_ext/493934858/lodepng.o
 .text.lodepng_palette_add
                0x00000000       0xd0 build/pic32mz_ef_sk_meb2/production/_ext/493934858/lodepng.o
 .text.filter   0x00000000      0xa18 build/pic32mz_ef_sk_meb2/production/_ext/493934858/lodepng.o
 .text.preProcessScanlines
                0x00000000      0x640 build/pic32mz_ef_sk_meb2/production/_ext/493934858/lodepng.o
 .text.lodepng_get_channels
                0x00000000       0x1c build/pic32mz_ef_sk_meb2/production/_ext/493934858/lodepng.o
 .text.lodepng_is_greyscale_type
                0x00000000       0x14 build/pic32mz_ef_sk_meb2/production/_ext/493934858/lodepng.o
 .text.lodepng_is_alpha_type
                0x00000000        0xc build/pic32mz_ef_sk_meb2/production/_ext/493934858/lodepng.o
 .text.lodepng_is_palette_type
                0x00000000       0x10 build/pic32mz_ef_sk_meb2/production/_ext/493934858/lodepng.o
 .text.lodepng_has_palette_alpha
                0x00000000       0x64 build/pic32mz_ef_sk_meb2/production/_ext/493934858/lodepng.o
 .text.lodepng_can_have_alpha
                0x00000000       0x40 build/pic32mz_ef_sk_meb2/production/_ext/493934858/lodepng.o
 .text.lodepng_get_raw_size_lct
                0x00000000       0x64 build/pic32mz_ef_sk_meb2/production/_ext/493934858/lodepng.o
 .text.lodepng_clear_text
                0x00000000       0x1c build/pic32mz_ef_sk_meb2/production/_ext/493934858/lodepng.o
 .text.lodepng_clear_itext
                0x00000000       0x1c build/pic32mz_ef_sk_meb2/production/_ext/493934858/lodepng.o
 .text.lodepng_info_copy
                0x00000000      0x228 build/pic32mz_ef_sk_meb2/production/_ext/493934858/lodepng.o
 .text.lodepng_info_swap
                0x00000000       0xac build/pic32mz_ef_sk_meb2/production/_ext/493934858/lodepng.o
 .text.lodepng_color_profile_init
                0x00000000       0x28 build/pic32mz_ef_sk_meb2/production/_ext/493934858/lodepng.o
 .text.lodepng_get_color_profile
                0x00000000      0x798 build/pic32mz_ef_sk_meb2/production/_ext/493934858/lodepng.o
 .text.lodepng_auto_choose_color
                0x00000000      0x260 build/pic32mz_ef_sk_meb2/production/_ext/493934858/lodepng.o
 .text.lodepng_state_copy
                0x00000000       0xbc build/pic32mz_ef_sk_meb2/production/_ext/493934858/lodepng.o
 .text.lodepng_encode
                0x00000000      0xb68 build/pic32mz_ef_sk_meb2/production/_ext/493934858/lodepng.o
 .text.lodepng_decode32
                0x00000000       0x30 build/pic32mz_ef_sk_meb2/production/_ext/493934858/lodepng.o
 .text.lodepng_decode24
                0x00000000       0x30 build/pic32mz_ef_sk_meb2/production/_ext/493934858/lodepng.o
 .text.lodepng_decode_file
                0x00000000       0x98 build/pic32mz_ef_sk_meb2/production/_ext/493934858/lodepng.o
 .text.lodepng_decode32_file
                0x00000000       0x28 build/pic32mz_ef_sk_meb2/production/_ext/493934858/lodepng.o
 .text.lodepng_decode24_file
                0x00000000       0x28 build/pic32mz_ef_sk_meb2/production/_ext/493934858/lodepng.o
 .text.lodepng_encode_memory
                0x00000000       0xb0 build/pic32mz_ef_sk_meb2/production/_ext/493934858/lodepng.o
 .text.lodepng_encode32
                0x00000000       0x30 build/pic32mz_ef_sk_meb2/production/_ext/493934858/lodepng.o
 .text.lodepng_encode24
                0x00000000       0x30 build/pic32mz_ef_sk_meb2/production/_ext/493934858/lodepng.o
 .text.lodepng_encode_file
                0x00000000       0x80 build/pic32mz_ef_sk_meb2/production/_ext/493934858/lodepng.o
 .text.lodepng_encode32_file
                0x00000000       0x28 build/pic32mz_ef_sk_meb2/production/_ext/493934858/lodepng.o
 .text.lodepng_encode24_file
                0x00000000       0x28 build/pic32mz_ef_sk_meb2/production/_ext/493934858/lodepng.o
 .text.lodepng_error_text
                0x00000000      0x574 build/pic32mz_ef_sk_meb2/production/_ext/493934858/lodepng.o
 .text          0x00000000        0x0 build/pic32mz_ef_sk_meb2/production/_ext/1597685232/gfxu_image_raw_external.o
 .data          0x00000000        0x0 build/pic32mz_ef_sk_meb2/production/_ext/1597685232/gfxu_image_raw_external.o
 .bss           0x00000000        0x0 build/pic32mz_ef_sk_meb2/production/_ext/1597685232/gfxu_image_raw_external.o
 .reginfo       0x00000000       0x18 build/pic32mz_ef_sk_meb2/production/_ext/1597685232/gfxu_image_raw_external.o
 .text          0x00000000        0x0 build/pic32mz_ef_sk_meb2/production/_ext/1597685232/gfxu_image_raw_internal.o
 .data          0x00000000        0x0 build/pic32mz_ef_sk_meb2/production/_ext/1597685232/gfxu_image_raw_internal.o
 .bss           0x00000000        0x0 build/pic32mz_ef_sk_meb2/production/_ext/1597685232/gfxu_image_raw_internal.o
 .reginfo       0x00000000       0x18 build/pic32mz_ef_sk_meb2/production/_ext/1597685232/gfxu_image_raw_internal.o
 .text          0x00000000        0x0 build/pic32mz_ef_sk_meb2/production/_ext/1597685232/gfxu_image_rle_external.o
 .data          0x00000000        0x0 build/pic32mz_ef_sk_meb2/production/_ext/1597685232/gfxu_image_rle_external.o
 .bss           0x00000000        0x0 build/pic32mz_ef_sk_meb2/production/_ext/1597685232/gfxu_image_rle_external.o
 .reginfo       0x00000000       0x18 build/pic32mz_ef_sk_meb2/production/_ext/1597685232/gfxu_image_rle_external.o
 .text          0x00000000        0x0 build/pic32mz_ef_sk_meb2/production/_ext/1597685232/gfxu_image_rle_internal.o
 .data          0x00000000        0x0 build/pic32mz_ef_sk_meb2/production/_ext/1597685232/gfxu_image_rle_internal.o
 .bss           0x00000000        0x0 build/pic32mz_ef_sk_meb2/production/_ext/1597685232/gfxu_image_rle_internal.o
 .reginfo       0x00000000       0x18 build/pic32mz_ef_sk_meb2/production/_ext/1597685232/gfxu_image_rle_internal.o
 .text          0x00000000        0x0 build/pic32mz_ef_sk_meb2/production/_ext/1597685232/gfxu_image_utils.o
 .bss           0x00000000        0x0 build/pic32mz_ef_sk_meb2/production/_ext/1597685232/gfxu_image_utils.o
 .reginfo       0x00000000       0x18 build/pic32mz_ef_sk_meb2/production/_ext/1597685232/gfxu_image_utils.o
 .text.convertColorAndSetDraw
                0x00000000       0x68 build/pic32mz_ef_sk_meb2/production/_ext/1597685232/gfxu_image_utils.o
 .text          0x00000000        0x0 build/pic32mz_ef_sk_meb2/production/_ext/1597685232/gfxu_palette.o
 .data          0x00000000        0x0 build/pic32mz_ef_sk_meb2/production/_ext/1597685232/gfxu_palette.o
 .bss           0x00000000        0x0 build/pic32mz_ef_sk_meb2/production/_ext/1597685232/gfxu_palette.o
 .reginfo       0x00000000       0x18 build/pic32mz_ef_sk_meb2/production/_ext/1597685232/gfxu_palette.o
 .text.GFXU_PaletteGetColor
                0x00000000        0x8 build/pic32mz_ef_sk_meb2/production/_ext/1597685232/gfxu_palette.o
 .text          0x00000000        0x0 build/pic32mz_ef_sk_meb2/production/_ext/1597685232/gfxu_string.o
 .data          0x00000000        0x0 build/pic32mz_ef_sk_meb2/production/_ext/1597685232/gfxu_string.o
 .bss           0x00000000        0x0 build/pic32mz_ef_sk_meb2/production/_ext/1597685232/gfxu_string.o
 .reginfo       0x00000000       0x18 build/pic32mz_ef_sk_meb2/production/_ext/1597685232/gfxu_string.o
 .text          0x00000000        0x0 build/pic32mz_ef_sk_meb2/production/_ext/1597685232/gfxu_string_external.o
 .data          0x00000000        0x0 build/pic32mz_ef_sk_meb2/production/_ext/1597685232/gfxu_string_external.o
 .bss           0x00000000        0x0 build/pic32mz_ef_sk_meb2/production/_ext/1597685232/gfxu_string_external.o
 .reginfo       0x00000000       0x18 build/pic32mz_ef_sk_meb2/production/_ext/1597685232/gfxu_string_external.o
 .text          0x00000000        0x0 build/pic32mz_ef_sk_meb2/production/_ext/1597685232/gfxu_string_internal.o
 .data          0x00000000        0x0 build/pic32mz_ef_sk_meb2/production/_ext/1597685232/gfxu_string_internal.o
 .bss           0x00000000        0x0 build/pic32mz_ef_sk_meb2/production/_ext/1597685232/gfxu_string_internal.o
 .reginfo       0x00000000       0x18 build/pic32mz_ef_sk_meb2/production/_ext/1597685232/gfxu_string_internal.o
 .text          0x00000000        0x0 build/pic32mz_ef_sk_meb2/production/_ext/1597685232/gfxu_string_query.o
 .data          0x00000000        0x0 build/pic32mz_ef_sk_meb2/production/_ext/1597685232/gfxu_string_query.o
 .bss           0x00000000        0x0 build/pic32mz_ef_sk_meb2/production/_ext/1597685232/gfxu_string_query.o
 .reginfo       0x00000000       0x18 build/pic32mz_ef_sk_meb2/production/_ext/1597685232/gfxu_string_query.o
 .text.GFXU_GetCharAt
                0x00000000      0x108 build/pic32mz_ef_sk_meb2/production/_ext/1597685232/gfxu_string_query.o
 .text.GFXU_GetStringLength
                0x00000000       0xc0 build/pic32mz_ef_sk_meb2/production/_ext/1597685232/gfxu_string_query.o
 .text.GFXU_GetCharWidth
                0x00000000       0x44 build/pic32mz_ef_sk_meb2/production/_ext/1597685232/gfxu_string_query.o
 .text.GFXU_CalculatePartialStringWidth
                0x00000000      0x150 build/pic32mz_ef_sk_meb2/production/_ext/1597685232/gfxu_string_query.o
 .text.GFXU_CalculatePartialCharStringWidth
                0x00000000       0xe0 build/pic32mz_ef_sk_meb2/production/_ext/1597685232/gfxu_string_query.o
 .text          0x00000000        0x0 build/pic32mz_ef_sk_meb2/production/_ext/1597685232/gfxu_string_utils.o
 .bss           0x00000000        0x0 build/pic32mz_ef_sk_meb2/production/_ext/1597685232/gfxu_string_utils.o
 .reginfo       0x00000000       0x18 build/pic32mz_ef_sk_meb2/production/_ext/1597685232/gfxu_string_utils.o
 .text.GFXU_ExtractString
                0x00000000      0x138 build/pic32mz_ef_sk_meb2/production/_ext/1597685232/gfxu_string_utils.o
 .text          0x00000000        0x0 build/pic32mz_ef_sk_meb2/production/_ext/1907747181/libaria.o
 .data          0x00000000        0x0 build/pic32mz_ef_sk_meb2/production/_ext/1907747181/libaria.o
 .bss           0x00000000        0x0 build/pic32mz_ef_sk_meb2/production/_ext/1907747181/libaria.o
 .reginfo       0x00000000       0x18 build/pic32mz_ef_sk_meb2/production/_ext/1907747181/libaria.o
 .text.laShutdown
                0x00000000       0x44 build/pic32mz_ef_sk_meb2/production/_ext/1907747181/libaria.o
 .text          0x00000000        0x0 build/pic32mz_ef_sk_meb2/production/_ext/1907747181/libaria_context.o
 .data          0x00000000        0x0 build/pic32mz_ef_sk_meb2/production/_ext/1907747181/libaria_context.o
 .bss           0x00000000        0x0 build/pic32mz_ef_sk_meb2/production/_ext/1907747181/libaria_context.o
 .reginfo       0x00000000       0x18 build/pic32mz_ef_sk_meb2/production/_ext/1907747181/libaria_context.o
 .text.laContext_Destroy
                0x00000000        0xc build/pic32mz_ef_sk_meb2/production/_ext/1907747181/libaria_context.o
 .text.laContext_GetColorMode
                0x00000000       0x1c build/pic32mz_ef_sk_meb2/production/_ext/1907747181/libaria_context.o
 .text.laContext_RemoveScreen
                0x00000000       0x44 build/pic32mz_ef_sk_meb2/production/_ext/1907747181/libaria_context.o
 .text.laContext_GetActiveScreen
                0x00000000       0x1c build/pic32mz_ef_sk_meb2/production/_ext/1907747181/libaria_context.o
 .text.laContext_HideActiveScreen
                0x00000000       0x3c build/pic32mz_ef_sk_meb2/production/_ext/1907747181/libaria_context.o
 .text.laContext_GetPremptionLevel
                0x00000000       0x1c build/pic32mz_ef_sk_meb2/production/_ext/1907747181/libaria_context.o
 .text.laContext_SetPremptionLevel
                0x00000000       0x20 build/pic32mz_ef_sk_meb2/production/_ext/1907747181/libaria_context.o
 .text.laContext_SetStringLanguage
                0x00000000       0x28 build/pic32mz_ef_sk_meb2/production/_ext/1907747181/libaria_context.o
 .text.laContext_GetFocusWidget
                0x00000000       0x1c build/pic32mz_ef_sk_meb2/production/_ext/1907747181/libaria_context.o
 .text          0x00000000        0x0 build/pic32mz_ef_sk_meb2/production/_ext/1907747181/libaria_context_paint.o
 .data          0x00000000        0x0 build/pic32mz_ef_sk_meb2/production/_ext/1907747181/libaria_context_paint.o
 .bss           0x00000000        0x0 build/pic32mz_ef_sk_meb2/production/_ext/1907747181/libaria_context_paint.o
 .reginfo       0x00000000       0x18 build/pic32mz_ef_sk_meb2/production/_ext/1907747181/libaria_context_paint.o
 .text          0x00000000        0x0 build/pic32mz_ef_sk_meb2/production/_ext/1907747181/libaria_draw.o
 .data          0x00000000        0x0 build/pic32mz_ef_sk_meb2/production/_ext/1907747181/libaria_draw.o
 .bss           0x00000000        0x0 build/pic32mz_ef_sk_meb2/production/_ext/1907747181/libaria_draw.o
 .reginfo       0x00000000       0x18 build/pic32mz_ef_sk_meb2/production/_ext/1907747181/libaria_draw.o
 .text.laDraw_2x1BevelBorder
                0x00000000      0x14c build/pic32mz_ef_sk_meb2/production/_ext/1907747181/libaria_draw.o
 .text          0x00000000        0x0 build/pic32mz_ef_sk_meb2/production/_ext/1907747181/libaria_editwidget.o
 .data          0x00000000        0x0 build/pic32mz_ef_sk_meb2/production/_ext/1907747181/libaria_editwidget.o
 .bss           0x00000000        0x0 build/pic32mz_ef_sk_meb2/production/_ext/1907747181/libaria_editwidget.o
 .reginfo       0x00000000       0x18 build/pic32mz_ef_sk_meb2/production/_ext/1907747181/libaria_editwidget.o
 .text.startEdit
                0x00000000        0x8 build/pic32mz_ef_sk_meb2/production/_ext/1907747181/libaria_editwidget.o
 .text.endEdit  0x00000000        0x8 build/pic32mz_ef_sk_meb2/production/_ext/1907747181/libaria_editwidget.o
 .text.clear    0x00000000        0x8 build/pic32mz_ef_sk_meb2/production/_ext/1907747181/libaria_editwidget.o
 .text.accept   0x00000000        0x8 build/pic32mz_ef_sk_meb2/production/_ext/1907747181/libaria_editwidget.o
 .text.set      0x00000000       0x10 build/pic32mz_ef_sk_meb2/production/_ext/1907747181/libaria_editwidget.o
 .text.append   0x00000000       0x10 build/pic32mz_ef_sk_meb2/production/_ext/1907747181/libaria_editwidget.o
 .text.backspace
                0x00000000        0x8 build/pic32mz_ef_sk_meb2/production/_ext/1907747181/libaria_editwidget.o
 .text._laEditWidget_Constructor
                0x00000000       0x80 build/pic32mz_ef_sk_meb2/production/_ext/1907747181/libaria_editwidget.o
 .text._laEditWidget_Destructor
                0x00000000       0x28 build/pic32mz_ef_sk_meb2/production/_ext/1907747181/libaria_editwidget.o
 .text.laEditWidget_Clear
                0x00000000       0x30 build/pic32mz_ef_sk_meb2/production/_ext/1907747181/libaria_editwidget.o
 .text.laEditWidget_Accept
                0x00000000       0x30 build/pic32mz_ef_sk_meb2/production/_ext/1907747181/libaria_editwidget.o
 .text.laEditWidget_Set
                0x00000000       0x54 build/pic32mz_ef_sk_meb2/production/_ext/1907747181/libaria_editwidget.o
 .text.laEditWidget_Append
                0x00000000       0x54 build/pic32mz_ef_sk_meb2/production/_ext/1907747181/libaria_editwidget.o
 .text.laEditWidget_Backspace
                0x00000000       0x30 build/pic32mz_ef_sk_meb2/production/_ext/1907747181/libaria_editwidget.o
 .text          0x00000000        0x0 build/pic32mz_ef_sk_meb2/production/_ext/1907747181/libaria_event.o
 .data          0x00000000        0x0 build/pic32mz_ef_sk_meb2/production/_ext/1907747181/libaria_event.o
 .bss           0x00000000        0x0 build/pic32mz_ef_sk_meb2/production/_ext/1907747181/libaria_event.o
 .reginfo       0x00000000       0x18 build/pic32mz_ef_sk_meb2/production/_ext/1907747181/libaria_event.o
 .text.laEvent_GetCount
                0x00000000       0x28 build/pic32mz_ef_sk_meb2/production/_ext/1907747181/libaria_event.o
 .text.laEvent_SetFilter
                0x00000000       0x34 build/pic32mz_ef_sk_meb2/production/_ext/1907747181/libaria_event.o
 .text.laEvent_ClearList
                0x00000000       0x30 build/pic32mz_ef_sk_meb2/production/_ext/1907747181/libaria_event.o
 .text          0x00000000        0x0 build/pic32mz_ef_sk_meb2/production/_ext/1907747181/libaria_input.o
 .data          0x00000000        0x0 build/pic32mz_ef_sk_meb2/production/_ext/1907747181/libaria_input.o
 .bss           0x00000000        0x0 build/pic32mz_ef_sk_meb2/production/_ext/1907747181/libaria_input.o
 .reginfo       0x00000000       0x18 build/pic32mz_ef_sk_meb2/production/_ext/1907747181/libaria_input.o
 .text.laInput_GetEnabled
                0x00000000       0x28 build/pic32mz_ef_sk_meb2/production/_ext/1907747181/libaria_input.o
 .text.laInput_InjectTouchDown
                0x00000000       0xe8 build/pic32mz_ef_sk_meb2/production/_ext/1907747181/libaria_input.o
 .text.laInput_InjectTouchUp
                0x00000000       0xcc build/pic32mz_ef_sk_meb2/production/_ext/1907747181/libaria_input.o
 .text.laInput_InjectTouchMoved
                0x00000000       0xe0 build/pic32mz_ef_sk_meb2/production/_ext/1907747181/libaria_input.o
 .text          0x00000000        0x0 build/pic32mz_ef_sk_meb2/production/_ext/1907747181/libaria_layer.o
 .data          0x00000000        0x0 build/pic32mz_ef_sk_meb2/production/_ext/1907747181/libaria_layer.o
 .bss           0x00000000        0x0 build/pic32mz_ef_sk_meb2/production/_ext/1907747181/libaria_layer.o
 .reginfo       0x00000000       0x18 build/pic32mz_ef_sk_meb2/production/_ext/1907747181/libaria_layer.o
 .text.laLayer_SetAlphaEnable
                0x00000000       0x78 build/pic32mz_ef_sk_meb2/production/_ext/1907747181/libaria_layer.o
 .text.laLayer_SetAlphaAmount
                0x00000000       0x78 build/pic32mz_ef_sk_meb2/production/_ext/1907747181/libaria_layer.o
 .text.laLayer_GetMaskEnable
                0x00000000       0x18 build/pic32mz_ef_sk_meb2/production/_ext/1907747181/libaria_layer.o
 .text.laLayer_SetMaskEnable
                0x00000000       0x84 build/pic32mz_ef_sk_meb2/production/_ext/1907747181/libaria_layer.o
 .text.laLayer_GetMaskColor
                0x00000000       0x18 build/pic32mz_ef_sk_meb2/production/_ext/1907747181/libaria_layer.o
 .text.laLayer_SetMaskColor
                0x00000000       0x84 build/pic32mz_ef_sk_meb2/production/_ext/1907747181/libaria_layer.o
 .text.laLayer_GetBufferCount
                0x00000000       0x18 build/pic32mz_ef_sk_meb2/production/_ext/1907747181/libaria_layer.o
 .text.laLayer_GetVSync
                0x00000000       0x18 build/pic32mz_ef_sk_meb2/production/_ext/1907747181/libaria_layer.o
 .text.laLayer_SetVSync
                0x00000000       0x1c build/pic32mz_ef_sk_meb2/production/_ext/1907747181/libaria_layer.o
 .text._laLayer_InvalidateArea
                0x00000000       0xcc build/pic32mz_ef_sk_meb2/production/_ext/1907747181/libaria_layer.o
 .text          0x00000000        0x0 build/pic32mz_ef_sk_meb2/production/_ext/1907747181/libaria_list.o
 .data          0x00000000        0x0 build/pic32mz_ef_sk_meb2/production/_ext/1907747181/libaria_list.o
 .bss           0x00000000        0x0 build/pic32mz_ef_sk_meb2/production/_ext/1907747181/libaria_list.o
 .reginfo       0x00000000       0x18 build/pic32mz_ef_sk_meb2/production/_ext/1907747181/libaria_list.o
 .text.laList_Assign
                0x00000000       0x5c build/pic32mz_ef_sk_meb2/production/_ext/1907747181/libaria_list.o
 .text.laList_PushFront
                0x00000000       0x9c build/pic32mz_ef_sk_meb2/production/_ext/1907747181/libaria_list.o
 .text.laList_PopFront
                0x00000000       0x98 build/pic32mz_ef_sk_meb2/production/_ext/1907747181/libaria_list.o
 .text.laList_InsertAt
                0x00000000       0xdc build/pic32mz_ef_sk_meb2/production/_ext/1907747181/libaria_list.o
 .text.laList_RemoveAt
                0x00000000       0xdc build/pic32mz_ef_sk_meb2/production/_ext/1907747181/libaria_list.o
 .text.laList_Copy
                0x00000000       0xc4 build/pic32mz_ef_sk_meb2/production/_ext/1907747181/libaria_list.o
 .text          0x00000000        0x0 build/pic32mz_ef_sk_meb2/production/_ext/1907747181/libaria_scheme.o
 .data          0x00000000        0x0 build/pic32mz_ef_sk_meb2/production/_ext/1907747181/libaria_scheme.o
 .bss           0x00000000        0x0 build/pic32mz_ef_sk_meb2/production/_ext/1907747181/libaria_scheme.o
 .reginfo       0x00000000       0x18 build/pic32mz_ef_sk_meb2/production/_ext/1907747181/libaria_scheme.o
 .text          0x00000000        0x0 build/pic32mz_ef_sk_meb2/production/_ext/1907747181/libaria_screen.o
 .data          0x00000000        0x0 build/pic32mz_ef_sk_meb2/production/_ext/1907747181/libaria_screen.o
 .bss           0x00000000        0x0 build/pic32mz_ef_sk_meb2/production/_ext/1907747181/libaria_screen.o
 .reginfo       0x00000000       0x18 build/pic32mz_ef_sk_meb2/production/_ext/1907747181/libaria_screen.o
 .text.laScreen_Delete
                0x00000000       0x98 build/pic32mz_ef_sk_meb2/production/_ext/1907747181/libaria_screen.o
 .text.laScreen_GetOrientation
                0x00000000       0x18 build/pic32mz_ef_sk_meb2/production/_ext/1907747181/libaria_screen.o
 .text.laScreen_SetOrientation
                0x00000000       0x1c build/pic32mz_ef_sk_meb2/production/_ext/1907747181/libaria_screen.o
 .text.laScreen_GetShowEventCallback
                0x00000000       0x18 build/pic32mz_ef_sk_meb2/production/_ext/1907747181/libaria_screen.o
 .text.laScreen_SetShowEventCallback
                0x00000000       0x1c build/pic32mz_ef_sk_meb2/production/_ext/1907747181/libaria_screen.o
 .text.laScreen_GetHideEventCallback
                0x00000000       0x18 build/pic32mz_ef_sk_meb2/production/_ext/1907747181/libaria_screen.o
 .text.laScreen_SetHideEventCallback
                0x00000000       0x1c build/pic32mz_ef_sk_meb2/production/_ext/1907747181/libaria_screen.o
 .text          0x00000000        0x0 build/pic32mz_ef_sk_meb2/production/_ext/1907747181/libaria_string.o
 .data          0x00000000        0x0 build/pic32mz_ef_sk_meb2/production/_ext/1907747181/libaria_string.o
 .bss           0x00000000        0x0 build/pic32mz_ef_sk_meb2/production/_ext/1907747181/libaria_string.o
 .reginfo       0x00000000       0x18 build/pic32mz_ef_sk_meb2/production/_ext/1907747181/libaria_string.o
 .text.laString_Delete
                0x00000000       0x7c build/pic32mz_ef_sk_meb2/production/_ext/1907747181/libaria_string.o
 .text.laString_Allocate
                0x00000000       0xb4 build/pic32mz_ef_sk_meb2/production/_ext/1907747181/libaria_string.o
 .text.laString_CreateFromCharBuffer
                0x00000000      0x174 build/pic32mz_ef_sk_meb2/production/_ext/1907747181/libaria_string.o
 .text.laString_Set
                0x00000000       0xec build/pic32mz_ef_sk_meb2/production/_ext/1907747181/libaria_string.o
 .text.laString_CreateFromBuffer
                0x00000000       0xc4 build/pic32mz_ef_sk_meb2/production/_ext/1907747181/libaria_string.o
 .text.laString_New
                0x00000000       0x6c build/pic32mz_ef_sk_meb2/production/_ext/1907747181/libaria_string.o
 .text.laString_ExtractFromTable
                0x00000000       0xe0 build/pic32mz_ef_sk_meb2/production/_ext/1907747181/libaria_string.o
 .text.laString_CharAt
                0x00000000       0x88 build/pic32mz_ef_sk_meb2/production/_ext/1907747181/libaria_string.o
 .text.laString_Length
                0x00000000       0x6c build/pic32mz_ef_sk_meb2/production/_ext/1907747181/libaria_string.o
 .text.laString_ReduceLength
                0x00000000       0x3c build/pic32mz_ef_sk_meb2/production/_ext/1907747181/libaria_string.o
 .text.laString_Capacity
                0x00000000       0x18 build/pic32mz_ef_sk_meb2/production/_ext/1907747181/libaria_string.o
 .text.laString_SetCapacity
                0x00000000      0x124 build/pic32mz_ef_sk_meb2/production/_ext/1907747181/libaria_string.o
 .text.laString_CompareBuffer
                0x00000000       0x40 build/pic32mz_ef_sk_meb2/production/_ext/1907747181/libaria_string.o
 .text.laString_Append
                0x00000000      0x21c build/pic32mz_ef_sk_meb2/production/_ext/1907747181/libaria_string.o
 .text.laString_Insert
                0x00000000      0x198 build/pic32mz_ef_sk_meb2/production/_ext/1907747181/libaria_string.o
 .text.laString_Clear
                0x00000000       0x28 build/pic32mz_ef_sk_meb2/production/_ext/1907747181/libaria_string.o
 .text.laString_ToCharBuffer
                0x00000000       0x70 build/pic32mz_ef_sk_meb2/production/_ext/1907747181/libaria_string.o
 .text.laString_GetHeight
                0x00000000       0x7c build/pic32mz_ef_sk_meb2/production/_ext/1907747181/libaria_string.o
 .text.laString_GetCharOffset
                0x00000000       0x90 build/pic32mz_ef_sk_meb2/production/_ext/1907747181/libaria_string.o
 .text.laString_GetCharWidth
                0x00000000       0xbc build/pic32mz_ef_sk_meb2/production/_ext/1907747181/libaria_string.o
 .text.laString_GetCharIndexAtPoint
                0x00000000       0xcc build/pic32mz_ef_sk_meb2/production/_ext/1907747181/libaria_string.o
 .text          0x00000000        0x0 build/pic32mz_ef_sk_meb2/production/_ext/1907747181/libaria_utils.o
 .data          0x00000000        0x0 build/pic32mz_ef_sk_meb2/production/_ext/1907747181/libaria_utils.o
 .bss           0x00000000        0x0 build/pic32mz_ef_sk_meb2/production/_ext/1907747181/libaria_utils.o
 .reginfo       0x00000000       0x18 build/pic32mz_ef_sk_meb2/production/_ext/1907747181/libaria_utils.o
 .text.pickChildRect
                0x00000000       0xfc build/pic32mz_ef_sk_meb2/production/_ext/1907747181/libaria_utils.o
 .text.laUtils_PickRect
                0x00000000      0x13c build/pic32mz_ef_sk_meb2/production/_ext/1907747181/libaria_utils.o
 .text.laUtils_PointToScreenSpace
                0x00000000       0x70 build/pic32mz_ef_sk_meb2/production/_ext/1907747181/libaria_utils.o
 .text.laUtils_PointScreenToLocalSpace
                0x00000000       0x70 build/pic32mz_ef_sk_meb2/production/_ext/1907747181/libaria_utils.o
 .text.laUtils_RectToParentSpace
                0x00000000       0x48 build/pic32mz_ef_sk_meb2/production/_ext/1907747181/libaria_utils.o
 .text.laUtils_RectFromParentSpace
                0x00000000       0x48 build/pic32mz_ef_sk_meb2/production/_ext/1907747181/libaria_utils.o
 .text.laUtils_ListOcclusionCullTest
                0x00000000      0x174 build/pic32mz_ef_sk_meb2/production/_ext/1907747181/libaria_utils.o
 .text          0x00000000        0x0 build/pic32mz_ef_sk_meb2/production/_ext/1907747181/libaria_widget.o
 .data          0x00000000        0x0 build/pic32mz_ef_sk_meb2/production/_ext/1907747181/libaria_widget.o
 .bss           0x00000000        0x0 build/pic32mz_ef_sk_meb2/production/_ext/1907747181/libaria_widget.o
 .reginfo       0x00000000       0x18 build/pic32mz_ef_sk_meb2/production/_ext/1907747181/libaria_widget.o
 .text.laWidget_New
                0x00000000       0x58 build/pic32mz_ef_sk_meb2/production/_ext/1907747181/libaria_widget.o
 .text.laWidget_Delete
                0x00000000       0x54 build/pic32mz_ef_sk_meb2/production/_ext/1907747181/libaria_widget.o
 .text._laWidget_Update
                0x00000000        0x8 build/pic32mz_ef_sk_meb2/production/_ext/1907747181/libaria_widget.o
 .text.laWidget_GetEnabled
                0x00000000       0x18 build/pic32mz_ef_sk_meb2/production/_ext/1907747181/libaria_widget.o
 .text.laWidget_GetVisible
                0x00000000       0x18 build/pic32mz_ef_sk_meb2/production/_ext/1907747181/libaria_widget.o
 .text.laWidget_GetX
                0x00000000       0x18 build/pic32mz_ef_sk_meb2/production/_ext/1907747181/libaria_widget.o
 .text.laWidget_GetY
                0x00000000       0x18 build/pic32mz_ef_sk_meb2/production/_ext/1907747181/libaria_widget.o
 .text.laWidget_GetWidth
                0x00000000       0x18 build/pic32mz_ef_sk_meb2/production/_ext/1907747181/libaria_widget.o
 .text.laWidget_GetHeight
                0x00000000       0x18 build/pic32mz_ef_sk_meb2/production/_ext/1907747181/libaria_widget.o
 .text.laWidget_GetAlphaEnable
                0x00000000       0x18 build/pic32mz_ef_sk_meb2/production/_ext/1907747181/libaria_widget.o
 .text.laWidget_GetAlphaAmount
                0x00000000       0x18 build/pic32mz_ef_sk_meb2/production/_ext/1907747181/libaria_widget.o
 .text.laWidget_isOpaque
                0x00000000       0x44 build/pic32mz_ef_sk_meb2/production/_ext/1907747181/libaria_widget.o
 .text.laWidget_RectToParentSpace
                0x00000000       0x6c build/pic32mz_ef_sk_meb2/production/_ext/1907747181/libaria_widget.o
 .text.laWidget_RectToLayerSpace
                0x00000000       0xa4 build/pic32mz_ef_sk_meb2/production/_ext/1907747181/libaria_widget.o
 .text.laWidget_RectToScreenSpace
                0x00000000       0x8c build/pic32mz_ef_sk_meb2/production/_ext/1907747181/libaria_widget.o
 .text.laWidget_GetBorderType
                0x00000000       0x18 build/pic32mz_ef_sk_meb2/production/_ext/1907747181/libaria_widget.o
 .text.laWidget_GetDrawBackground
                0x00000000       0x18 build/pic32mz_ef_sk_meb2/production/_ext/1907747181/libaria_widget.o
 .text.laWidget_GetLocalRedraw
                0x00000000       0x18 build/pic32mz_ef_sk_meb2/production/_ext/1907747181/libaria_widget.o
 .text.laWidget_GetMargins
                0x00000000       0x24 build/pic32mz_ef_sk_meb2/production/_ext/1907747181/libaria_widget.o
 .text.laWidget_HasFocus
                0x00000000       0x40 build/pic32mz_ef_sk_meb2/production/_ext/1907747181/libaria_widget.o
 .text.laWidget_SetFocus
                0x00000000       0x1c build/pic32mz_ef_sk_meb2/production/_ext/1907747181/libaria_widget.o
 .text.laWidget_OverrideTouchDownEvent
                0x00000000       0x2c build/pic32mz_ef_sk_meb2/production/_ext/1907747181/libaria_widget.o
 .text.laWidget_OverrideTouchUpEvent
                0x00000000       0x2c build/pic32mz_ef_sk_meb2/production/_ext/1907747181/libaria_widget.o
 .text.laWidget_OverrideTouchMovedEvent
                0x00000000       0x2c build/pic32mz_ef_sk_meb2/production/_ext/1907747181/libaria_widget.o
 .text.laWidget_GetChildCount
                0x00000000       0x18 build/pic32mz_ef_sk_meb2/production/_ext/1907747181/libaria_widget.o
 .text.laWidget_GetChildAtIndex
                0x00000000       0x48 build/pic32mz_ef_sk_meb2/production/_ext/1907747181/libaria_widget.o
 .text.laWidget_GetIndexOfChild
                0x00000000       0x40 build/pic32mz_ef_sk_meb2/production/_ext/1907747181/libaria_widget.o
 .text.laWidget_GetScheme
                0x00000000       0x18 build/pic32mz_ef_sk_meb2/production/_ext/1907747181/libaria_widget.o
 .text.laWidget_SetEnabled
                0x00000000       0x34 build/pic32mz_ef_sk_meb2/production/_ext/1907747181/libaria_widget.o
 .text.laWidget_SetVisible
                0x00000000       0x34 build/pic32mz_ef_sk_meb2/production/_ext/1907747181/libaria_widget.o
 .text.laWidget_SetX
                0x00000000       0x44 build/pic32mz_ef_sk_meb2/production/_ext/1907747181/libaria_widget.o
 .text.laWidget_SetY
                0x00000000       0x44 build/pic32mz_ef_sk_meb2/production/_ext/1907747181/libaria_widget.o
 .text.laWidget_SetWidth
                0x00000000       0x44 build/pic32mz_ef_sk_meb2/production/_ext/1907747181/libaria_widget.o
 .text.laWidget_SetHeight
                0x00000000       0x44 build/pic32mz_ef_sk_meb2/production/_ext/1907747181/libaria_widget.o
 .text.laWidget_SetAlphaEnable
                0x00000000       0x48 build/pic32mz_ef_sk_meb2/production/_ext/1907747181/libaria_widget.o
 .text.laWidget_SetAlphaAmount
                0x00000000       0x50 build/pic32mz_ef_sk_meb2/production/_ext/1907747181/libaria_widget.o
 .text.laWidget_SetLocalRedraw
                0x00000000       0x28 build/pic32mz_ef_sk_meb2/production/_ext/1907747181/libaria_widget.o
 .text.laWidget_SetMargins
                0x00000000       0x6c build/pic32mz_ef_sk_meb2/production/_ext/1907747181/libaria_widget.o
 .text.laWidget_SetParent
                0x00000000       0x68 build/pic32mz_ef_sk_meb2/production/_ext/1907747181/libaria_widget.o
 .text.laWidget_Translate
                0x00000000       0x8c build/pic32mz_ef_sk_meb2/production/_ext/1907747181/libaria_widget.o
 .text.laWidget_Resize
                0x00000000       0xa8 build/pic32mz_ef_sk_meb2/production/_ext/1907747181/libaria_widget.o
 .text          0x00000000        0x0 build/pic32mz_ef_sk_meb2/production/_ext/1907747181/libaria_widget_skin_classic.o
 .data          0x00000000        0x0 build/pic32mz_ef_sk_meb2/production/_ext/1907747181/libaria_widget_skin_classic.o
 .bss           0x00000000        0x0 build/pic32mz_ef_sk_meb2/production/_ext/1907747181/libaria_widget_skin_classic.o
 .reginfo       0x00000000       0x18 build/pic32mz_ef_sk_meb2/production/_ext/1907747181/libaria_widget_skin_classic.o
 .text          0x00000000        0x0 build/pic32mz_ef_sk_meb2/production/_ext/1907747181/libaria_widget_button.o
 .data          0x00000000        0x0 build/pic32mz_ef_sk_meb2/production/_ext/1907747181/libaria_widget_button.o
 .bss           0x00000000        0x0 build/pic32mz_ef_sk_meb2/production/_ext/1907747181/libaria_widget_button.o
 .reginfo       0x00000000       0x18 build/pic32mz_ef_sk_meb2/production/_ext/1907747181/libaria_widget_button.o
 .text.laButtonWidget_GetToggleable
                0x00000000       0x18 build/pic32mz_ef_sk_meb2/production/_ext/1907747181/libaria_widget_button.o
 .text.laButtonWidget_SetToggleable
                0x00000000       0x14 build/pic32mz_ef_sk_meb2/production/_ext/1907747181/libaria_widget_button.o
 .text.laButtonWidget_GetPressed
                0x00000000       0x20 build/pic32mz_ef_sk_meb2/production/_ext/1907747181/libaria_widget_button.o
 .text.laButtonWidget_SetPressed
                0x00000000      0x100 build/pic32mz_ef_sk_meb2/production/_ext/1907747181/libaria_widget_button.o
 .text.laButtonWidget_GetHAlignment
                0x00000000       0x18 build/pic32mz_ef_sk_meb2/production/_ext/1907747181/libaria_widget_button.o
 .text.laButtonWidget_SetHAlignment
                0x00000000       0x34 build/pic32mz_ef_sk_meb2/production/_ext/1907747181/libaria_widget_button.o
 .text.laButtonWidget_GetVAlignment
                0x00000000       0x18 build/pic32mz_ef_sk_meb2/production/_ext/1907747181/libaria_widget_button.o
 .text.laButtonWidget_SetVAlignment
                0x00000000       0x34 build/pic32mz_ef_sk_meb2/production/_ext/1907747181/libaria_widget_button.o
 .text.laButtonWidget_GetText
                0x00000000       0x2c build/pic32mz_ef_sk_meb2/production/_ext/1907747181/libaria_widget_button.o
 .text.laButtonWidget_GetPressedImage
                0x00000000       0x18 build/pic32mz_ef_sk_meb2/production/_ext/1907747181/libaria_widget_button.o
 .text.laButtonWidget_SetPressedImage
                0x00000000       0x34 build/pic32mz_ef_sk_meb2/production/_ext/1907747181/libaria_widget_button.o
 .text.laButtonWidget_GetReleasedImage
                0x00000000       0x18 build/pic32mz_ef_sk_meb2/production/_ext/1907747181/libaria_widget_button.o
 .text.laButtonWidget_SetReleasedImage
                0x00000000       0x34 build/pic32mz_ef_sk_meb2/production/_ext/1907747181/libaria_widget_button.o
 .text.laButtonWidget_GetImagePosition
                0x00000000       0x18 build/pic32mz_ef_sk_meb2/production/_ext/1907747181/libaria_widget_button.o
 .text.laButtonWidget_SetImagePosition
                0x00000000       0x34 build/pic32mz_ef_sk_meb2/production/_ext/1907747181/libaria_widget_button.o
 .text.laButtonWidget_GetImageMargin
                0x00000000       0x18 build/pic32mz_ef_sk_meb2/production/_ext/1907747181/libaria_widget_button.o
 .text.laButtonWidget_SetImageMargin
                0x00000000       0x34 build/pic32mz_ef_sk_meb2/production/_ext/1907747181/libaria_widget_button.o
 .text.laButtonWidget_GetPressedOffset
                0x00000000       0x18 build/pic32mz_ef_sk_meb2/production/_ext/1907747181/libaria_widget_button.o
 .text.laButtonWidget_SetPressedOffset
                0x00000000       0x44 build/pic32mz_ef_sk_meb2/production/_ext/1907747181/libaria_widget_button.o
 .text.laButtonWidget_GetPressedEventCallback
                0x00000000       0x18 build/pic32mz_ef_sk_meb2/production/_ext/1907747181/libaria_widget_button.o
 .text.laButtonWidget_SetPressedEventCallback
                0x00000000       0x1c build/pic32mz_ef_sk_meb2/production/_ext/1907747181/libaria_widget_button.o
 .text.laButtonWidget_GetReleasedEventCallback
                0x00000000       0x18 build/pic32mz_ef_sk_meb2/production/_ext/1907747181/libaria_widget_button.o
 .text.laButtonWidget_SetReleasedEventCallback
                0x00000000       0x1c build/pic32mz_ef_sk_meb2/production/_ext/1907747181/libaria_widget_button.o
 .text          0x00000000        0x0 build/pic32mz_ef_sk_meb2/production/_ext/1907747181/libaria_widget_button_skin_classic.o
 .data          0x00000000        0x0 build/pic32mz_ef_sk_meb2/production/_ext/1907747181/libaria_widget_button_skin_classic.o
 .bss           0x00000000        0x0 build/pic32mz_ef_sk_meb2/production/_ext/1907747181/libaria_widget_button_skin_classic.o
 .reginfo       0x00000000       0x18 build/pic32mz_ef_sk_meb2/production/_ext/1907747181/libaria_widget_button_skin_classic.o
 .text          0x00000000        0x0 build/pic32mz_ef_sk_meb2/production/_ext/1907747181/libaria_widget_checkbox.o
 .data          0x00000000        0x0 build/pic32mz_ef_sk_meb2/production/_ext/1907747181/libaria_widget_checkbox.o
 .bss           0x00000000        0x0 build/pic32mz_ef_sk_meb2/production/_ext/1907747181/libaria_widget_checkbox.o
 .reginfo       0x00000000       0x18 build/pic32mz_ef_sk_meb2/production/_ext/1907747181/libaria_widget_checkbox.o
 .text._laCheckBoxWidget_TouchMovedEvent
                0x00000000        0xc build/pic32mz_ef_sk_meb2/production/_ext/1907747181/libaria_widget_checkbox.o
 .text._laCheckBoxWidget_Destructor
                0x00000000       0x54 build/pic32mz_ef_sk_meb2/production/_ext/1907747181/libaria_widget_checkbox.o
 .text._laCheckBoxWidget_TouchDownEvent
                0x00000000       0x7c build/pic32mz_ef_sk_meb2/production/_ext/1907747181/libaria_widget_checkbox.o
 .text._laCheckBoxWidget_TouchUpEvent
                0x00000000       0xb8 build/pic32mz_ef_sk_meb2/production/_ext/1907747181/libaria_widget_checkbox.o
 .text._laCheckBoxWidget_Constructor
                0x00000000       0xa4 build/pic32mz_ef_sk_meb2/production/_ext/1907747181/libaria_widget_checkbox.o
 .text.laCheckBoxWidget_New
                0x00000000       0x58 build/pic32mz_ef_sk_meb2/production/_ext/1907747181/libaria_widget_checkbox.o
 .text.laButtonWidget_GetChecked
                0x00000000       0x18 build/pic32mz_ef_sk_meb2/production/_ext/1907747181/libaria_widget_checkbox.o
 .text.laCheckBoxWidget_SetChecked
                0x00000000       0x14 build/pic32mz_ef_sk_meb2/production/_ext/1907747181/libaria_widget_checkbox.o
 .text.laCheckBoxWidget_GetHAlignment
                0x00000000       0x18 build/pic32mz_ef_sk_meb2/production/_ext/1907747181/libaria_widget_checkbox.o
 .text.laCheckBoxWidget_SetHAlignment
                0x00000000       0x34 build/pic32mz_ef_sk_meb2/production/_ext/1907747181/libaria_widget_checkbox.o
 .text.laCheckBoxWidget_GetVAlignment
                0x00000000       0x18 build/pic32mz_ef_sk_meb2/production/_ext/1907747181/libaria_widget_checkbox.o
 .text.laCheckBoxWidget_SetVAlignment
                0x00000000       0x34 build/pic32mz_ef_sk_meb2/production/_ext/1907747181/libaria_widget_checkbox.o
 .text.laCheckBoxWidget_GetText
                0x00000000       0x2c build/pic32mz_ef_sk_meb2/production/_ext/1907747181/libaria_widget_checkbox.o
 .text.laCheckBoxWidget_SetText
                0x00000000       0x64 build/pic32mz_ef_sk_meb2/production/_ext/1907747181/libaria_widget_checkbox.o
 .text.laCheckBoxWidget_GetCheckedImage
                0x00000000       0x18 build/pic32mz_ef_sk_meb2/production/_ext/1907747181/libaria_widget_checkbox.o
 .text.laCheckBoxWidget_SetCheckedImage
                0x00000000       0x34 build/pic32mz_ef_sk_meb2/production/_ext/1907747181/libaria_widget_checkbox.o
 .text.laCheckBoxWidget_GetUncheckedImage
                0x00000000       0x18 build/pic32mz_ef_sk_meb2/production/_ext/1907747181/libaria_widget_checkbox.o
 .text.laCheckBoxWidget_SetUncheckedImage
                0x00000000       0x34 build/pic32mz_ef_sk_meb2/production/_ext/1907747181/libaria_widget_checkbox.o
 .text.laCheckBoxWidget_GetImagePosition
                0x00000000       0x18 build/pic32mz_ef_sk_meb2/production/_ext/1907747181/libaria_widget_checkbox.o
 .text.laCheckBoxWidget_SetImagePosition
                0x00000000       0x34 build/pic32mz_ef_sk_meb2/production/_ext/1907747181/libaria_widget_checkbox.o
 .text.laCheckBoxWidget_GetImageMargin
                0x00000000       0x18 build/pic32mz_ef_sk_meb2/production/_ext/1907747181/libaria_widget_checkbox.o
 .text.laCheckBoxWidget_SetImageMargin
                0x00000000       0x34 build/pic32mz_ef_sk_meb2/production/_ext/1907747181/libaria_widget_checkbox.o
 .text.laCheckBoxWidget_GetCheckedEventCallback
                0x00000000       0x18 build/pic32mz_ef_sk_meb2/production/_ext/1907747181/libaria_widget_checkbox.o
 .text.laCheckBoxWidget_SetCheckedEventCallback
                0x00000000       0x10 build/pic32mz_ef_sk_meb2/production/_ext/1907747181/libaria_widget_checkbox.o
 .text.laCheckBoxWidget_GetUncheckedEventCallback
                0x00000000       0x18 build/pic32mz_ef_sk_meb2/production/_ext/1907747181/libaria_widget_checkbox.o
 .text.laCheckBoxWidget_SetUncheckedEventCallback
                0x00000000       0x10 build/pic32mz_ef_sk_meb2/production/_ext/1907747181/libaria_widget_checkbox.o
 .text          0x00000000        0x0 build/pic32mz_ef_sk_meb2/production/_ext/1907747181/libaria_widget_checkbox_skin_classic.o
 .data          0x00000000        0x0 build/pic32mz_ef_sk_meb2/production/_ext/1907747181/libaria_widget_checkbox_skin_classic.o
 .bss           0x00000000        0x0 build/pic32mz_ef_sk_meb2/production/_ext/1907747181/libaria_widget_checkbox_skin_classic.o
 .reginfo       0x00000000       0x18 build/pic32mz_ef_sk_meb2/production/_ext/1907747181/libaria_widget_checkbox_skin_classic.o
 .text.drawBackground
                0x00000000       0xc8 build/pic32mz_ef_sk_meb2/production/_ext/1907747181/libaria_widget_checkbox_skin_classic.o
 .text.waitImage
                0x00000000       0xdc build/pic32mz_ef_sk_meb2/production/_ext/1907747181/libaria_widget_checkbox_skin_classic.o
 .text.drawBorder
                0x00000000       0xe0 build/pic32mz_ef_sk_meb2/production/_ext/1907747181/libaria_widget_checkbox_skin_classic.o
 .text.waitString
                0x00000000       0xb4 build/pic32mz_ef_sk_meb2/production/_ext/1907747181/libaria_widget_checkbox_skin_classic.o
 .text.drawString
                0x00000000      0x1dc build/pic32mz_ef_sk_meb2/production/_ext/1907747181/libaria_widget_checkbox_skin_classic.o
 .text.drawImage
                0x00000000      0x380 build/pic32mz_ef_sk_meb2/production/_ext/1907747181/libaria_widget_checkbox_skin_classic.o
 .text._laCheckBoxWidget_GetImageRect
                0x00000000      0x138 build/pic32mz_ef_sk_meb2/production/_ext/1907747181/libaria_widget_checkbox_skin_classic.o
 .text._laCheckBoxWidget_Paint
                0x00000000       0x4c build/pic32mz_ef_sk_meb2/production/_ext/1907747181/libaria_widget_checkbox_skin_classic.o
 .text          0x00000000        0x0 build/pic32mz_ef_sk_meb2/production/_ext/1907747181/libaria_widget_circle.o
 .data          0x00000000        0x0 build/pic32mz_ef_sk_meb2/production/_ext/1907747181/libaria_widget_circle.o
 .bss           0x00000000        0x0 build/pic32mz_ef_sk_meb2/production/_ext/1907747181/libaria_widget_circle.o
 .reginfo       0x00000000       0x18 build/pic32mz_ef_sk_meb2/production/_ext/1907747181/libaria_widget_circle.o
 .text._laCircleWidget_Destructor
                0x00000000       0x1c build/pic32mz_ef_sk_meb2/production/_ext/1907747181/libaria_widget_circle.o
 .text._laCircleWidget_Constructor
                0x00000000       0x68 build/pic32mz_ef_sk_meb2/production/_ext/1907747181/libaria_widget_circle.o
 .text.laCircleWidget_New
                0x00000000       0x58 build/pic32mz_ef_sk_meb2/production/_ext/1907747181/libaria_widget_circle.o
 .text.laCircleWidget_GetOrigin
                0x00000000       0x48 build/pic32mz_ef_sk_meb2/production/_ext/1907747181/libaria_widget_circle.o
 .text.laCircleWidget_SetOrigin
                0x00000000       0x48 build/pic32mz_ef_sk_meb2/production/_ext/1907747181/libaria_widget_circle.o
 .text.laCircleWidget_GetRadius
                0x00000000       0x18 build/pic32mz_ef_sk_meb2/production/_ext/1907747181/libaria_widget_circle.o
 .text.laCircleWidget_SetRadius
                0x00000000       0x44 build/pic32mz_ef_sk_meb2/production/_ext/1907747181/libaria_widget_circle.o
 .text          0x00000000        0x0 build/pic32mz_ef_sk_meb2/production/_ext/1907747181/libaria_widget_circle_skin_classic.o
 .data          0x00000000        0x0 build/pic32mz_ef_sk_meb2/production/_ext/1907747181/libaria_widget_circle_skin_classic.o
 .bss           0x00000000        0x0 build/pic32mz_ef_sk_meb2/production/_ext/1907747181/libaria_widget_circle_skin_classic.o
 .reginfo       0x00000000       0x18 build/pic32mz_ef_sk_meb2/production/_ext/1907747181/libaria_widget_circle_skin_classic.o
 .text.drawCircle
                0x00000000       0xb4 build/pic32mz_ef_sk_meb2/production/_ext/1907747181/libaria_widget_circle_skin_classic.o
 .text.drawBorder
                0x00000000       0xd0 build/pic32mz_ef_sk_meb2/production/_ext/1907747181/libaria_widget_circle_skin_classic.o
 .text.drawBackground
                0x00000000       0xc8 build/pic32mz_ef_sk_meb2/production/_ext/1907747181/libaria_widget_circle_skin_classic.o
 .text._laCircleWidget_Paint
                0x00000000       0x68 build/pic32mz_ef_sk_meb2/production/_ext/1907747181/libaria_widget_circle_skin_classic.o
 .text          0x00000000        0x0 build/pic32mz_ef_sk_meb2/production/_ext/1907747181/libaria_widget_drawsurface.o
 .data          0x00000000        0x0 build/pic32mz_ef_sk_meb2/production/_ext/1907747181/libaria_widget_drawsurface.o
 .bss           0x00000000        0x0 build/pic32mz_ef_sk_meb2/production/_ext/1907747181/libaria_widget_drawsurface.o
 .reginfo       0x00000000       0x18 build/pic32mz_ef_sk_meb2/production/_ext/1907747181/libaria_widget_drawsurface.o
 .text._laDrawSurfaceWidget_Destructor
                0x00000000       0x1c build/pic32mz_ef_sk_meb2/production/_ext/1907747181/libaria_widget_drawsurface.o
 .text._laDrawSurfaceWidget_Constructor
                0x00000000       0x60 build/pic32mz_ef_sk_meb2/production/_ext/1907747181/libaria_widget_drawsurface.o
 .text.laDrawSurfaceWidget_New
                0x00000000       0x58 build/pic32mz_ef_sk_meb2/production/_ext/1907747181/libaria_widget_drawsurface.o
 .text.laDrawSurfaceWidget_GetDrawCallback
                0x00000000       0x18 build/pic32mz_ef_sk_meb2/production/_ext/1907747181/libaria_widget_drawsurface.o
 .text.laDrawSurfaceWidget_SetDrawCallback
                0x00000000       0x48 build/pic32mz_ef_sk_meb2/production/_ext/1907747181/libaria_widget_drawsurface.o
 .text          0x00000000        0x0 build/pic32mz_ef_sk_meb2/production/_ext/1907747181/libaria_widget_drawsurface_skin_classic.o
 .data          0x00000000        0x0 build/pic32mz_ef_sk_meb2/production/_ext/1907747181/libaria_widget_drawsurface_skin_classic.o
 .bss           0x00000000        0x0 build/pic32mz_ef_sk_meb2/production/_ext/1907747181/libaria_widget_drawsurface_skin_classic.o
 .reginfo       0x00000000       0x18 build/pic32mz_ef_sk_meb2/production/_ext/1907747181/libaria_widget_drawsurface_skin_classic.o
 .text.drawBackground
                0x00000000      0x108 build/pic32mz_ef_sk_meb2/production/_ext/1907747181/libaria_widget_drawsurface_skin_classic.o
 .text.drawCallback
                0x00000000       0xbc build/pic32mz_ef_sk_meb2/production/_ext/1907747181/libaria_widget_drawsurface_skin_classic.o
 .text.drawBorder
                0x00000000       0xe0 build/pic32mz_ef_sk_meb2/production/_ext/1907747181/libaria_widget_drawsurface_skin_classic.o
 .text._laDrawSurfaceWidget_Paint
                0x00000000       0x4c build/pic32mz_ef_sk_meb2/production/_ext/1907747181/libaria_widget_drawsurface_skin_classic.o
 .text          0x00000000        0x0 build/pic32mz_ef_sk_meb2/production/_ext/1907747181/libaria_widget_gradient.o
 .data          0x00000000        0x0 build/pic32mz_ef_sk_meb2/production/_ext/1907747181/libaria_widget_gradient.o
 .bss           0x00000000        0x0 build/pic32mz_ef_sk_meb2/production/_ext/1907747181/libaria_widget_gradient.o
 .reginfo       0x00000000       0x18 build/pic32mz_ef_sk_meb2/production/_ext/1907747181/libaria_widget_gradient.o
 .text._laGradientWidget_Destructor
                0x00000000       0x1c build/pic32mz_ef_sk_meb2/production/_ext/1907747181/libaria_widget_gradient.o
 .text._laGradientWidget_Constructor
                0x00000000       0x60 build/pic32mz_ef_sk_meb2/production/_ext/1907747181/libaria_widget_gradient.o
 .text.laGradientWidget_New
                0x00000000       0x58 build/pic32mz_ef_sk_meb2/production/_ext/1907747181/libaria_widget_gradient.o
 .text.laGradientWidget_GetDirection
                0x00000000       0x18 build/pic32mz_ef_sk_meb2/production/_ext/1907747181/libaria_widget_gradient.o
 .text.laGradientWidget_SetDirection
                0x00000000       0x44 build/pic32mz_ef_sk_meb2/production/_ext/1907747181/libaria_widget_gradient.o
 .text          0x00000000        0x0 build/pic32mz_ef_sk_meb2/production/_ext/1907747181/libaria_widget_gradient_skin_classic.o
 .data          0x00000000        0x0 build/pic32mz_ef_sk_meb2/production/_ext/1907747181/libaria_widget_gradient_skin_classic.o
 .bss           0x00000000        0x0 build/pic32mz_ef_sk_meb2/production/_ext/1907747181/libaria_widget_gradient_skin_classic.o
 .reginfo       0x00000000       0x18 build/pic32mz_ef_sk_meb2/production/_ext/1907747181/libaria_widget_gradient_skin_classic.o
 .text.drawBorder
                0x00000000       0xd0 build/pic32mz_ef_sk_meb2/production/_ext/1907747181/libaria_widget_gradient_skin_classic.o
 .text.drawBackground
                0x00000000      0x128 build/pic32mz_ef_sk_meb2/production/_ext/1907747181/libaria_widget_gradient_skin_classic.o
 .text._laGradientWidget_Paint
                0x00000000       0x7c build/pic32mz_ef_sk_meb2/production/_ext/1907747181/libaria_widget_gradient_skin_classic.o
 .text          0x00000000        0x0 build/pic32mz_ef_sk_meb2/production/_ext/1907747181/libaria_widget_groupbox.o
 .data          0x00000000        0x0 build/pic32mz_ef_sk_meb2/production/_ext/1907747181/libaria_widget_groupbox.o
 .bss           0x00000000        0x0 build/pic32mz_ef_sk_meb2/production/_ext/1907747181/libaria_widget_groupbox.o
 .reginfo       0x00000000       0x18 build/pic32mz_ef_sk_meb2/production/_ext/1907747181/libaria_widget_groupbox.o
 .text._laGroupBoxWidget_Destructor
                0x00000000       0x30 build/pic32mz_ef_sk_meb2/production/_ext/1907747181/libaria_widget_groupbox.o
 .text._laGroupBoxWidget_Constructor
                0x00000000       0x60 build/pic32mz_ef_sk_meb2/production/_ext/1907747181/libaria_widget_groupbox.o
 .text.laGroupBoxWidget_New
                0x00000000       0x50 build/pic32mz_ef_sk_meb2/production/_ext/1907747181/libaria_widget_groupbox.o
 .text.laGroupBoxWidget_GetAlignment
                0x00000000       0x18 build/pic32mz_ef_sk_meb2/production/_ext/1907747181/libaria_widget_groupbox.o
 .text.laGroupBoxWidget_SetAlignment
                0x00000000       0x48 build/pic32mz_ef_sk_meb2/production/_ext/1907747181/libaria_widget_groupbox.o
 .text.laGroupBoxWidget_GetText
                0x00000000       0x2c build/pic32mz_ef_sk_meb2/production/_ext/1907747181/libaria_widget_groupbox.o
 .text.laGroupBoxWidget_SetText
                0x00000000       0x64 build/pic32mz_ef_sk_meb2/production/_ext/1907747181/libaria_widget_groupbox.o
 .text          0x00000000        0x0 build/pic32mz_ef_sk_meb2/production/_ext/1907747181/libaria_widget_groupbox_skin_classic.o
 .data          0x00000000        0x0 build/pic32mz_ef_sk_meb2/production/_ext/1907747181/libaria_widget_groupbox_skin_classic.o
 .bss           0x00000000        0x0 build/pic32mz_ef_sk_meb2/production/_ext/1907747181/libaria_widget_groupbox_skin_classic.o
 .reginfo       0x00000000       0x18 build/pic32mz_ef_sk_meb2/production/_ext/1907747181/libaria_widget_groupbox_skin_classic.o
 .text.drawBackground
                0x00000000       0xc8 build/pic32mz_ef_sk_meb2/production/_ext/1907747181/libaria_widget_groupbox_skin_classic.o
 .text.waitString
                0x00000000       0xa8 build/pic32mz_ef_sk_meb2/production/_ext/1907747181/libaria_widget_groupbox_skin_classic.o
 .text.drawOutline
                0x00000000      0x330 build/pic32mz_ef_sk_meb2/production/_ext/1907747181/libaria_widget_groupbox_skin_classic.o
 .text.drawBorder
                0x00000000       0xd0 build/pic32mz_ef_sk_meb2/production/_ext/1907747181/libaria_widget_groupbox_skin_classic.o
 .text.drawString
                0x00000000      0x174 build/pic32mz_ef_sk_meb2/production/_ext/1907747181/libaria_widget_groupbox_skin_classic.o
 .text._laGroupBoxWidget_Paint
                0x00000000       0x4c build/pic32mz_ef_sk_meb2/production/_ext/1907747181/libaria_widget_groupbox_skin_classic.o
 .rodata        0x00000000       0x10 build/pic32mz_ef_sk_meb2/production/_ext/1907747181/libaria_widget_groupbox_skin_classic.o
 .text          0x00000000        0x0 build/pic32mz_ef_sk_meb2/production/_ext/1907747181/libaria_widget_image.o
 .data          0x00000000        0x0 build/pic32mz_ef_sk_meb2/production/_ext/1907747181/libaria_widget_image.o
 .bss           0x00000000        0x0 build/pic32mz_ef_sk_meb2/production/_ext/1907747181/libaria_widget_image.o
 .reginfo       0x00000000       0x18 build/pic32mz_ef_sk_meb2/production/_ext/1907747181/libaria_widget_image.o
 .text.laImageWidget_GetHAlignment
                0x00000000       0x18 build/pic32mz_ef_sk_meb2/production/_ext/1907747181/libaria_widget_image.o
 .text.laImageWidget_SetHAlignment
                0x00000000       0x34 build/pic32mz_ef_sk_meb2/production/_ext/1907747181/libaria_widget_image.o
 .text.laImageWidget_GetVAlignment
                0x00000000       0x18 build/pic32mz_ef_sk_meb2/production/_ext/1907747181/libaria_widget_image.o
 .text.laImageWidget_SetVAlignment
                0x00000000       0x34 build/pic32mz_ef_sk_meb2/production/_ext/1907747181/libaria_widget_image.o
 .text.laImageWidget_GetImage
                0x00000000       0x18 build/pic32mz_ef_sk_meb2/production/_ext/1907747181/libaria_widget_image.o
 .text          0x00000000        0x0 build/pic32mz_ef_sk_meb2/production/_ext/1907747181/libaria_widget_image_skin_classic.o
 .data          0x00000000        0x0 build/pic32mz_ef_sk_meb2/production/_ext/1907747181/libaria_widget_image_skin_classic.o
 .bss           0x00000000        0x0 build/pic32mz_ef_sk_meb2/production/_ext/1907747181/libaria_widget_image_skin_classic.o
 .reginfo       0x00000000       0x18 build/pic32mz_ef_sk_meb2/production/_ext/1907747181/libaria_widget_image_skin_classic.o
 .text          0x00000000        0x0 build/pic32mz_ef_sk_meb2/production/_ext/1907747181/libaria_widget_imagesequence.o
 .data          0x00000000        0x0 build/pic32mz_ef_sk_meb2/production/_ext/1907747181/libaria_widget_imagesequence.o
 .bss           0x00000000        0x0 build/pic32mz_ef_sk_meb2/production/_ext/1907747181/libaria_widget_imagesequence.o
 .reginfo       0x00000000       0x18 build/pic32mz_ef_sk_meb2/production/_ext/1907747181/libaria_widget_imagesequence.o
 .text._laImageSequenceWidget_Destructor
                0x00000000       0x48 build/pic32mz_ef_sk_meb2/production/_ext/1907747181/libaria_widget_imagesequence.o
 .text._laImageSequenceWidget_Update
                0x00000000       0xe8 build/pic32mz_ef_sk_meb2/production/_ext/1907747181/libaria_widget_imagesequence.o
 .text._laImageSequenceWidget_Constructor
                0x00000000       0x80 build/pic32mz_ef_sk_meb2/production/_ext/1907747181/libaria_widget_imagesequence.o
 .text.laImageSequenceWidget_New
                0x00000000       0x44 build/pic32mz_ef_sk_meb2/production/_ext/1907747181/libaria_widget_imagesequence.o
 .text.laImageSequenceWidget_GetImageCount
                0x00000000       0x18 build/pic32mz_ef_sk_meb2/production/_ext/1907747181/libaria_widget_imagesequence.o
 .text.laImageSequenceWidget_SetImageCount
                0x00000000       0xc4 build/pic32mz_ef_sk_meb2/production/_ext/1907747181/libaria_widget_imagesequence.o
 .text.laImageSequenceWidget_GetImage
                0x00000000       0x34 build/pic32mz_ef_sk_meb2/production/_ext/1907747181/libaria_widget_imagesequence.o
 .text.laImageSequenceWidget_SetImage
                0x00000000       0x80 build/pic32mz_ef_sk_meb2/production/_ext/1907747181/libaria_widget_imagesequence.o
 .text.laImageSequenceWidget_GetImageDelay
                0x00000000       0x30 build/pic32mz_ef_sk_meb2/production/_ext/1907747181/libaria_widget_imagesequence.o
 .text.laImageSequenceWidget_SetImageDelay
                0x00000000       0x3c build/pic32mz_ef_sk_meb2/production/_ext/1907747181/libaria_widget_imagesequence.o
 .text.laImageSequenceWidget_GetImageHAlignment
                0x00000000       0x30 build/pic32mz_ef_sk_meb2/production/_ext/1907747181/libaria_widget_imagesequence.o
 .text.laImageSequenceWidget_SetImageHAlignment
                0x00000000       0x80 build/pic32mz_ef_sk_meb2/production/_ext/1907747181/libaria_widget_imagesequence.o
 .text.laImageSequenceWidget_GetImageVAlignment
                0x00000000       0x30 build/pic32mz_ef_sk_meb2/production/_ext/1907747181/libaria_widget_imagesequence.o
 .text.laImageSequenceWidget_SetImageVAlignment
                0x00000000       0x80 build/pic32mz_ef_sk_meb2/production/_ext/1907747181/libaria_widget_imagesequence.o
 .text.laImageSequenceWidget_Stop
                0x00000000       0x1c build/pic32mz_ef_sk_meb2/production/_ext/1907747181/libaria_widget_imagesequence.o
 .text.laImageSequenceWidget_Play
                0x00000000       0x20 build/pic32mz_ef_sk_meb2/production/_ext/1907747181/libaria_widget_imagesequence.o
 .text.laImageSequenceWidget_Rewind
                0x00000000       0x24 build/pic32mz_ef_sk_meb2/production/_ext/1907747181/libaria_widget_imagesequence.o
 .text.laImageSequenceWidget_IsPlaying
                0x00000000       0x18 build/pic32mz_ef_sk_meb2/production/_ext/1907747181/libaria_widget_imagesequence.o
 .text.laImageSequenceWidget_GetRepeat
                0x00000000       0x18 build/pic32mz_ef_sk_meb2/production/_ext/1907747181/libaria_widget_imagesequence.o
 .text.laImageSequenceWidget_SetRepeat
                0x00000000       0x1c build/pic32mz_ef_sk_meb2/production/_ext/1907747181/libaria_widget_imagesequence.o
 .text.laImageSequenceWidget_ShowImage
                0x00000000       0x68 build/pic32mz_ef_sk_meb2/production/_ext/1907747181/libaria_widget_imagesequence.o
 .text.laImageSequenceWidget_ShowNextImage
                0x00000000       0x5c build/pic32mz_ef_sk_meb2/production/_ext/1907747181/libaria_widget_imagesequence.o
 .text.laImageSequenceWidget_ShowPreviousImage
                0x00000000       0x58 build/pic32mz_ef_sk_meb2/production/_ext/1907747181/libaria_widget_imagesequence.o
 .text.laImageSequenceWidget_GetImageChangedEventCallback
                0x00000000       0x18 build/pic32mz_ef_sk_meb2/production/_ext/1907747181/libaria_widget_imagesequence.o
 .text.laImageSequenceWidget_SetImageChangedEventCallback
                0x00000000       0x1c build/pic32mz_ef_sk_meb2/production/_ext/1907747181/libaria_widget_imagesequence.o
 .text          0x00000000        0x0 build/pic32mz_ef_sk_meb2/production/_ext/1907747181/libaria_widget_imagesequence_skin_classic.o
 .data          0x00000000        0x0 build/pic32mz_ef_sk_meb2/production/_ext/1907747181/libaria_widget_imagesequence_skin_classic.o
 .bss           0x00000000        0x0 build/pic32mz_ef_sk_meb2/production/_ext/1907747181/libaria_widget_imagesequence_skin_classic.o
 .reginfo       0x00000000       0x18 build/pic32mz_ef_sk_meb2/production/_ext/1907747181/libaria_widget_imagesequence_skin_classic.o
 .text.drawBackground
                0x00000000      0x12c build/pic32mz_ef_sk_meb2/production/_ext/1907747181/libaria_widget_imagesequence_skin_classic.o
 .text.waitImage
                0x00000000       0xa8 build/pic32mz_ef_sk_meb2/production/_ext/1907747181/libaria_widget_imagesequence_skin_classic.o
 .text.drawBorder
                0x00000000       0xd0 build/pic32mz_ef_sk_meb2/production/_ext/1907747181/libaria_widget_imagesequence_skin_classic.o
 .text.drawImage
                0x00000000      0x1d8 build/pic32mz_ef_sk_meb2/production/_ext/1907747181/libaria_widget_imagesequence_skin_classic.o
 .text._laImageSequenceWidget_Paint
                0x00000000       0x4c build/pic32mz_ef_sk_meb2/production/_ext/1907747181/libaria_widget_imagesequence_skin_classic.o
 .rodata        0x00000000       0x10 build/pic32mz_ef_sk_meb2/production/_ext/1907747181/libaria_widget_imagesequence_skin_classic.o
 .text          0x00000000        0x0 build/pic32mz_ef_sk_meb2/production/_ext/1907747181/libaria_widget_keypad.o
 .data          0x00000000        0x0 build/pic32mz_ef_sk_meb2/production/_ext/1907747181/libaria_widget_keypad.o
 .bss           0x00000000        0x0 build/pic32mz_ef_sk_meb2/production/_ext/1907747181/libaria_widget_keypad.o
 .reginfo       0x00000000       0x18 build/pic32mz_ef_sk_meb2/production/_ext/1907747181/libaria_widget_keypad.o
 .text._buttonClicked
                0x00000000      0x12c build/pic32mz_ef_sk_meb2/production/_ext/1907747181/libaria_widget_keypad.o
 .text._getButton
                0x00000000       0x60 build/pic32mz_ef_sk_meb2/production/_ext/1907747181/libaria_widget_keypad.o
 .text._resizeCells
                0x00000000      0x154 build/pic32mz_ef_sk_meb2/production/_ext/1907747181/libaria_widget_keypad.o
 .text._resized
                0x00000000       0x1c build/pic32mz_ef_sk_meb2/production/_ext/1907747181/libaria_widget_keypad.o
 .text._laKeyPadWidget_Destructor
                0x00000000       0xa0 build/pic32mz_ef_sk_meb2/production/_ext/1907747181/libaria_widget_keypad.o
 .text._laKeyPadWidget_Constructor
                0x00000000      0x110 build/pic32mz_ef_sk_meb2/production/_ext/1907747181/libaria_widget_keypad.o
 .text.laKeyPadWidget_New
                0x00000000       0x70 build/pic32mz_ef_sk_meb2/production/_ext/1907747181/libaria_widget_keypad.o
 .text.laKeyPadWidget_GetKeyClickEventCallback
                0x00000000       0x18 build/pic32mz_ef_sk_meb2/production/_ext/1907747181/libaria_widget_keypad.o
 .text.laKeyPadWidget_SetKeyClickEventCallback
                0x00000000       0x10 build/pic32mz_ef_sk_meb2/production/_ext/1907747181/libaria_widget_keypad.o
 .text.laKeyPadWidget_GetKeyEnabled
                0x00000000       0x5c build/pic32mz_ef_sk_meb2/production/_ext/1907747181/libaria_widget_keypad.o
 .text.laKeyPadWidget_SetKeyEnabled
                0x00000000       0x5c build/pic32mz_ef_sk_meb2/production/_ext/1907747181/libaria_widget_keypad.o
 .text.laKeyPadWidget_GetKeyText
                0x00000000       0x5c build/pic32mz_ef_sk_meb2/production/_ext/1907747181/libaria_widget_keypad.o
 .text.laKeyPadWidget_SetKeyText
                0x00000000       0x68 build/pic32mz_ef_sk_meb2/production/_ext/1907747181/libaria_widget_keypad.o
 .text.laKeyPadWidget_GetKeyPressedImage
                0x00000000       0x60 build/pic32mz_ef_sk_meb2/production/_ext/1907747181/libaria_widget_keypad.o
 .text.laKeyPadWidget_SetKeyPressedImage
                0x00000000       0x5c build/pic32mz_ef_sk_meb2/production/_ext/1907747181/libaria_widget_keypad.o
 .text.laKeyPadWidget_GetKeyReleasedImage
                0x00000000       0x60 build/pic32mz_ef_sk_meb2/production/_ext/1907747181/libaria_widget_keypad.o
 .text.laKeyPadWidget_SetKeyReleasedImage
                0x00000000       0x5c build/pic32mz_ef_sk_meb2/production/_ext/1907747181/libaria_widget_keypad.o
 .text.laKeyPadWidget_GetKeyImagePosition
                0x00000000       0x5c build/pic32mz_ef_sk_meb2/production/_ext/1907747181/libaria_widget_keypad.o
 .text.laKeyPadWidget_SetKeyImagePosition
                0x00000000       0x5c build/pic32mz_ef_sk_meb2/production/_ext/1907747181/libaria_widget_keypad.o
 .text.laKeyPadWidget_GetKeyImageMargin
                0x00000000       0x5c build/pic32mz_ef_sk_meb2/production/_ext/1907747181/libaria_widget_keypad.o
 .text.laKeyPadWidget_SetKeyImageMargin
                0x00000000       0x5c build/pic32mz_ef_sk_meb2/production/_ext/1907747181/libaria_widget_keypad.o
 .text.laKeyPadWidget_GetKeyDrawBackground
                0x00000000       0x5c build/pic32mz_ef_sk_meb2/production/_ext/1907747181/libaria_widget_keypad.o
 .text.laKeyPadWidget_SetKeyDrawBackground
                0x00000000       0x5c build/pic32mz_ef_sk_meb2/production/_ext/1907747181/libaria_widget_keypad.o
 .text.laKeyPadWidget_GetKeyAction
                0x00000000       0x44 build/pic32mz_ef_sk_meb2/production/_ext/1907747181/libaria_widget_keypad.o
 .text.laKeyPadWidget_SetKeyAction
                0x00000000       0x4c build/pic32mz_ef_sk_meb2/production/_ext/1907747181/libaria_widget_keypad.o
 .text.laKeyPadWidget_GetKeyValue
                0x00000000       0x60 build/pic32mz_ef_sk_meb2/production/_ext/1907747181/libaria_widget_keypad.o
 .text.laKeyPadWidget_SetKeyValue
                0x00000000       0xa8 build/pic32mz_ef_sk_meb2/production/_ext/1907747181/libaria_widget_keypad.o
 .text          0x00000000        0x0 build/pic32mz_ef_sk_meb2/production/_ext/1907747181/libaria_widget_keypad_skin_classic.o
 .data          0x00000000        0x0 build/pic32mz_ef_sk_meb2/production/_ext/1907747181/libaria_widget_keypad_skin_classic.o
 .bss           0x00000000        0x0 build/pic32mz_ef_sk_meb2/production/_ext/1907747181/libaria_widget_keypad_skin_classic.o
 .reginfo       0x00000000       0x18 build/pic32mz_ef_sk_meb2/production/_ext/1907747181/libaria_widget_keypad_skin_classic.o
 .text.drawBorder
                0x00000000       0xb4 build/pic32mz_ef_sk_meb2/production/_ext/1907747181/libaria_widget_keypad_skin_classic.o
 .text.drawBackground
                0x00000000       0xe8 build/pic32mz_ef_sk_meb2/production/_ext/1907747181/libaria_widget_keypad_skin_classic.o
 .text._laKeyPadWidget_Paint
                0x00000000       0xd8 build/pic32mz_ef_sk_meb2/production/_ext/1907747181/libaria_widget_keypad_skin_classic.o
 .text          0x00000000        0x0 build/pic32mz_ef_sk_meb2/production/_ext/1907747181/libaria_widget_label.o
 .data          0x00000000        0x0 build/pic32mz_ef_sk_meb2/production/_ext/1907747181/libaria_widget_label.o
 .bss           0x00000000        0x0 build/pic32mz_ef_sk_meb2/production/_ext/1907747181/libaria_widget_label.o
 .reginfo       0x00000000       0x18 build/pic32mz_ef_sk_meb2/production/_ext/1907747181/libaria_widget_label.o
 .text.laLabelWidget_GetHAlignment
                0x00000000       0x18 build/pic32mz_ef_sk_meb2/production/_ext/1907747181/libaria_widget_label.o
 .text.laLabelWidget_SetHAlignment
                0x00000000       0x34 build/pic32mz_ef_sk_meb2/production/_ext/1907747181/libaria_widget_label.o
 .text.laLabelWidget_GetVAlignment
                0x00000000       0x18 build/pic32mz_ef_sk_meb2/production/_ext/1907747181/libaria_widget_label.o
 .text.laLabelWidget_SetVAlignment
                0x00000000       0x34 build/pic32mz_ef_sk_meb2/production/_ext/1907747181/libaria_widget_label.o
 .text.laLabelWidget_GetText
                0x00000000       0x2c build/pic32mz_ef_sk_meb2/production/_ext/1907747181/libaria_widget_label.o
 .text          0x00000000        0x0 build/pic32mz_ef_sk_meb2/production/_ext/1907747181/libaria_widget_label_skin_classic.o
 .data          0x00000000        0x0 build/pic32mz_ef_sk_meb2/production/_ext/1907747181/libaria_widget_label_skin_classic.o
 .bss           0x00000000        0x0 build/pic32mz_ef_sk_meb2/production/_ext/1907747181/libaria_widget_label_skin_classic.o
 .reginfo       0x00000000       0x18 build/pic32mz_ef_sk_meb2/production/_ext/1907747181/libaria_widget_label_skin_classic.o
 .text          0x00000000        0x0 build/pic32mz_ef_sk_meb2/production/_ext/1907747181/libaria_widget_line.o
 .data          0x00000000        0x0 build/pic32mz_ef_sk_meb2/production/_ext/1907747181/libaria_widget_line.o
 .bss           0x00000000        0x0 build/pic32mz_ef_sk_meb2/production/_ext/1907747181/libaria_widget_line.o
 .reginfo       0x00000000       0x18 build/pic32mz_ef_sk_meb2/production/_ext/1907747181/libaria_widget_line.o
 .text._laLineWidget_Destructor
                0x00000000       0x1c build/pic32mz_ef_sk_meb2/production/_ext/1907747181/libaria_widget_line.o
 .text._laLineWidget_Constructor
                0x00000000       0x6c build/pic32mz_ef_sk_meb2/production/_ext/1907747181/libaria_widget_line.o
 .text.laLineWidget_New
                0x00000000       0x58 build/pic32mz_ef_sk_meb2/production/_ext/1907747181/libaria_widget_line.o
 .text.laLineWidget_GetStartPoint
                0x00000000       0x48 build/pic32mz_ef_sk_meb2/production/_ext/1907747181/libaria_widget_line.o
 .text.laLineWidget_SetStartPoint
                0x00000000       0x48 build/pic32mz_ef_sk_meb2/production/_ext/1907747181/libaria_widget_line.o
 .text.laLineWidget_GetEndPoint
                0x00000000       0x48 build/pic32mz_ef_sk_meb2/production/_ext/1907747181/libaria_widget_line.o
 .text.laLineWidget_SetEndPoint
                0x00000000       0x48 build/pic32mz_ef_sk_meb2/production/_ext/1907747181/libaria_widget_line.o
 .text          0x00000000        0x0 build/pic32mz_ef_sk_meb2/production/_ext/1907747181/libaria_widget_line_skin_classic.o
 .data          0x00000000        0x0 build/pic32mz_ef_sk_meb2/production/_ext/1907747181/libaria_widget_line_skin_classic.o
 .bss           0x00000000        0x0 build/pic32mz_ef_sk_meb2/production/_ext/1907747181/libaria_widget_line_skin_classic.o
 .reginfo       0x00000000       0x18 build/pic32mz_ef_sk_meb2/production/_ext/1907747181/libaria_widget_line_skin_classic.o
 .text.drawLine
                0x00000000       0xc8 build/pic32mz_ef_sk_meb2/production/_ext/1907747181/libaria_widget_line_skin_classic.o
 .text.drawBorder
                0x00000000       0xd0 build/pic32mz_ef_sk_meb2/production/_ext/1907747181/libaria_widget_line_skin_classic.o
 .text.drawBackground
                0x00000000       0xc8 build/pic32mz_ef_sk_meb2/production/_ext/1907747181/libaria_widget_line_skin_classic.o
 .text._laLineWidget_Paint
                0x00000000       0x68 build/pic32mz_ef_sk_meb2/production/_ext/1907747181/libaria_widget_line_skin_classic.o
 .text          0x00000000        0x0 build/pic32mz_ef_sk_meb2/production/_ext/1907747181/libaria_widget_list.o
 .data          0x00000000        0x0 build/pic32mz_ef_sk_meb2/production/_ext/1907747181/libaria_widget_list.o
 .bss           0x00000000        0x0 build/pic32mz_ef_sk_meb2/production/_ext/1907747181/libaria_widget_list.o
 .reginfo       0x00000000       0x18 build/pic32mz_ef_sk_meb2/production/_ext/1907747181/libaria_widget_list.o
 .text.resized  0x00000000       0x54 build/pic32mz_ef_sk_meb2/production/_ext/1907747181/libaria_widget_list.o
 .text.scrollBarMoved
                0x00000000       0x1c build/pic32mz_ef_sk_meb2/production/_ext/1907747181/libaria_widget_list.o
 .text._laListWidget_GetRowRect
                0x00000000       0x84 build/pic32mz_ef_sk_meb2/production/_ext/1907747181/libaria_widget_list.o
 .text.getRowAtPoint
                0x00000000       0xc4 build/pic32mz_ef_sk_meb2/production/_ext/1907747181/libaria_widget_list.o
 .text.touchMoved
                0x00000000       0x88 build/pic32mz_ef_sk_meb2/production/_ext/1907747181/libaria_widget_list.o
 .text.touchDown
                0x00000000       0x88 build/pic32mz_ef_sk_meb2/production/_ext/1907747181/libaria_widget_list.o
 .text._laListWidget_GetRowY
                0x00000000       0x78 build/pic32mz_ef_sk_meb2/production/_ext/1907747181/libaria_widget_list.o
 .text._laListWidget_GetLogicalRect
                0x00000000       0x88 build/pic32mz_ef_sk_meb2/production/_ext/1907747181/libaria_widget_list.o
 .text.recalculateScrollBarValues
                0x00000000       0x80 build/pic32mz_ef_sk_meb2/production/_ext/1907747181/libaria_widget_list.o
 .text._laListWidget_Constructor
                0x00000000      0x118 build/pic32mz_ef_sk_meb2/production/_ext/1907747181/libaria_widget_list.o
 .text.laListWidget_New
                0x00000000       0x50 build/pic32mz_ef_sk_meb2/production/_ext/1907747181/libaria_widget_list.o
 .text.laListWidget_GetSelectionMode
                0x00000000       0x18 build/pic32mz_ef_sk_meb2/production/_ext/1907747181/libaria_widget_list.o
 .text.laListWidget_GetAllowEmptySelection
                0x00000000       0x18 build/pic32mz_ef_sk_meb2/production/_ext/1907747181/libaria_widget_list.o
 .text.laListWidget_GetAlignment
                0x00000000       0x18 build/pic32mz_ef_sk_meb2/production/_ext/1907747181/libaria_widget_list.o
 .text.laListWidget_SetAlignment
                0x00000000       0x44 build/pic32mz_ef_sk_meb2/production/_ext/1907747181/libaria_widget_list.o
 .text.laListWidget_GetIconPosition
                0x00000000       0x18 build/pic32mz_ef_sk_meb2/production/_ext/1907747181/libaria_widget_list.o
 .text.laListWidget_SetIconPosition
                0x00000000       0x50 build/pic32mz_ef_sk_meb2/production/_ext/1907747181/libaria_widget_list.o
 .text.laListWidget_GetIconMargin
                0x00000000       0x18 build/pic32mz_ef_sk_meb2/production/_ext/1907747181/libaria_widget_list.o
 .text.laListWidget_SetIconMargin
                0x00000000       0x44 build/pic32mz_ef_sk_meb2/production/_ext/1907747181/libaria_widget_list.o
 .text.laListWidget_GetItemCount
                0x00000000       0x18 build/pic32mz_ef_sk_meb2/production/_ext/1907747181/libaria_widget_list.o
 .text.laListWidget_RemoveItem
                0x00000000       0xa8 build/pic32mz_ef_sk_meb2/production/_ext/1907747181/libaria_widget_list.o
 .text.laListWidget_RemoveAllItems
                0x00000000       0x9c build/pic32mz_ef_sk_meb2/production/_ext/1907747181/libaria_widget_list.o
 .text._laListWidget_Destructor
                0x00000000       0x50 build/pic32mz_ef_sk_meb2/production/_ext/1907747181/libaria_widget_list.o
 .text.laListWidget_GetItemSelected
                0x00000000       0x3c build/pic32mz_ef_sk_meb2/production/_ext/1907747181/libaria_widget_list.o
 .text.laListWidget_DeselectAll
                0x00000000       0xb4 build/pic32mz_ef_sk_meb2/production/_ext/1907747181/libaria_widget_list.o
 .text.laListWidget_SetSelectionMode
                0x00000000       0x44 build/pic32mz_ef_sk_meb2/production/_ext/1907747181/libaria_widget_list.o
 .text.laListWidget_GetFirstSelectedItem
                0x00000000       0x84 build/pic32mz_ef_sk_meb2/production/_ext/1907747181/libaria_widget_list.o
 .text.laListWidget_GetLastSelectedItem
                0x00000000       0x94 build/pic32mz_ef_sk_meb2/production/_ext/1907747181/libaria_widget_list.o
 .text.laListWidget_GetSelectionCount
                0x00000000       0x98 build/pic32mz_ef_sk_meb2/production/_ext/1907747181/libaria_widget_list.o
 .text.laListWidget_SetItemSelected
                0x00000000      0x2e0 build/pic32mz_ef_sk_meb2/production/_ext/1907747181/libaria_widget_list.o
 .text.laListWidget_ToggleItemSelected
                0x00000000       0x64 build/pic32mz_ef_sk_meb2/production/_ext/1907747181/libaria_widget_list.o
 .text.touchUp  0x00000000       0x70 build/pic32mz_ef_sk_meb2/production/_ext/1907747181/libaria_widget_list.o
 .text.laListWidget_SelectAll
                0x00000000       0xdc build/pic32mz_ef_sk_meb2/production/_ext/1907747181/libaria_widget_list.o
 .text.laListWidget_SetAllowEmptySelection
                0x00000000       0x68 build/pic32mz_ef_sk_meb2/production/_ext/1907747181/libaria_widget_list.o
 .text.laListWidget_AppendItem
                0x00000000       0xa4 build/pic32mz_ef_sk_meb2/production/_ext/1907747181/libaria_widget_list.o
 .text.laListWidget_InsertItem
                0x00000000       0xa8 build/pic32mz_ef_sk_meb2/production/_ext/1907747181/libaria_widget_list.o
 .text.laListWidget_GetItemText
                0x00000000       0x50 build/pic32mz_ef_sk_meb2/production/_ext/1907747181/libaria_widget_list.o
 .text.laListWidget_SetItemText
                0x00000000       0x60 build/pic32mz_ef_sk_meb2/production/_ext/1907747181/libaria_widget_list.o
 .text.laListWidget_GetItemIcon
                0x00000000       0x4c build/pic32mz_ef_sk_meb2/production/_ext/1907747181/libaria_widget_list.o
 .text.laListWidget_SetItemIcon
                0x00000000       0x54 build/pic32mz_ef_sk_meb2/production/_ext/1907747181/libaria_widget_list.o
 .text.laListWidget_SetItemVisible
                0x00000000       0x48 build/pic32mz_ef_sk_meb2/production/_ext/1907747181/libaria_widget_list.o
 .text.laListWidget_GetSelectedItemChangedEventCallback
                0x00000000       0x18 build/pic32mz_ef_sk_meb2/production/_ext/1907747181/libaria_widget_list.o
 .text.laListWidget_SetSelectedItemChangedEventCallback
                0x00000000       0x1c build/pic32mz_ef_sk_meb2/production/_ext/1907747181/libaria_widget_list.o
 .text          0x00000000        0x0 build/pic32mz_ef_sk_meb2/production/_ext/1907747181/libaria_widget_list_skin_classic.o
 .data          0x00000000        0x0 build/pic32mz_ef_sk_meb2/production/_ext/1907747181/libaria_widget_list_skin_classic.o
 .bss           0x00000000        0x0 build/pic32mz_ef_sk_meb2/production/_ext/1907747181/libaria_widget_list_skin_classic.o
 .reginfo       0x00000000       0x18 build/pic32mz_ef_sk_meb2/production/_ext/1907747181/libaria_widget_list_skin_classic.o
 .text.nextItem
                0x00000000       0x70 build/pic32mz_ef_sk_meb2/production/_ext/1907747181/libaria_widget_list_skin_classic.o
 .text.drawBorder
                0x00000000       0xd8 build/pic32mz_ef_sk_meb2/production/_ext/1907747181/libaria_widget_list_skin_classic.o
 .text.drawString
                0x00000000      0x334 build/pic32mz_ef_sk_meb2/production/_ext/1907747181/libaria_widget_list_skin_classic.o
 .text.waitIcon
                0x00000000       0x8c build/pic32mz_ef_sk_meb2/production/_ext/1907747181/libaria_widget_list_skin_classic.o
 .text.waitString
                0x00000000       0xb0 build/pic32mz_ef_sk_meb2/production/_ext/1907747181/libaria_widget_list_skin_classic.o
 .text.drawBackground
                0x00000000      0x118 build/pic32mz_ef_sk_meb2/production/_ext/1907747181/libaria_widget_list_skin_classic.o
 .text.drawIcon
                0x00000000      0x218 build/pic32mz_ef_sk_meb2/production/_ext/1907747181/libaria_widget_list_skin_classic.o
 .text._laListWidget_Paint
                0x00000000       0xb8 build/pic32mz_ef_sk_meb2/production/_ext/1907747181/libaria_widget_list_skin_classic.o
 .text          0x00000000        0x0 build/pic32mz_ef_sk_meb2/production/_ext/1907747181/libaria_widget_listwheel.o
 .data          0x00000000        0x0 build/pic32mz_ef_sk_meb2/production/_ext/1907747181/libaria_widget_listwheel.o
 .bss           0x00000000        0x0 build/pic32mz_ef_sk_meb2/production/_ext/1907747181/libaria_widget_listwheel.o
 .reginfo       0x00000000       0x18 build/pic32mz_ef_sk_meb2/production/_ext/1907747181/libaria_widget_listwheel.o
 .text.touchDown
                0x00000000       0x14 build/pic32mz_ef_sk_meb2/production/_ext/1907747181/libaria_widget_listwheel.o
 .text.touchUp  0x00000000        0xc build/pic32mz_ef_sk_meb2/production/_ext/1907747181/libaria_widget_listwheel.o
 .text._laListWheelWidget_Constructor
                0x00000000       0xa8 build/pic32mz_ef_sk_meb2/production/_ext/1907747181/libaria_widget_listwheel.o
 .text.laListWheelWidget_New
                0x00000000       0x50 build/pic32mz_ef_sk_meb2/production/_ext/1907747181/libaria_widget_listwheel.o
 .text.laListWheelWidget_GetAlignment
                0x00000000       0x18 build/pic32mz_ef_sk_meb2/production/_ext/1907747181/libaria_widget_listwheel.o
 .text.laListWheelWidget_SetAlignment
                0x00000000       0x44 build/pic32mz_ef_sk_meb2/production/_ext/1907747181/libaria_widget_listwheel.o
 .text.laListWheelWidget_GetIconPosition
                0x00000000       0x18 build/pic32mz_ef_sk_meb2/production/_ext/1907747181/libaria_widget_listwheel.o
 .text.laListWheelWidget_SetIconPosition
                0x00000000       0x50 build/pic32mz_ef_sk_meb2/production/_ext/1907747181/libaria_widget_listwheel.o
 .text.laListWheelWidget_GetIconMargin
                0x00000000       0x18 build/pic32mz_ef_sk_meb2/production/_ext/1907747181/libaria_widget_listwheel.o
 .text.laListWheelWidget_SetIconMargin
                0x00000000       0x44 build/pic32mz_ef_sk_meb2/production/_ext/1907747181/libaria_widget_listwheel.o
 .text.laListWheelWidget_GetItemCount
                0x00000000       0x18 build/pic32mz_ef_sk_meb2/production/_ext/1907747181/libaria_widget_listwheel.o
 .text.laListWheelWidget_AppendItem
                0x00000000       0x7c build/pic32mz_ef_sk_meb2/production/_ext/1907747181/libaria_widget_listwheel.o
 .text.laListWheelWidget_InsertItem
                0x00000000       0x88 build/pic32mz_ef_sk_meb2/production/_ext/1907747181/libaria_widget_listwheel.o
 .text.laListWheelWidget_RemoveItem
                0x00000000       0xb8 build/pic32mz_ef_sk_meb2/production/_ext/1907747181/libaria_widget_listwheel.o
 .text.laListWheelWidget_RemoveAllItems
                0x00000000       0x98 build/pic32mz_ef_sk_meb2/production/_ext/1907747181/libaria_widget_listwheel.o
 .text._laListWheelWidget_Destructor
                0x00000000       0x50 build/pic32mz_ef_sk_meb2/production/_ext/1907747181/libaria_widget_listwheel.o
 .text.laListWheelWidget_GetSelectedItem
                0x00000000       0x18 build/pic32mz_ef_sk_meb2/production/_ext/1907747181/libaria_widget_listwheel.o
 .text.laListWheelWidget_SetSelectedItem
                0x00000000       0x6c build/pic32mz_ef_sk_meb2/production/_ext/1907747181/libaria_widget_listwheel.o
 .text.laListWheelWidget_SelectPreviousItem
                0x00000000       0x78 build/pic32mz_ef_sk_meb2/production/_ext/1907747181/libaria_widget_listwheel.o
 .text.laListWheelWidget_SelectNextItem
                0x00000000       0x84 build/pic32mz_ef_sk_meb2/production/_ext/1907747181/libaria_widget_listwheel.o
 .text.touchMoved
                0x00000000       0xd0 build/pic32mz_ef_sk_meb2/production/_ext/1907747181/libaria_widget_listwheel.o
 .text.laListWheelWidget_GetItemText
                0x00000000       0x50 build/pic32mz_ef_sk_meb2/production/_ext/1907747181/libaria_widget_listwheel.o
 .text.laListWheelWidget_SetItemText
                0x00000000       0x58 build/pic32mz_ef_sk_meb2/production/_ext/1907747181/libaria_widget_listwheel.o
 .text.laListWheelWidget_GetItemIcon
                0x00000000       0x4c build/pic32mz_ef_sk_meb2/production/_ext/1907747181/libaria_widget_listwheel.o
 .text.laListWheelWidget_SetItemIcon
                0x00000000       0x54 build/pic32mz_ef_sk_meb2/production/_ext/1907747181/libaria_widget_listwheel.o
 .text.laListWheelWidget_GetSelectedItemChangedEventCallback
                0x00000000       0x18 build/pic32mz_ef_sk_meb2/production/_ext/1907747181/libaria_widget_listwheel.o
 .text.laListWheelWidget_SetSelectedItemChangedEventCallback
                0x00000000       0x1c build/pic32mz_ef_sk_meb2/production/_ext/1907747181/libaria_widget_listwheel.o
 .text          0x00000000        0x0 build/pic32mz_ef_sk_meb2/production/_ext/1907747181/libaria_widget_listwheel_skin_classic.o
 .data          0x00000000        0x0 build/pic32mz_ef_sk_meb2/production/_ext/1907747181/libaria_widget_listwheel_skin_classic.o
 .bss           0x00000000        0x0 build/pic32mz_ef_sk_meb2/production/_ext/1907747181/libaria_widget_listwheel_skin_classic.o
 .reginfo       0x00000000       0x18 build/pic32mz_ef_sk_meb2/production/_ext/1907747181/libaria_widget_listwheel_skin_classic.o
 .text.nextItem
                0x00000000       0x78 build/pic32mz_ef_sk_meb2/production/_ext/1907747181/libaria_widget_listwheel_skin_classic.o
 .text.drawBorder
                0x00000000       0xd0 build/pic32mz_ef_sk_meb2/production/_ext/1907747181/libaria_widget_listwheel_skin_classic.o
 .text.drawString
                0x00000000      0x28c build/pic32mz_ef_sk_meb2/production/_ext/1907747181/libaria_widget_listwheel_skin_classic.o
 .text.waitIcon
                0x00000000       0x8c build/pic32mz_ef_sk_meb2/production/_ext/1907747181/libaria_widget_listwheel_skin_classic.o
 .text.waitString
                0x00000000       0xb0 build/pic32mz_ef_sk_meb2/production/_ext/1907747181/libaria_widget_listwheel_skin_classic.o
 .text.drawIcon
                0x00000000      0x210 build/pic32mz_ef_sk_meb2/production/_ext/1907747181/libaria_widget_listwheel_skin_classic.o
 .text.drawBackground
                0x00000000      0x1ec build/pic32mz_ef_sk_meb2/production/_ext/1907747181/libaria_widget_listwheel_skin_classic.o
 .text._laListWheelWidget_Paint
                0x00000000       0xf4 build/pic32mz_ef_sk_meb2/production/_ext/1907747181/libaria_widget_listwheel_skin_classic.o
 .text          0x00000000        0x0 build/pic32mz_ef_sk_meb2/production/_ext/1907747181/libaria_widget_progressbar.o
 .data          0x00000000        0x0 build/pic32mz_ef_sk_meb2/production/_ext/1907747181/libaria_widget_progressbar.o
 .bss           0x00000000        0x0 build/pic32mz_ef_sk_meb2/production/_ext/1907747181/libaria_widget_progressbar.o
 .reginfo       0x00000000       0x18 build/pic32mz_ef_sk_meb2/production/_ext/1907747181/libaria_widget_progressbar.o
 .text._laProgressBarWidget_Destructor
                0x00000000       0x1c build/pic32mz_ef_sk_meb2/production/_ext/1907747181/libaria_widget_progressbar.o
 .text._laProgressBarWidget_Constructor
                0x00000000       0x64 build/pic32mz_ef_sk_meb2/production/_ext/1907747181/libaria_widget_progressbar.o
 .text.laProgressBarWidget_New
                0x00000000       0x58 build/pic32mz_ef_sk_meb2/production/_ext/1907747181/libaria_widget_progressbar.o
 .text.laProgressBarWidget_GetDirection
                0x00000000       0x18 build/pic32mz_ef_sk_meb2/production/_ext/1907747181/libaria_widget_progressbar.o
 .text.laProgressBarWidget_SetDirection
                0x00000000       0x44 build/pic32mz_ef_sk_meb2/production/_ext/1907747181/libaria_widget_progressbar.o
 .text.laProgressBarWidget_GetValue
                0x00000000       0x18 build/pic32mz_ef_sk_meb2/production/_ext/1907747181/libaria_widget_progressbar.o
 .text.laProgressBarWidget_SetValue
                0x00000000       0x6c build/pic32mz_ef_sk_meb2/production/_ext/1907747181/libaria_widget_progressbar.o
 .text.laProgressBarWidget_GetValueChangedEventCallback
                0x00000000       0x18 build/pic32mz_ef_sk_meb2/production/_ext/1907747181/libaria_widget_progressbar.o
 .text.laProgressBarWidget_SetValueChangedCallback
                0x00000000       0x1c build/pic32mz_ef_sk_meb2/production/_ext/1907747181/libaria_widget_progressbar.o
 .text          0x00000000        0x0 build/pic32mz_ef_sk_meb2/production/_ext/1907747181/libaria_widget_progressbar_skin_classic.o
 .data          0x00000000        0x0 build/pic32mz_ef_sk_meb2/production/_ext/1907747181/libaria_widget_progressbar_skin_classic.o
 .bss           0x00000000        0x0 build/pic32mz_ef_sk_meb2/production/_ext/1907747181/libaria_widget_progressbar_skin_classic.o
 .reginfo       0x00000000       0x18 build/pic32mz_ef_sk_meb2/production/_ext/1907747181/libaria_widget_progressbar_skin_classic.o
 .text.drawBorder
                0x00000000       0xd0 build/pic32mz_ef_sk_meb2/production/_ext/1907747181/libaria_widget_progressbar_skin_classic.o
 .text.drawFill
                0x00000000      0x19c build/pic32mz_ef_sk_meb2/production/_ext/1907747181/libaria_widget_progressbar_skin_classic.o
 .text.drawBackground
                0x00000000      0x108 build/pic32mz_ef_sk_meb2/production/_ext/1907747181/libaria_widget_progressbar_skin_classic.o
 .text._laProgressBarWidget_Paint
                0x00000000       0x94 build/pic32mz_ef_sk_meb2/production/_ext/1907747181/libaria_widget_progressbar_skin_classic.o
 .text          0x00000000        0x0 build/pic32mz_ef_sk_meb2/production/_ext/1907747181/libaria_widget_radiobutton.o
 .data          0x00000000        0x0 build/pic32mz_ef_sk_meb2/production/_ext/1907747181/libaria_widget_radiobutton.o
 .bss           0x00000000        0x0 build/pic32mz_ef_sk_meb2/production/_ext/1907747181/libaria_widget_radiobutton.o
 .reginfo       0x00000000       0x18 build/pic32mz_ef_sk_meb2/production/_ext/1907747181/libaria_widget_radiobutton.o
 .text._laRadioButtonWidget_TouchMovedEvent
                0x00000000        0xc build/pic32mz_ef_sk_meb2/production/_ext/1907747181/libaria_widget_radiobutton.o
 .text._laRadioButtonWidget_Destructor
                0x00000000       0x68 build/pic32mz_ef_sk_meb2/production/_ext/1907747181/libaria_widget_radiobutton.o
 .text._laRadioButtonWidget_TouchDownEvent
                0x00000000       0x84 build/pic32mz_ef_sk_meb2/production/_ext/1907747181/libaria_widget_radiobutton.o
 .text._laRadioButtonWidget_TouchUpEvent
                0x00000000       0x74 build/pic32mz_ef_sk_meb2/production/_ext/1907747181/libaria_widget_radiobutton.o
 .text._laRadioButtonWidget_Constructor
                0x00000000       0xac build/pic32mz_ef_sk_meb2/production/_ext/1907747181/libaria_widget_radiobutton.o
 .text.laRadioButtonWidget_New
                0x00000000       0x58 build/pic32mz_ef_sk_meb2/production/_ext/1907747181/libaria_widget_radiobutton.o
 .text.laRadioButtonWidget_GetGroup
                0x00000000       0x18 build/pic32mz_ef_sk_meb2/production/_ext/1907747181/libaria_widget_radiobutton.o
 .text.laRadioButtonWidget_GetSelected
                0x00000000       0x34 build/pic32mz_ef_sk_meb2/production/_ext/1907747181/libaria_widget_radiobutton.o
 .text.laRadioButtonWidget_SetSelected
                0x00000000       0x5c build/pic32mz_ef_sk_meb2/production/_ext/1907747181/libaria_widget_radiobutton.o
 .text._laRadioButtonWidget_Select
                0x00000000       0x4c build/pic32mz_ef_sk_meb2/production/_ext/1907747181/libaria_widget_radiobutton.o
 .text._laRadioButtonWidget_Deselect
                0x00000000       0x48 build/pic32mz_ef_sk_meb2/production/_ext/1907747181/libaria_widget_radiobutton.o
 .text.laRadioButtonWidget_GetHAlignment
                0x00000000       0x18 build/pic32mz_ef_sk_meb2/production/_ext/1907747181/libaria_widget_radiobutton.o
 .text.laRadioButtonWidget_SetHAlignment
                0x00000000       0x34 build/pic32mz_ef_sk_meb2/production/_ext/1907747181/libaria_widget_radiobutton.o
 .text.laRadioButtonWidget_GetVAlignment
                0x00000000       0x18 build/pic32mz_ef_sk_meb2/production/_ext/1907747181/libaria_widget_radiobutton.o
 .text.laRadioButtonWidget_SetVAlignment
                0x00000000       0x34 build/pic32mz_ef_sk_meb2/production/_ext/1907747181/libaria_widget_radiobutton.o
 .text.laRadioButtonWidget_GetText
                0x00000000       0x2c build/pic32mz_ef_sk_meb2/production/_ext/1907747181/libaria_widget_radiobutton.o
 .text.laRadioButtonWidget_SetText
                0x00000000       0x64 build/pic32mz_ef_sk_meb2/production/_ext/1907747181/libaria_widget_radiobutton.o
 .text.laRadioButtonWidget_GetSelectedImage
                0x00000000       0x18 build/pic32mz_ef_sk_meb2/production/_ext/1907747181/libaria_widget_radiobutton.o
 .text.laRadioButtonWidget_SetSelectedImage
                0x00000000       0x34 build/pic32mz_ef_sk_meb2/production/_ext/1907747181/libaria_widget_radiobutton.o
 .text.laRadioButtonWidget_GetUnselectedImage
                0x00000000       0x18 build/pic32mz_ef_sk_meb2/production/_ext/1907747181/libaria_widget_radiobutton.o
 .text.laRadioButtonWidget_SetUnselectedImage
                0x00000000       0x34 build/pic32mz_ef_sk_meb2/production/_ext/1907747181/libaria_widget_radiobutton.o
 .text.laRadioButtonWidget_GetImagePosition
                0x00000000       0x18 build/pic32mz_ef_sk_meb2/production/_ext/1907747181/libaria_widget_radiobutton.o
 .text.laRadioButtonWidget_SetImagePosition
                0x00000000       0x34 build/pic32mz_ef_sk_meb2/production/_ext/1907747181/libaria_widget_radiobutton.o
 .text.laRadioButtonWidget_GetImageMargin
                0x00000000       0x18 build/pic32mz_ef_sk_meb2/production/_ext/1907747181/libaria_widget_radiobutton.o
 .text.laRadioButtonWidget_SetImageMargin
                0x00000000       0x34 build/pic32mz_ef_sk_meb2/production/_ext/1907747181/libaria_widget_radiobutton.o
 .text.laRadioButtonWidget_GetSelectedEventCallback
                0x00000000       0x18 build/pic32mz_ef_sk_meb2/production/_ext/1907747181/libaria_widget_radiobutton.o
 .text.laRadioButtonWidget_SetSelectedEventCallback
                0x00000000       0x1c build/pic32mz_ef_sk_meb2/production/_ext/1907747181/libaria_widget_radiobutton.o
 .text.laRadioButtonWidget_GetDeselectedEventCallback
                0x00000000       0x18 build/pic32mz_ef_sk_meb2/production/_ext/1907747181/libaria_widget_radiobutton.o
 .text.laRadioButtonWidget_SetDeselectedEventCallback
                0x00000000       0x1c build/pic32mz_ef_sk_meb2/production/_ext/1907747181/libaria_widget_radiobutton.o
 .text          0x00000000        0x0 build/pic32mz_ef_sk_meb2/production/_ext/1907747181/libaria_widget_radiobutton_skin_classic.o
 .data          0x00000000        0x0 build/pic32mz_ef_sk_meb2/production/_ext/1907747181/libaria_widget_radiobutton_skin_classic.o
 .bss           0x00000000        0x0 build/pic32mz_ef_sk_meb2/production/_ext/1907747181/libaria_widget_radiobutton_skin_classic.o
 .reginfo       0x00000000       0x18 build/pic32mz_ef_sk_meb2/production/_ext/1907747181/libaria_widget_radiobutton_skin_classic.o
 .text.drawBackground
                0x00000000       0xd4 build/pic32mz_ef_sk_meb2/production/_ext/1907747181/libaria_widget_radiobutton_skin_classic.o
 .text.waitImage
                0x00000000       0xdc build/pic32mz_ef_sk_meb2/production/_ext/1907747181/libaria_widget_radiobutton_skin_classic.o
 .text.waitString
                0x00000000       0xa8 build/pic32mz_ef_sk_meb2/production/_ext/1907747181/libaria_widget_radiobutton_skin_classic.o
 .text.drawBorder
                0x00000000       0xd0 build/pic32mz_ef_sk_meb2/production/_ext/1907747181/libaria_widget_radiobutton_skin_classic.o
 .text.drawString
                0x00000000      0x1ec build/pic32mz_ef_sk_meb2/production/_ext/1907747181/libaria_widget_radiobutton_skin_classic.o
 .text.drawImage
                0x00000000      0x5f0 build/pic32mz_ef_sk_meb2/production/_ext/1907747181/libaria_widget_radiobutton_skin_classic.o
 .text._laRadioButtonWidget_GetImageRect
                0x00000000      0x14c build/pic32mz_ef_sk_meb2/production/_ext/1907747181/libaria_widget_radiobutton_skin_classic.o
 .text._laRadioButtonWidget_Paint
                0x00000000       0x4c build/pic32mz_ef_sk_meb2/production/_ext/1907747181/libaria_widget_radiobutton_skin_classic.o
 .text          0x00000000        0x0 build/pic32mz_ef_sk_meb2/production/_ext/1907747181/libaria_radiobutton_group.o
 .data          0x00000000        0x0 build/pic32mz_ef_sk_meb2/production/_ext/1907747181/libaria_radiobutton_group.o
 .bss           0x00000000        0x0 build/pic32mz_ef_sk_meb2/production/_ext/1907747181/libaria_radiobutton_group.o
 .reginfo       0x00000000       0x18 build/pic32mz_ef_sk_meb2/production/_ext/1907747181/libaria_radiobutton_group.o
 .text.laRadioButtonGroup_Create
                0x00000000       0x8c build/pic32mz_ef_sk_meb2/production/_ext/1907747181/libaria_radiobutton_group.o
 .text.laRadioButtonGroup_Destroy
                0x00000000       0x40 build/pic32mz_ef_sk_meb2/production/_ext/1907747181/libaria_radiobutton_group.o
 .text.laRadioButtonGroup_AddButton
                0x00000000       0x88 build/pic32mz_ef_sk_meb2/production/_ext/1907747181/libaria_radiobutton_group.o
 .text.laRadioButtonGroup_RemoveButton
                0x00000000       0x8c build/pic32mz_ef_sk_meb2/production/_ext/1907747181/libaria_radiobutton_group.o
 .text.laRadioButtonGroup_SelectButton
                0x00000000       0x84 build/pic32mz_ef_sk_meb2/production/_ext/1907747181/libaria_radiobutton_group.o
 .text          0x00000000        0x0 build/pic32mz_ef_sk_meb2/production/_ext/1907747181/libaria_widget_rectangle.o
 .data          0x00000000        0x0 build/pic32mz_ef_sk_meb2/production/_ext/1907747181/libaria_widget_rectangle.o
 .bss           0x00000000        0x0 build/pic32mz_ef_sk_meb2/production/_ext/1907747181/libaria_widget_rectangle.o
 .reginfo       0x00000000       0x18 build/pic32mz_ef_sk_meb2/production/_ext/1907747181/libaria_widget_rectangle.o
 .text.laRectangleWidget_GetThickness
                0x00000000       0x18 build/pic32mz_ef_sk_meb2/production/_ext/1907747181/libaria_widget_rectangle.o
 .text.laRectangleWidget_SetThickness
                0x00000000       0x44 build/pic32mz_ef_sk_meb2/production/_ext/1907747181/libaria_widget_rectangle.o
 .text          0x00000000        0x0 build/pic32mz_ef_sk_meb2/production/_ext/1907747181/libaria_widget_rectangle_skin_classic.o
 .data          0x00000000        0x0 build/pic32mz_ef_sk_meb2/production/_ext/1907747181/libaria_widget_rectangle_skin_classic.o
 .bss           0x00000000        0x0 build/pic32mz_ef_sk_meb2/production/_ext/1907747181/libaria_widget_rectangle_skin_classic.o
 .reginfo       0x00000000       0x18 build/pic32mz_ef_sk_meb2/production/_ext/1907747181/libaria_widget_rectangle_skin_classic.o
 .text          0x00000000        0x0 build/pic32mz_ef_sk_meb2/production/_ext/1907747181/libaria_widget_scrollbar.o
 .data          0x00000000        0x0 build/pic32mz_ef_sk_meb2/production/_ext/1907747181/libaria_widget_scrollbar.o
 .bss           0x00000000        0x0 build/pic32mz_ef_sk_meb2/production/_ext/1907747181/libaria_widget_scrollbar.o
 .reginfo       0x00000000       0x18 build/pic32mz_ef_sk_meb2/production/_ext/1907747181/libaria_widget_scrollbar.o
 .text._laScrollBarWidget_Update
                0x00000000        0x8 build/pic32mz_ef_sk_meb2/production/_ext/1907747181/libaria_widget_scrollbar.o
 .text._laScrollBarWidget_Destructor
                0x00000000       0x1c build/pic32mz_ef_sk_meb2/production/_ext/1907747181/libaria_widget_scrollbar.o
 .text._laScrollBar_GetUpLeftButtonRect
                0x00000000       0x30 build/pic32mz_ef_sk_meb2/production/_ext/1907747181/libaria_widget_scrollbar.o
 .text._laScrollBar_GetDownRightButtonRect
                0x00000000       0x48 build/pic32mz_ef_sk_meb2/production/_ext/1907747181/libaria_widget_scrollbar.o
 .text._laScrollBar_GetScrollAreaRect
                0x00000000       0x50 build/pic32mz_ef_sk_meb2/production/_ext/1907747181/libaria_widget_scrollbar.o
 .text._laScrollWidget_GetExtent
                0x00000000       0x1c build/pic32mz_ef_sk_meb2/production/_ext/1907747181/libaria_widget_scrollbar.o
 .text._laScrollBar_GetHandleRect
                0x00000000       0xf8 build/pic32mz_ef_sk_meb2/production/_ext/1907747181/libaria_widget_scrollbar.o
 .text._laScrollBarWidget_TouchDownEvent
                0x00000000      0x150 build/pic32mz_ef_sk_meb2/production/_ext/1907747181/libaria_widget_scrollbar.o
 .text._laScrollBar_GetPercentFromPoint
                0x00000000       0xe4 build/pic32mz_ef_sk_meb2/production/_ext/1907747181/libaria_widget_scrollbar.o
 .text._laScrollBar_GetValueFromPercent
                0x00000000       0x38 build/pic32mz_ef_sk_meb2/production/_ext/1907747181/libaria_widget_scrollbar.o
 .text._laScrollBarWidget_Constructor
                0x00000000       0xa8 build/pic32mz_ef_sk_meb2/production/_ext/1907747181/libaria_widget_scrollbar.o
 .text.laScrollBarWidget_New
                0x00000000       0x50 build/pic32mz_ef_sk_meb2/production/_ext/1907747181/libaria_widget_scrollbar.o
 .text.laScrollBarWidget_GetOrientation
                0x00000000       0x18 build/pic32mz_ef_sk_meb2/production/_ext/1907747181/libaria_widget_scrollbar.o
 .text.laScrollBarWidget_SetOrientation
                0x00000000       0x4c build/pic32mz_ef_sk_meb2/production/_ext/1907747181/libaria_widget_scrollbar.o
 .text.laScrollBarWidget_GetValueChangedEventCallback
                0x00000000       0x18 build/pic32mz_ef_sk_meb2/production/_ext/1907747181/libaria_widget_scrollbar.o
 .text.laScrollBarWidget_GetMaxinumValue
                0x00000000       0x18 build/pic32mz_ef_sk_meb2/production/_ext/1907747181/libaria_widget_scrollbar.o
 .text.laScrollBarWidget_SetMaximumValue
                0x00000000       0x44 build/pic32mz_ef_sk_meb2/production/_ext/1907747181/libaria_widget_scrollbar.o
 .text.laScrollBarWidget_GetExtentValue
                0x00000000       0x18 build/pic32mz_ef_sk_meb2/production/_ext/1907747181/libaria_widget_scrollbar.o
 .text.laScrollBarWidget_SetExtentValue
                0x00000000       0x44 build/pic32mz_ef_sk_meb2/production/_ext/1907747181/libaria_widget_scrollbar.o
 .text.laScrollBarWidget_GetScrollPercentage
                0x00000000       0x34 build/pic32mz_ef_sk_meb2/production/_ext/1907747181/libaria_widget_scrollbar.o
 .text.laScrollBarWidget_SetScrollPercentage
                0x00000000       0x5c build/pic32mz_ef_sk_meb2/production/_ext/1907747181/libaria_widget_scrollbar.o
 .text.laScrollBarWidget_GetScrollValue
                0x00000000       0x18 build/pic32mz_ef_sk_meb2/production/_ext/1907747181/libaria_widget_scrollbar.o
 .text.laScrollBarWidget_SetScrollValue
                0x00000000       0x68 build/pic32mz_ef_sk_meb2/production/_ext/1907747181/libaria_widget_scrollbar.o
 .text._laScrollBarWidget_TouchMovedEvent
                0x00000000      0x1fc build/pic32mz_ef_sk_meb2/production/_ext/1907747181/libaria_widget_scrollbar.o
 .text.laScrollBarWidget_GetStepSize
                0x00000000       0x18 build/pic32mz_ef_sk_meb2/production/_ext/1907747181/libaria_widget_scrollbar.o
 .text.laScrollBarWidget_SetStepSize
                0x00000000       0x1c build/pic32mz_ef_sk_meb2/production/_ext/1907747181/libaria_widget_scrollbar.o
 .text.laScrollBarWidget_StepBackward
                0x00000000       0x70 build/pic32mz_ef_sk_meb2/production/_ext/1907747181/libaria_widget_scrollbar.o
 .text.laScrollBarWidget_StepForward
                0x00000000       0x70 build/pic32mz_ef_sk_meb2/production/_ext/1907747181/libaria_widget_scrollbar.o
 .text._laScrollBarWidget_TouchUpEvent
                0x00000000      0x11c build/pic32mz_ef_sk_meb2/production/_ext/1907747181/libaria_widget_scrollbar.o
 .text.laScrollBarWidget_SetValueChangedEventCallback
                0x00000000       0x1c build/pic32mz_ef_sk_meb2/production/_ext/1907747181/libaria_widget_scrollbar.o
 .text          0x00000000        0x0 build/pic32mz_ef_sk_meb2/production/_ext/1907747181/libaria_widget_scrollbar_skin_classic.o
 .data          0x00000000        0x0 build/pic32mz_ef_sk_meb2/production/_ext/1907747181/libaria_widget_scrollbar_skin_classic.o
 .bss           0x00000000        0x0 build/pic32mz_ef_sk_meb2/production/_ext/1907747181/libaria_widget_scrollbar_skin_classic.o
 .reginfo       0x00000000       0x18 build/pic32mz_ef_sk_meb2/production/_ext/1907747181/libaria_widget_scrollbar_skin_classic.o
 .text.drawBackground
                0x00000000       0xac build/pic32mz_ef_sk_meb2/production/_ext/1907747181/libaria_widget_scrollbar_skin_classic.o
 .text.drawUpButton
                0x00000000      0x29c build/pic32mz_ef_sk_meb2/production/_ext/1907747181/libaria_widget_scrollbar_skin_classic.o
 .text.drawDownButton
                0x00000000      0x29c build/pic32mz_ef_sk_meb2/production/_ext/1907747181/libaria_widget_scrollbar_skin_classic.o
 .text.drawHandle
                0x00000000       0xdc build/pic32mz_ef_sk_meb2/production/_ext/1907747181/libaria_widget_scrollbar_skin_classic.o
 .text._laScrollBarWidget_Paint
                0x00000000       0x4c build/pic32mz_ef_sk_meb2/production/_ext/1907747181/libaria_widget_scrollbar_skin_classic.o
 .text          0x00000000        0x0 build/pic32mz_ef_sk_meb2/production/_ext/1907747181/libaria_widget_slider.o
 .data          0x00000000        0x0 build/pic32mz_ef_sk_meb2/production/_ext/1907747181/libaria_widget_slider.o
 .bss           0x00000000        0x0 build/pic32mz_ef_sk_meb2/production/_ext/1907747181/libaria_widget_slider.o
 .reginfo       0x00000000       0x18 build/pic32mz_ef_sk_meb2/production/_ext/1907747181/libaria_widget_slider.o
 .text._laSliderWidget_Update
                0x00000000        0x8 build/pic32mz_ef_sk_meb2/production/_ext/1907747181/libaria_widget_slider.o
 .text._laSliderWidget_TouchUpEvent
                0x00000000       0x10 build/pic32mz_ef_sk_meb2/production/_ext/1907747181/libaria_widget_slider.o
 .text._laSliderWidget_Destructor
                0x00000000       0x1c build/pic32mz_ef_sk_meb2/production/_ext/1907747181/libaria_widget_slider.o
 .text._laSlider_GetSlideAreaRect
                0x00000000       0xa0 build/pic32mz_ef_sk_meb2/production/_ext/1907747181/libaria_widget_slider.o
 .text._laSlider_GetHandleRect
                0x00000000       0xe0 build/pic32mz_ef_sk_meb2/production/_ext/1907747181/libaria_widget_slider.o
 .text._laSlider_GetPercentFromPoint
                0x00000000       0xcc build/pic32mz_ef_sk_meb2/production/_ext/1907747181/libaria_widget_slider.o
 .text._laSlider_GetValueFromPercent
                0x00000000       0x54 build/pic32mz_ef_sk_meb2/production/_ext/1907747181/libaria_widget_slider.o
 .text._laSliderWidget_TouchDownEvent
                0x00000000      0x11c build/pic32mz_ef_sk_meb2/production/_ext/1907747181/libaria_widget_slider.o
 .text._laSliderWidget_TouchMovedEvent
                0x00000000       0x98 build/pic32mz_ef_sk_meb2/production/_ext/1907747181/libaria_widget_slider.o
 .text._laSliderWidget_Constructor
                0x00000000       0xac build/pic32mz_ef_sk_meb2/production/_ext/1907747181/libaria_widget_slider.o
 .text.laSliderWidget_New
                0x00000000       0x50 build/pic32mz_ef_sk_meb2/production/_ext/1907747181/libaria_widget_slider.o
 .text.laSliderWidget_GetOrientation
                0x00000000       0x18 build/pic32mz_ef_sk_meb2/production/_ext/1907747181/libaria_widget_slider.o
 .text.laSliderWidget_SetOrientation
                0x00000000       0x64 build/pic32mz_ef_sk_meb2/production/_ext/1907747181/libaria_widget_slider.o
 .text.laSliderWidget_GetGripSize
                0x00000000       0x18 build/pic32mz_ef_sk_meb2/production/_ext/1907747181/libaria_widget_slider.o
 .text.laSliderWidget_SetGripSize
                0x00000000       0x44 build/pic32mz_ef_sk_meb2/production/_ext/1907747181/libaria_widget_slider.o
 .text.laSliderWidget_GetMininumValue
                0x00000000       0x18 build/pic32mz_ef_sk_meb2/production/_ext/1907747181/libaria_widget_slider.o
 .text.laSliderWidget_SetMinimumValue
                0x00000000       0x58 build/pic32mz_ef_sk_meb2/production/_ext/1907747181/libaria_widget_slider.o
 .text.laSliderWidget_GetMaxinumValue
                0x00000000       0x18 build/pic32mz_ef_sk_meb2/production/_ext/1907747181/libaria_widget_slider.o
 .text.laSliderWidget_SetMaximumValue
                0x00000000       0x58 build/pic32mz_ef_sk_meb2/production/_ext/1907747181/libaria_widget_slider.o
 .text.laSliderWidget_GetSliderPercentage
                0x00000000       0x3c build/pic32mz_ef_sk_meb2/production/_ext/1907747181/libaria_widget_slider.o
 .text.laSliderWidget_SetSliderPercentage
                0x00000000       0x58 build/pic32mz_ef_sk_meb2/production/_ext/1907747181/libaria_widget_slider.o
 .text.laSliderWidget_GetSliderValue
                0x00000000       0x18 build/pic32mz_ef_sk_meb2/production/_ext/1907747181/libaria_widget_slider.o
 .text.laSliderWidget_SetSliderValue
                0x00000000       0x70 build/pic32mz_ef_sk_meb2/production/_ext/1907747181/libaria_widget_slider.o
 .text.laSliderWidget_Step
                0x00000000       0x94 build/pic32mz_ef_sk_meb2/production/_ext/1907747181/libaria_widget_slider.o
 .text.laSliderWidget_GetValueChangedEventCallback
                0x00000000       0x18 build/pic32mz_ef_sk_meb2/production/_ext/1907747181/libaria_widget_slider.o
 .text.laSliderWidget_SetValueChangedEventCallback
                0x00000000       0x1c build/pic32mz_ef_sk_meb2/production/_ext/1907747181/libaria_widget_slider.o
 .text          0x00000000        0x0 build/pic32mz_ef_sk_meb2/production/_ext/1907747181/libaria_widget_slider_skin_classic.o
 .data          0x00000000        0x0 build/pic32mz_ef_sk_meb2/production/_ext/1907747181/libaria_widget_slider_skin_classic.o
 .bss           0x00000000        0x0 build/pic32mz_ef_sk_meb2/production/_ext/1907747181/libaria_widget_slider_skin_classic.o
 .reginfo       0x00000000       0x18 build/pic32mz_ef_sk_meb2/production/_ext/1907747181/libaria_widget_slider_skin_classic.o
 .text.drawBackground
                0x00000000       0xcc build/pic32mz_ef_sk_meb2/production/_ext/1907747181/libaria_widget_slider_skin_classic.o
 .text.drawBar  0x00000000      0x10c build/pic32mz_ef_sk_meb2/production/_ext/1907747181/libaria_widget_slider_skin_classic.o
 .text.drawHandle
                0x00000000       0xdc build/pic32mz_ef_sk_meb2/production/_ext/1907747181/libaria_widget_slider_skin_classic.o
 .text._laSliderWidget_Paint
                0x00000000       0x4c build/pic32mz_ef_sk_meb2/production/_ext/1907747181/libaria_widget_slider_skin_classic.o
 .text          0x00000000        0x0 build/pic32mz_ef_sk_meb2/production/_ext/1907747181/libaria_widget_textfield.o
 .data          0x00000000        0x0 build/pic32mz_ef_sk_meb2/production/_ext/1907747181/libaria_widget_textfield.o
 .bss           0x00000000        0x0 build/pic32mz_ef_sk_meb2/production/_ext/1907747181/libaria_widget_textfield.o
 .reginfo       0x00000000       0x18 build/pic32mz_ef_sk_meb2/production/_ext/1907747181/libaria_widget_textfield.o
 .text._laTextFieldWidget_FocusLost
                0x00000000        0x8 build/pic32mz_ef_sk_meb2/production/_ext/1907747181/libaria_widget_textfield.o
 .text._laTextFieldWidget_TouchUpEvent
                0x00000000        0xc build/pic32mz_ef_sk_meb2/production/_ext/1907747181/libaria_widget_textfield.o
 .text._laTextFieldWidget_TouchMovedEvent
                0x00000000        0xc build/pic32mz_ef_sk_meb2/production/_ext/1907747181/libaria_widget_textfield.o
 .text._laTextFieldWidget_Destructor
                0x00000000       0x54 build/pic32mz_ef_sk_meb2/production/_ext/1907747181/libaria_widget_textfield.o
 .text._laTextFieldWidget_Update
                0x00000000       0x6c build/pic32mz_ef_sk_meb2/production/_ext/1907747181/libaria_widget_textfield.o
 .text.laTextFieldWidget_StartEdit
                0x00000000       0x28 build/pic32mz_ef_sk_meb2/production/_ext/1907747181/libaria_widget_textfield.o
 .text.laTextFieldWidget_EndEdit
                0x00000000       0x20 build/pic32mz_ef_sk_meb2/production/_ext/1907747181/libaria_widget_textfield.o
 .text._laTextFieldWidget_FocusGained
                0x00000000       0x1c build/pic32mz_ef_sk_meb2/production/_ext/1907747181/libaria_widget_textfield.o
 .text.laTextFieldWidget_Accept
                0x00000000       0x1c build/pic32mz_ef_sk_meb2/production/_ext/1907747181/libaria_widget_textfield.o
 .text.laTextFieldWidget_Clear
                0x00000000       0x30 build/pic32mz_ef_sk_meb2/production/_ext/1907747181/libaria_widget_textfield.o
 .text.laTextFieldWidget_Set
                0x00000000       0x48 build/pic32mz_ef_sk_meb2/production/_ext/1907747181/libaria_widget_textfield.o
 .text.laTextFieldWidget_Append
                0x00000000       0x74 build/pic32mz_ef_sk_meb2/production/_ext/1907747181/libaria_widget_textfield.o
 .text.laTextFieldWidget_Backspace
                0x00000000       0x40 build/pic32mz_ef_sk_meb2/production/_ext/1907747181/libaria_widget_textfield.o
 .text._laTextFieldWidget_Constructor
                0x00000000      0x118 build/pic32mz_ef_sk_meb2/production/_ext/1907747181/libaria_widget_textfield.o
 .text.laTextFieldWidget_New
                0x00000000       0x50 build/pic32mz_ef_sk_meb2/production/_ext/1907747181/libaria_widget_textfield.o
 .text.laTextFieldWidget_GetAlignment
                0x00000000       0x18 build/pic32mz_ef_sk_meb2/production/_ext/1907747181/libaria_widget_textfield.o
 .text.laTextFieldWidget_SetAlignment
                0x00000000       0x34 build/pic32mz_ef_sk_meb2/production/_ext/1907747181/libaria_widget_textfield.o
 .text.laTextFieldWidget_GetCursorDelay
                0x00000000       0x18 build/pic32mz_ef_sk_meb2/production/_ext/1907747181/libaria_widget_textfield.o
 .text.laTextFieldWidget_SetCursorDelay
                0x00000000       0x50 build/pic32mz_ef_sk_meb2/production/_ext/1907747181/libaria_widget_textfield.o
 .text.laTextFieldWidget_GetCursorEnabled
                0x00000000       0x18 build/pic32mz_ef_sk_meb2/production/_ext/1907747181/libaria_widget_textfield.o
 .text.laTextFieldWidget_SetCursorEnabled
                0x00000000       0x48 build/pic32mz_ef_sk_meb2/production/_ext/1907747181/libaria_widget_textfield.o
 .text.laTextFieldWidget_GetCursorPosition
                0x00000000       0x18 build/pic32mz_ef_sk_meb2/production/_ext/1907747181/libaria_widget_textfield.o
 .text.laTextFieldWidget_SetCursorPosition
                0x00000000       0x44 build/pic32mz_ef_sk_meb2/production/_ext/1907747181/libaria_widget_textfield.o
 .text._laTextFieldWidget_TouchDownEvent
                0x00000000      0x100 build/pic32mz_ef_sk_meb2/production/_ext/1907747181/libaria_widget_textfield.o
 .text.laTextFieldWidget_GetText
                0x00000000       0x2c build/pic32mz_ef_sk_meb2/production/_ext/1907747181/libaria_widget_textfield.o
 .text.laTextFieldWidget_SetText
                0x00000000       0x6c build/pic32mz_ef_sk_meb2/production/_ext/1907747181/libaria_widget_textfield.o
 .text.laTextFieldWidget_GetTextChangedEventCallback
                0x00000000       0x18 build/pic32mz_ef_sk_meb2/production/_ext/1907747181/libaria_widget_textfield.o
 .text.laTextFieldWidget_SetTextChangedEventCallback
                0x00000000       0x1c build/pic32mz_ef_sk_meb2/production/_ext/1907747181/libaria_widget_textfield.o
 .rodata        0x00000000       0x10 build/pic32mz_ef_sk_meb2/production/_ext/1907747181/libaria_widget_textfield.o
 .text          0x00000000        0x0 build/pic32mz_ef_sk_meb2/production/_ext/1907747181/libaria_widget_textfield_skin_classic.o
 .data          0x00000000        0x0 build/pic32mz_ef_sk_meb2/production/_ext/1907747181/libaria_widget_textfield_skin_classic.o
 .bss           0x00000000        0x0 build/pic32mz_ef_sk_meb2/production/_ext/1907747181/libaria_widget_textfield_skin_classic.o
 .reginfo       0x00000000       0x18 build/pic32mz_ef_sk_meb2/production/_ext/1907747181/libaria_widget_textfield_skin_classic.o
 .text.drawBackground
                0x00000000      0x154 build/pic32mz_ef_sk_meb2/production/_ext/1907747181/libaria_widget_textfield_skin_classic.o
 .text.waitString
                0x00000000       0xdc build/pic32mz_ef_sk_meb2/production/_ext/1907747181/libaria_widget_textfield_skin_classic.o
 .text.drawBorder
                0x00000000       0xd0 build/pic32mz_ef_sk_meb2/production/_ext/1907747181/libaria_widget_textfield_skin_classic.o
 .text.drawCursor
                0x00000000      0x174 build/pic32mz_ef_sk_meb2/production/_ext/1907747181/libaria_widget_textfield_skin_classic.o
 .text.drawString
                0x00000000      0x1ac build/pic32mz_ef_sk_meb2/production/_ext/1907747181/libaria_widget_textfield_skin_classic.o
 .text._laTextFieldWidget_Paint
                0x00000000       0x4c build/pic32mz_ef_sk_meb2/production/_ext/1907747181/libaria_widget_textfield_skin_classic.o
 .rodata        0x00000000       0x10 build/pic32mz_ef_sk_meb2/production/_ext/1907747181/libaria_widget_textfield_skin_classic.o
 .text          0x00000000        0x0 build/pic32mz_ef_sk_meb2/production/_ext/1907747181/libaria_widget_touchtest.o
 .data          0x00000000        0x0 build/pic32mz_ef_sk_meb2/production/_ext/1907747181/libaria_widget_touchtest.o
 .bss           0x00000000        0x0 build/pic32mz_ef_sk_meb2/production/_ext/1907747181/libaria_widget_touchtest.o
 .reginfo       0x00000000       0x18 build/pic32mz_ef_sk_meb2/production/_ext/1907747181/libaria_widget_touchtest.o
 .text._laTouchTestWidget_Destructor
                0x00000000       0x1c build/pic32mz_ef_sk_meb2/production/_ext/1907747181/libaria_widget_touchtest.o
 .text._laTouchTestWidget_Constructor
                0x00000000       0x90 build/pic32mz_ef_sk_meb2/production/_ext/1907747181/libaria_widget_touchtest.o
 .text.laTouchTestWidget_New
                0x00000000       0x58 build/pic32mz_ef_sk_meb2/production/_ext/1907747181/libaria_widget_touchtest.o
 .text.laTouchTest_AddPoint
                0x00000000       0xb4 build/pic32mz_ef_sk_meb2/production/_ext/1907747181/libaria_widget_touchtest.o
 .text._laTouchTestWidget_TouchDownEvent
                0x00000000       0x50 build/pic32mz_ef_sk_meb2/production/_ext/1907747181/libaria_widget_touchtest.o
 .text._laTouchTestWidget_TouchMovedEvent
                0x00000000       0xa4 build/pic32mz_ef_sk_meb2/production/_ext/1907747181/libaria_widget_touchtest.o
 .text.laTouchTest_ClearPoints
                0x00000000       0x3c build/pic32mz_ef_sk_meb2/production/_ext/1907747181/libaria_widget_touchtest.o
 .text._laTouchTestWidget_TouchUpEvent
                0x00000000       0x24 build/pic32mz_ef_sk_meb2/production/_ext/1907747181/libaria_widget_touchtest.o
 .text.laTouchTestWidget_GetPointAddedEventCallback
                0x00000000       0x18 build/pic32mz_ef_sk_meb2/production/_ext/1907747181/libaria_widget_touchtest.o
 .text.laTouchTestWidget_SetPointAddedEventCallback
                0x00000000       0x10 build/pic32mz_ef_sk_meb2/production/_ext/1907747181/libaria_widget_touchtest.o
 .text          0x00000000        0x0 build/pic32mz_ef_sk_meb2/production/_ext/1907747181/libaria_widget_touchtest_skin_classic.o
 .data          0x00000000        0x0 build/pic32mz_ef_sk_meb2/production/_ext/1907747181/libaria_widget_touchtest_skin_classic.o
 .bss           0x00000000        0x0 build/pic32mz_ef_sk_meb2/production/_ext/1907747181/libaria_widget_touchtest_skin_classic.o
 .reginfo       0x00000000       0x18 build/pic32mz_ef_sk_meb2/production/_ext/1907747181/libaria_widget_touchtest_skin_classic.o
 .text.drawLines
                0x00000000      0x1e4 build/pic32mz_ef_sk_meb2/production/_ext/1907747181/libaria_widget_touchtest_skin_classic.o
 .text.drawBorder
                0x00000000       0xe0 build/pic32mz_ef_sk_meb2/production/_ext/1907747181/libaria_widget_touchtest_skin_classic.o
 .text.drawBackground
                0x00000000      0x108 build/pic32mz_ef_sk_meb2/production/_ext/1907747181/libaria_widget_touchtest_skin_classic.o
 .text._laTouchTestWidget_Paint
                0x00000000       0x78 build/pic32mz_ef_sk_meb2/production/_ext/1907747181/libaria_widget_touchtest_skin_classic.o
 .text          0x00000000        0x0 build/pic32mz_ef_sk_meb2/production/_ext/1907747181/libaria_widget_window.o
 .data          0x00000000        0x0 build/pic32mz_ef_sk_meb2/production/_ext/1907747181/libaria_widget_window.o
 .bss           0x00000000        0x0 build/pic32mz_ef_sk_meb2/production/_ext/1907747181/libaria_widget_window.o
 .reginfo       0x00000000       0x18 build/pic32mz_ef_sk_meb2/production/_ext/1907747181/libaria_widget_window.o
 .text._laWindowWidget_Destructor
                0x00000000       0x54 build/pic32mz_ef_sk_meb2/production/_ext/1907747181/libaria_widget_window.o
 .text._laWindowWidget_Constructor
                0x00000000       0x68 build/pic32mz_ef_sk_meb2/production/_ext/1907747181/libaria_widget_window.o
 .text.laWindowWidget_New
                0x00000000       0x50 build/pic32mz_ef_sk_meb2/production/_ext/1907747181/libaria_widget_window.o
 .text.laWindowWidget_GetTitle
                0x00000000       0x2c build/pic32mz_ef_sk_meb2/production/_ext/1907747181/libaria_widget_window.o
 .text.laWindowWidget_SetTitle
                0x00000000       0x64 build/pic32mz_ef_sk_meb2/production/_ext/1907747181/libaria_widget_window.o
 .text.laWindowWidget_GetIcon
                0x00000000       0x18 build/pic32mz_ef_sk_meb2/production/_ext/1907747181/libaria_widget_window.o
 .text.laWindowWidget_SetIcon
                0x00000000       0x48 build/pic32mz_ef_sk_meb2/production/_ext/1907747181/libaria_widget_window.o
 .text.laWindowWidget_GetIconMargin
                0x00000000       0x18 build/pic32mz_ef_sk_meb2/production/_ext/1907747181/libaria_widget_window.o
 .text.laWindowWidget_SetIconMargin
                0x00000000       0x44 build/pic32mz_ef_sk_meb2/production/_ext/1907747181/libaria_widget_window.o
 .text          0x00000000        0x0 build/pic32mz_ef_sk_meb2/production/_ext/1907747181/libaria_widget_window_skin_classic.o
 .data          0x00000000        0x0 build/pic32mz_ef_sk_meb2/production/_ext/1907747181/libaria_widget_window_skin_classic.o
 .bss           0x00000000        0x0 build/pic32mz_ef_sk_meb2/production/_ext/1907747181/libaria_widget_window_skin_classic.o
 .reginfo       0x00000000       0x18 build/pic32mz_ef_sk_meb2/production/_ext/1907747181/libaria_widget_window_skin_classic.o
 .text.drawBackground
                0x00000000       0xc8 build/pic32mz_ef_sk_meb2/production/_ext/1907747181/libaria_widget_window_skin_classic.o
 .text.waitString
                0x00000000       0xa8 build/pic32mz_ef_sk_meb2/production/_ext/1907747181/libaria_widget_window_skin_classic.o
 .text.waitIcon
                0x00000000       0xdc build/pic32mz_ef_sk_meb2/production/_ext/1907747181/libaria_widget_window_skin_classic.o
 .text.drawTitleBar
                0x00000000      0x17c build/pic32mz_ef_sk_meb2/production/_ext/1907747181/libaria_widget_window_skin_classic.o
 .text.drawBorder
                0x00000000       0xe8 build/pic32mz_ef_sk_meb2/production/_ext/1907747181/libaria_widget_window_skin_classic.o
 .text.drawString
                0x00000000      0x1ec build/pic32mz_ef_sk_meb2/production/_ext/1907747181/libaria_widget_window_skin_classic.o
 .text.drawIcon
                0x00000000      0x25c build/pic32mz_ef_sk_meb2/production/_ext/1907747181/libaria_widget_window_skin_classic.o
 .text._laWindowWidget_Paint
                0x00000000       0x4c build/pic32mz_ef_sk_meb2/production/_ext/1907747181/libaria_widget_window_skin_classic.o
 .rodata        0x00000000       0x10 build/pic32mz_ef_sk_meb2/production/_ext/1907747181/libaria_widget_window_skin_classic.o
 .text          0x00000000        0x0 build/pic32mz_ef_sk_meb2/production/_ext/1847583374/gfx.o
 .data          0x00000000        0x0 build/pic32mz_ef_sk_meb2/production/_ext/1847583374/gfx.o
 .bss           0x00000000        0x0 build/pic32mz_ef_sk_meb2/production/_ext/1847583374/gfx.o
 .reginfo       0x00000000       0x18 build/pic32mz_ef_sk_meb2/production/_ext/1847583374/gfx.o
 .text.GFX_DrawCircle
                0x00000000       0xcc build/pic32mz_ef_sk_meb2/production/_ext/1847583374/gfx.o
 .text.GFX_HandleInterrupt
                0x00000000       0x40 build/pic32mz_ef_sk_meb2/production/_ext/1847583374/gfx.o
 .text          0x00000000        0x0 build/pic32mz_ef_sk_meb2/production/_ext/1847583374/gfx_color.o
 .bss           0x00000000        0x0 build/pic32mz_ef_sk_meb2/production/_ext/1847583374/gfx_color.o
 .reginfo       0x00000000       0x18 build/pic32mz_ef_sk_meb2/production/_ext/1847583374/gfx_color.o
 .text.GFX_ColorChannelRed
                0x00000000       0x24 build/pic32mz_ef_sk_meb2/production/_ext/1847583374/gfx_color.o
 .text.GFX_ColorChannelGreen
                0x00000000       0x24 build/pic32mz_ef_sk_meb2/production/_ext/1847583374/gfx_color.o
 .text.GFX_ColorChannelBlue
                0x00000000       0x24 build/pic32mz_ef_sk_meb2/production/_ext/1847583374/gfx_color.o
 .text.GFX_ColorChannelAlpha
                0x00000000       0x40 build/pic32mz_ef_sk_meb2/production/_ext/1847583374/gfx_color.o
 .text          0x00000000        0x0 build/pic32mz_ef_sk_meb2/production/_ext/1847583374/gfx_context.o
 .data          0x00000000        0x0 build/pic32mz_ef_sk_meb2/production/_ext/1847583374/gfx_context.o
 .bss           0x00000000        0x0 build/pic32mz_ef_sk_meb2/production/_ext/1847583374/gfx_context.o
 .reginfo       0x00000000       0x18 build/pic32mz_ef_sk_meb2/production/_ext/1847583374/gfx_context.o
 .text          0x00000000        0x0 build/pic32mz_ef_sk_meb2/production/_ext/1847583374/gfx_default_impl.o
 .data          0x00000000        0x0 build/pic32mz_ef_sk_meb2/production/_ext/1847583374/gfx_default_impl.o
 .bss           0x00000000        0x0 build/pic32mz_ef_sk_meb2/production/_ext/1847583374/gfx_default_impl.o
 .reginfo       0x00000000       0x18 build/pic32mz_ef_sk_meb2/production/_ext/1847583374/gfx_default_impl.o
 .text.defUnsupported
                0x00000000        0x8 build/pic32mz_ef_sk_meb2/production/_ext/1847583374/gfx_default_impl.o
 .text.defSwap  0x00000000       0xb8 build/pic32mz_ef_sk_meb2/production/_ext/1847583374/gfx_default_impl.o
 .text          0x00000000        0x0 build/pic32mz_ef_sk_meb2/production/_ext/1847583374/gfx_display.o
 .data          0x00000000        0x0 build/pic32mz_ef_sk_meb2/production/_ext/1847583374/gfx_display.o
 .bss           0x00000000        0x0 build/pic32mz_ef_sk_meb2/production/_ext/1847583374/gfx_display.o
 .reginfo       0x00000000       0x18 build/pic32mz_ef_sk_meb2/production/_ext/1847583374/gfx_display.o
 .text          0x00000000        0x0 build/pic32mz_ef_sk_meb2/production/_ext/1847583374/gfx_driver_interface.o
 .data          0x00000000        0x0 build/pic32mz_ef_sk_meb2/production/_ext/1847583374/gfx_driver_interface.o
 .bss           0x00000000        0x0 build/pic32mz_ef_sk_meb2/production/_ext/1847583374/gfx_driver_interface.o
 .reginfo       0x00000000       0x18 build/pic32mz_ef_sk_meb2/production/_ext/1847583374/gfx_driver_interface.o
 .text          0x00000000        0x0 build/pic32mz_ef_sk_meb2/production/_ext/1847583374/gfx_get.o
 .data          0x00000000        0x0 build/pic32mz_ef_sk_meb2/production/_ext/1847583374/gfx_get.o
 .bss           0x00000000        0x0 build/pic32mz_ef_sk_meb2/production/_ext/1847583374/gfx_get.o
 .reginfo       0x00000000       0x18 build/pic32mz_ef_sk_meb2/production/_ext/1847583374/gfx_get.o
 .text.get_drawAntialias
                0x00000000       0x38 build/pic32mz_ef_sk_meb2/production/_ext/1847583374/gfx_get.o
 .text          0x00000000        0x0 build/pic32mz_ef_sk_meb2/production/_ext/1847583374/gfx_interface.o
 .bss           0x00000000        0x0 build/pic32mz_ef_sk_meb2/production/_ext/1847583374/gfx_interface.o
 .reginfo       0x00000000       0x18 build/pic32mz_ef_sk_meb2/production/_ext/1847583374/gfx_interface.o
 .text          0x00000000        0x0 build/pic32mz_ef_sk_meb2/production/_ext/1847583374/gfx_layer.o
 .data          0x00000000        0x0 build/pic32mz_ef_sk_meb2/production/_ext/1847583374/gfx_layer.o
 .bss           0x00000000        0x0 build/pic32mz_ef_sk_meb2/production/_ext/1847583374/gfx_layer.o
 .reginfo       0x00000000       0x18 build/pic32mz_ef_sk_meb2/production/_ext/1847583374/gfx_layer.o
 .text.GFX_LayerReadBuffer
                0x00000000       0x1c build/pic32mz_ef_sk_meb2/production/_ext/1847583374/gfx_layer.o
 .text.GFX_LayerWriteBuffer
                0x00000000       0x1c build/pic32mz_ef_sk_meb2/production/_ext/1847583374/gfx_layer.o
 .text.GFX_LayerRotate
                0x00000000       0x24 build/pic32mz_ef_sk_meb2/production/_ext/1847583374/gfx_layer.o
 .text          0x00000000        0x0 build/pic32mz_ef_sk_meb2/production/_ext/1847583374/gfx_pixel_buffer.o
 .bss           0x00000000        0x0 build/pic32mz_ef_sk_meb2/production/_ext/1847583374/gfx_pixel_buffer.o
 .reginfo       0x00000000       0x18 build/pic32mz_ef_sk_meb2/production/_ext/1847583374/gfx_pixel_buffer.o
 .text.GFX_PixelBufferCopy
                0x00000000       0xa8 build/pic32mz_ef_sk_meb2/production/_ext/1847583374/gfx_pixel_buffer.o
 .text.GFX_PixelBufferAreaGet_Unsafe
                0x00000000       0xd4 build/pic32mz_ef_sk_meb2/production/_ext/1847583374/gfx_pixel_buffer.o
 .text.GFX_PixelBufferAreaGet
                0x00000000       0xbc build/pic32mz_ef_sk_meb2/production/_ext/1847583374/gfx_pixel_buffer.o
 .text.GFX_PixelBufferConvert
                0x00000000      0x140 build/pic32mz_ef_sk_meb2/production/_ext/1847583374/gfx_pixel_buffer.o
 .text.GFX_PixelBufferAreaSet_Unsafe
                0x00000000      0x1a4 build/pic32mz_ef_sk_meb2/production/_ext/1847583374/gfx_pixel_buffer.o
 .text.GFX_PixelBufferAreaSet
                0x00000000      0x144 build/pic32mz_ef_sk_meb2/production/_ext/1847583374/gfx_pixel_buffer.o
 .text.GFX_PixelBufferAreaFill_Unsafe
                0x00000000       0xb4 build/pic32mz_ef_sk_meb2/production/_ext/1847583374/gfx_pixel_buffer.o
 .text.GFX_PixelBufferAreaFill
                0x00000000       0x70 build/pic32mz_ef_sk_meb2/production/_ext/1847583374/gfx_pixel_buffer.o
 .text          0x00000000        0x0 build/pic32mz_ef_sk_meb2/production/_ext/1847583374/gfx_rect.o
 .data          0x00000000        0x0 build/pic32mz_ef_sk_meb2/production/_ext/1847583374/gfx_rect.o
 .bss           0x00000000        0x0 build/pic32mz_ef_sk_meb2/production/_ext/1847583374/gfx_rect.o
 .reginfo       0x00000000       0x18 build/pic32mz_ef_sk_meb2/production/_ext/1847583374/gfx_rect.o
 .text          0x00000000        0x0 build/pic32mz_ef_sk_meb2/production/_ext/1847583374/gfx_util.o
 .bss           0x00000000        0x0 build/pic32mz_ef_sk_meb2/production/_ext/1847583374/gfx_util.o
 .reginfo       0x00000000       0x18 build/pic32mz_ef_sk_meb2/production/_ext/1847583374/gfx_util.o
 .text          0x00000000        0x0 build/pic32mz_ef_sk_meb2/production/_ext/1847583374/gfx_set.o
 .data          0x00000000        0x0 build/pic32mz_ef_sk_meb2/production/_ext/1847583374/gfx_set.o
 .bss           0x00000000        0x0 build/pic32mz_ef_sk_meb2/production/_ext/1847583374/gfx_set.o
 .reginfo       0x00000000       0x18 build/pic32mz_ef_sk_meb2/production/_ext/1847583374/gfx_set.o
 .text.set_drawAntialias
                0x00000000       0x30 build/pic32mz_ef_sk_meb2/production/_ext/1847583374/gfx_set.o
 .text          0x00000000        0x0 build/pic32mz_ef_sk_meb2/production/_ext/1847583374/gfx_color_blend.o
 .bss           0x00000000        0x0 build/pic32mz_ef_sk_meb2/production/_ext/1847583374/gfx_color_blend.o
 .reginfo       0x00000000       0x18 build/pic32mz_ef_sk_meb2/production/_ext/1847583374/gfx_color_blend.o
 .text          0x00000000        0x0 build/pic32mz_ef_sk_meb2/production/_ext/1847583374/gfx_color_convert.o
 .bss           0x00000000        0x0 build/pic32mz_ef_sk_meb2/production/_ext/1847583374/gfx_color_convert.o
 .reginfo       0x00000000       0x18 build/pic32mz_ef_sk_meb2/production/_ext/1847583374/gfx_color_convert.o
 .text          0x00000000        0x0 build/pic32mz_ef_sk_meb2/production/_ext/1847583374/gfx_color_lerp.o
 .bss           0x00000000        0x0 build/pic32mz_ef_sk_meb2/production/_ext/1847583374/gfx_color_lerp.o
 .reginfo       0x00000000       0x18 build/pic32mz_ef_sk_meb2/production/_ext/1847583374/gfx_color_lerp.o
 .text          0x00000000        0x0 build/pic32mz_ef_sk_meb2/production/_ext/1847583374/gfx_color_value.o
 .data          0x00000000        0x0 build/pic32mz_ef_sk_meb2/production/_ext/1847583374/gfx_color_value.o
 .bss           0x00000000        0x0 build/pic32mz_ef_sk_meb2/production/_ext/1847583374/gfx_color_value.o
 .reginfo       0x00000000       0x18 build/pic32mz_ef_sk_meb2/production/_ext/1847583374/gfx_color_value.o
 .text.GFX_ColorValue
                0x00000000       0x44 build/pic32mz_ef_sk_meb2/production/_ext/1847583374/gfx_color_value.o
 .rodata        0x00000000       0x48 build/pic32mz_ef_sk_meb2/production/_ext/1847583374/gfx_color_value.o
 .text          0x00000000        0x0 build/pic32mz_ef_sk_meb2/production/_ext/1847583374/gfx_draw_blit.o
 .data          0x00000000        0x0 build/pic32mz_ef_sk_meb2/production/_ext/1847583374/gfx_draw_blit.o
 .bss           0x00000000        0x0 build/pic32mz_ef_sk_meb2/production/_ext/1847583374/gfx_draw_blit.o
 .reginfo       0x00000000       0x18 build/pic32mz_ef_sk_meb2/production/_ext/1847583374/gfx_draw_blit.o
 .text          0x00000000        0x0 build/pic32mz_ef_sk_meb2/production/_ext/1847583374/gfx_draw_circle.o
 .data          0x00000000        0x0 build/pic32mz_ef_sk_meb2/production/_ext/1847583374/gfx_draw_circle.o
 .bss           0x00000000        0x0 build/pic32mz_ef_sk_meb2/production/_ext/1847583374/gfx_draw_circle.o
 .reginfo       0x00000000       0x18 build/pic32mz_ef_sk_meb2/production/_ext/1847583374/gfx_draw_circle.o
 .text          0x00000000        0x0 build/pic32mz_ef_sk_meb2/production/_ext/1847583374/gfx_draw_line.o
 .data          0x00000000        0x0 build/pic32mz_ef_sk_meb2/production/_ext/1847583374/gfx_draw_line.o
 .bss           0x00000000        0x0 build/pic32mz_ef_sk_meb2/production/_ext/1847583374/gfx_draw_line.o
 .reginfo       0x00000000       0x18 build/pic32mz_ef_sk_meb2/production/_ext/1847583374/gfx_draw_line.o
 .text.cpuDrawLine_Gradient
                0x00000000        0x8 build/pic32mz_ef_sk_meb2/production/_ext/1847583374/gfx_draw_line.o
 .text.cpuDrawLine_Gradient_AA
                0x00000000        0x8 build/pic32mz_ef_sk_meb2/production/_ext/1847583374/gfx_draw_line.o
 .text          0x00000000        0x0 build/pic32mz_ef_sk_meb2/production/_ext/1847583374/gfx_draw_pixel.o
 .data          0x00000000        0x0 build/pic32mz_ef_sk_meb2/production/_ext/1847583374/gfx_draw_pixel.o
 .bss           0x00000000        0x0 build/pic32mz_ef_sk_meb2/production/_ext/1847583374/gfx_draw_pixel.o
 .reginfo       0x00000000       0x18 build/pic32mz_ef_sk_meb2/production/_ext/1847583374/gfx_draw_pixel.o
 .text          0x00000000        0x0 build/pic32mz_ef_sk_meb2/production/_ext/1847583374/gfx_draw_rect.o
 .data          0x00000000        0x0 build/pic32mz_ef_sk_meb2/production/_ext/1847583374/gfx_draw_rect.o
 .bss           0x00000000        0x0 build/pic32mz_ef_sk_meb2/production/_ext/1847583374/gfx_draw_rect.o
 .reginfo       0x00000000       0x18 build/pic32mz_ef_sk_meb2/production/_ext/1847583374/gfx_draw_rect.o
 .text.cpuDrawRect_Gradient_Quad
                0x00000000        0x8 build/pic32mz_ef_sk_meb2/production/_ext/1847583374/gfx_draw_rect.o
 .text.cpuDrawRect_Gradient_Bi_AA
                0x00000000        0x8 build/pic32mz_ef_sk_meb2/production/_ext/1847583374/gfx_draw_rect.o
 .text.cpuDrawRect_Gradient_Quad_AA
                0x00000000        0x8 build/pic32mz_ef_sk_meb2/production/_ext/1847583374/gfx_draw_rect.o
 .text          0x00000000        0x0 build/pic32mz_ef_sk_meb2/production/_ext/1847583374/gfx_math.o
 .data          0x00000000        0x0 build/pic32mz_ef_sk_meb2/production/_ext/1847583374/gfx_math.o
 .bss           0x00000000        0x0 build/pic32mz_ef_sk_meb2/production/_ext/1847583374/gfx_math.o
 .reginfo       0x00000000       0x18 build/pic32mz_ef_sk_meb2/production/_ext/1847583374/gfx_math.o
 .text.GFX_Mini
                0x00000000       0x10 build/pic32mz_ef_sk_meb2/production/_ext/1847583374/gfx_math.o
 .text.GFX_Maxi
                0x00000000       0x10 build/pic32mz_ef_sk_meb2/production/_ext/1847583374/gfx_math.o
 .text.GFX_Minf
                0x00000000       0x40 build/pic32mz_ef_sk_meb2/production/_ext/1847583374/gfx_math.o
 .text.GFX_Maxf
                0x00000000       0x44 build/pic32mz_ef_sk_meb2/production/_ext/1847583374/gfx_math.o
 .text.GFX_Clampi
                0x00000000       0x20 build/pic32mz_ef_sk_meb2/production/_ext/1847583374/gfx_math.o
 .text.GFX_Clampf
                0x00000000       0x64 build/pic32mz_ef_sk_meb2/production/_ext/1847583374/gfx_math.o
 .text.GFX_AbsoluteValue
                0x00000000       0x14 build/pic32mz_ef_sk_meb2/production/_ext/1847583374/gfx_math.o
 .text          0x00000000        0x0 build/pic32mz_ef_sk_meb2/production/_ext/853959373/sys_dma.o
 .data          0x00000000        0x0 build/pic32mz_ef_sk_meb2/production/_ext/853959373/sys_dma.o
 .bss           0x00000000        0x0 build/pic32mz_ef_sk_meb2/production/_ext/853959373/sys_dma.o
 .reginfo       0x00000000       0x18 build/pic32mz_ef_sk_meb2/production/_ext/853959373/sys_dma.o
 .text.SYS_DMA_ChannelRelease
                0x00000000      0x16c build/pic32mz_ef_sk_meb2/production/_ext/853959373/sys_dma.o
 .text.SYS_DMA_ChannelSetupMatchAbortMode
                0x00000000       0x60 build/pic32mz_ef_sk_meb2/production/_ext/853959373/sys_dma.o
 .text.SYS_DMA_ChannelCRCSet
                0x00000000       0xd4 build/pic32mz_ef_sk_meb2/production/_ext/853959373/sys_dma.o
 .text.SYS_DMA_ChannelCRCGet
                0x00000000       0x14 build/pic32mz_ef_sk_meb2/production/_ext/853959373/sys_dma.o
 .text.SYS_DMA_ChannelDisable
                0x00000000       0x38 build/pic32mz_ef_sk_meb2/production/_ext/853959373/sys_dma.o
 .text.SYS_DMA_ChannelTransferSet
                0x00000000      0x154 build/pic32mz_ef_sk_meb2/production/_ext/853959373/sys_dma.o
 .text.SYS_DMA_ChannelSourceTransferredSizeGet
                0x00000000       0x34 build/pic32mz_ef_sk_meb2/production/_ext/853959373/sys_dma.o
 .text.SYS_DMA_ChannelDestinationTransferredSizeGet
                0x00000000       0x34 build/pic32mz_ef_sk_meb2/production/_ext/853959373/sys_dma.o
 .text.SYS_DMA_ChannelTransferEventHandlerSet
                0x00000000       0x20 build/pic32mz_ef_sk_meb2/production/_ext/853959373/sys_dma.o
 .text.SYS_DMA_Tasks
                0x00000000        0x8 build/pic32mz_ef_sk_meb2/production/_ext/853959373/sys_dma.o
 .text.SYS_DMA_TasksError
                0x00000000       0xe0 build/pic32mz_ef_sk_meb2/production/_ext/853959373/sys_dma.o
 .text.SYS_DMA_TasksErrorISR
                0x00000000       0xac build/pic32mz_ef_sk_meb2/production/_ext/853959373/sys_dma.o
 .text.SYS_DMA_ChannelErrorGet
                0x00000000        0x8 build/pic32mz_ef_sk_meb2/production/_ext/853959373/sys_dma.o
 .text.SYS_DMA_ChannelForceAbort
                0x00000000       0x38 build/pic32mz_ef_sk_meb2/production/_ext/853959373/sys_dma.o
 .text.SYS_DMA_ChannelAbortEventSet
                0x00000000       0x70 build/pic32mz_ef_sk_meb2/production/_ext/853959373/sys_dma.o
 .text.SYS_DMA_ChannelIsBusy
                0x00000000       0x30 build/pic32mz_ef_sk_meb2/production/_ext/853959373/sys_dma.o
 .text.SYS_DMA_IsBusy
                0x00000000       0x10 build/pic32mz_ef_sk_meb2/production/_ext/853959373/sys_dma.o
 .text          0x00000000        0x0 build/pic32mz_ef_sk_meb2/production/_ext/1042686532/sys_int_pic32.o
 .data          0x00000000        0x0 build/pic32mz_ef_sk_meb2/production/_ext/1042686532/sys_int_pic32.o
 .bss           0x00000000        0x0 build/pic32mz_ef_sk_meb2/production/_ext/1042686532/sys_int_pic32.o
 .reginfo       0x00000000       0x18 build/pic32mz_ef_sk_meb2/production/_ext/1042686532/sys_int_pic32.o
 .text.SYS_INT_StatusGetAndDisable
                0x00000000       0x1c build/pic32mz_ef_sk_meb2/production/_ext/1042686532/sys_int_pic32.o
 .text.SYS_INT_StatusRestore
                0x00000000       0x1c build/pic32mz_ef_sk_meb2/production/_ext/1042686532/sys_int_pic32.o
 .text.SYS_INT_Disable
                0x00000000       0x20 build/pic32mz_ef_sk_meb2/production/_ext/1042686532/sys_int_pic32.o
 .text.SYS_INT_SourceDisable
                0x00000000       0x54 build/pic32mz_ef_sk_meb2/production/_ext/1042686532/sys_int_pic32.o
 .text.SYS_INT_ExternalInterruptTriggerSet
                0x00000000       0x28 build/pic32mz_ef_sk_meb2/production/_ext/1042686532/sys_int_pic32.o
 .text          0x00000000        0x0 build/pic32mz_ef_sk_meb2/production/_ext/199634090/drv_tmr_static.o
 .data          0x00000000        0x0 build/pic32mz_ef_sk_meb2/production/_ext/199634090/drv_tmr_static.o
 .reginfo       0x00000000       0x18 build/pic32mz_ef_sk_meb2/production/_ext/199634090/drv_tmr_static.o
 .text._DRV_TMR0_Suspend
                0x00000000       0x34 build/pic32mz_ef_sk_meb2/production/_ext/199634090/drv_tmr_static.o
 .text._DRV_TMR1_Suspend
                0x00000000       0x34 build/pic32mz_ef_sk_meb2/production/_ext/199634090/drv_tmr_static.o
 .text.DRV_TMR0_Stop
                0x00000000       0x30 build/pic32mz_ef_sk_meb2/production/_ext/199634090/drv_tmr_static.o
 .text.DRV_TMR0_ClientStatus
                0x00000000       0x14 build/pic32mz_ef_sk_meb2/production/_ext/199634090/drv_tmr_static.o
 .text.DRV_TMR0_CounterValueSet
                0x00000000       0x14 build/pic32mz_ef_sk_meb2/production/_ext/199634090/drv_tmr_static.o
 .text.DRV_TMR0_CounterValueGet
                0x00000000       0x14 build/pic32mz_ef_sk_meb2/production/_ext/199634090/drv_tmr_static.o
 .text.DRV_TMR0_CounterClear
                0x00000000       0x10 build/pic32mz_ef_sk_meb2/production/_ext/199634090/drv_tmr_static.o
 .text.DRV_TMR0_CounterFrequencyGet
                0x00000000       0x4c build/pic32mz_ef_sk_meb2/production/_ext/199634090/drv_tmr_static.o
 .text.DRV_TMR0_PrescalerGet
                0x00000000       0xa4 build/pic32mz_ef_sk_meb2/production/_ext/199634090/drv_tmr_static.o
 .text.DRV_TMR0_PeriodValueSet
                0x00000000       0x14 build/pic32mz_ef_sk_meb2/production/_ext/199634090/drv_tmr_static.o
 .text.DRV_TMR0_PeriodValueGet
                0x00000000       0x14 build/pic32mz_ef_sk_meb2/production/_ext/199634090/drv_tmr_static.o
 .text.DRV_TMR0_StopInIdleDisable
                0x00000000       0x14 build/pic32mz_ef_sk_meb2/production/_ext/199634090/drv_tmr_static.o
 .text.DRV_TMR0_StopInIdleEnable
                0x00000000       0x14 build/pic32mz_ef_sk_meb2/production/_ext/199634090/drv_tmr_static.o
 .text.DRV_TMR0_ClockSet
                0x00000000       0xcc build/pic32mz_ef_sk_meb2/production/_ext/199634090/drv_tmr_static.o
 .text.DRV_TMR0_AlarmPeriodSet
                0x00000000       0x64 build/pic32mz_ef_sk_meb2/production/_ext/199634090/drv_tmr_static.o
 .text.DRV_TMR0_AlarmPeriodGet
                0x00000000       0x14 build/pic32mz_ef_sk_meb2/production/_ext/199634090/drv_tmr_static.o
 .text.DRV_TMR0_AlarmDeregister
                0x00000000       0x14 build/pic32mz_ef_sk_meb2/production/_ext/199634090/drv_tmr_static.o
 .text.DRV_TMR0_AlarmHasElapsed
                0x00000000       0x14 build/pic32mz_ef_sk_meb2/production/_ext/199634090/drv_tmr_static.o
 .text.DRV_TMR1_Stop
                0x00000000       0x30 build/pic32mz_ef_sk_meb2/production/_ext/199634090/drv_tmr_static.o
 .text.DRV_TMR1_ClientStatus
                0x00000000       0x14 build/pic32mz_ef_sk_meb2/production/_ext/199634090/drv_tmr_static.o
 .text.DRV_TMR1_CounterValueSet
                0x00000000       0x14 build/pic32mz_ef_sk_meb2/production/_ext/199634090/drv_tmr_static.o
 .text.DRV_TMR1_CounterValueGet
                0x00000000       0x14 build/pic32mz_ef_sk_meb2/production/_ext/199634090/drv_tmr_static.o
 .text.DRV_TMR1_CounterClear
                0x00000000       0x10 build/pic32mz_ef_sk_meb2/production/_ext/199634090/drv_tmr_static.o
 .text.DRV_TMR1_CounterFrequencyGet
                0x00000000       0x4c build/pic32mz_ef_sk_meb2/production/_ext/199634090/drv_tmr_static.o
 .text.DRV_TMR1_PrescalerGet
                0x00000000       0xa4 build/pic32mz_ef_sk_meb2/production/_ext/199634090/drv_tmr_static.o
 .text.DRV_TMR1_PeriodValueSet
                0x00000000       0x14 build/pic32mz_ef_sk_meb2/production/_ext/199634090/drv_tmr_static.o
 .text.DRV_TMR1_PeriodValueGet
                0x00000000       0x14 build/pic32mz_ef_sk_meb2/production/_ext/199634090/drv_tmr_static.o
 .text.DRV_TMR1_StopInIdleDisable
                0x00000000       0x14 build/pic32mz_ef_sk_meb2/production/_ext/199634090/drv_tmr_static.o
 .text.DRV_TMR1_StopInIdleEnable
                0x00000000       0x14 build/pic32mz_ef_sk_meb2/production/_ext/199634090/drv_tmr_static.o
 .text.DRV_TMR1_ClockSet
                0x00000000       0xcc build/pic32mz_ef_sk_meb2/production/_ext/199634090/drv_tmr_static.o
 .text.DRV_TMR1_AlarmPeriodSet
                0x00000000       0x64 build/pic32mz_ef_sk_meb2/production/_ext/199634090/drv_tmr_static.o
 .text.DRV_TMR1_AlarmPeriodGet
                0x00000000       0x14 build/pic32mz_ef_sk_meb2/production/_ext/199634090/drv_tmr_static.o
 .text.DRV_TMR1_AlarmDeregister
                0x00000000       0x14 build/pic32mz_ef_sk_meb2/production/_ext/199634090/drv_tmr_static.o
 .text.DRV_TMR1_AlarmHasElapsed
                0x00000000       0x14 build/pic32mz_ef_sk_meb2/production/_ext/199634090/drv_tmr_static.o
 .text          0x00000000        0x0 build/pic32mz_ef_sk_meb2/production/_ext/199634090/drv_tmr_mapping.o
 .data          0x00000000        0x0 build/pic32mz_ef_sk_meb2/production/_ext/199634090/drv_tmr_mapping.o
 .bss           0x00000000        0x0 build/pic32mz_ef_sk_meb2/production/_ext/199634090/drv_tmr_mapping.o
 .reginfo       0x00000000       0x18 build/pic32mz_ef_sk_meb2/production/_ext/199634090/drv_tmr_mapping.o
 .text.DRV_TMR_Initialize
                0x00000000       0x4c build/pic32mz_ef_sk_meb2/production/_ext/199634090/drv_tmr_mapping.o
 .text.DRV_TMR_Deinitialize
                0x00000000       0x44 build/pic32mz_ef_sk_meb2/production/_ext/199634090/drv_tmr_mapping.o
 .text.DRV_TMR_Status
                0x00000000        0x8 build/pic32mz_ef_sk_meb2/production/_ext/199634090/drv_tmr_mapping.o
 .text.DRV_TMR_Tasks
                0x00000000       0x44 build/pic32mz_ef_sk_meb2/production/_ext/199634090/drv_tmr_mapping.o
 .text.DRV_TMR_Close
                0x00000000       0x44 build/pic32mz_ef_sk_meb2/production/_ext/199634090/drv_tmr_mapping.o
 .text.DRV_TMR_ClientStatus
                0x00000000       0x4c build/pic32mz_ef_sk_meb2/production/_ext/199634090/drv_tmr_mapping.o
 .text.DRV_TMR_CounterValueSet
                0x00000000       0x44 build/pic32mz_ef_sk_meb2/production/_ext/199634090/drv_tmr_mapping.o
 .text.DRV_TMR_CounterValueGet
                0x00000000       0x4c build/pic32mz_ef_sk_meb2/production/_ext/199634090/drv_tmr_mapping.o
 .text.DRV_TMR_CounterClear
                0x00000000       0x44 build/pic32mz_ef_sk_meb2/production/_ext/199634090/drv_tmr_mapping.o
 .text.DRV_TMR_AlarmDisable
                0x00000000       0x4c build/pic32mz_ef_sk_meb2/production/_ext/199634090/drv_tmr_mapping.o
 .text.DRV_TMR_AlarmPeriodSet
                0x00000000       0x44 build/pic32mz_ef_sk_meb2/production/_ext/199634090/drv_tmr_mapping.o
 .text.DRV_TMR_AlarmPeriodGet
                0x00000000       0x4c build/pic32mz_ef_sk_meb2/production/_ext/199634090/drv_tmr_mapping.o
 .text.DRV_TMR_AlarmDeregister
                0x00000000       0x44 build/pic32mz_ef_sk_meb2/production/_ext/199634090/drv_tmr_mapping.o
 .text.DRV_TMR_Stop
                0x00000000       0x44 build/pic32mz_ef_sk_meb2/production/_ext/199634090/drv_tmr_mapping.o
 .text.DRV_TMR_AlarmHasElapsed
                0x00000000       0x4c build/pic32mz_ef_sk_meb2/production/_ext/199634090/drv_tmr_mapping.o
 .text.DRV_TMR_OperationModeGet
                0x00000000        0x8 build/pic32mz_ef_sk_meb2/production/_ext/199634090/drv_tmr_mapping.o
 .text.DRV_TMR_ClockSet
                0x00000000       0x50 build/pic32mz_ef_sk_meb2/production/_ext/199634090/drv_tmr_mapping.o
 .text.DRV_TMR_PrescalerGet
                0x00000000       0x4c build/pic32mz_ef_sk_meb2/production/_ext/199634090/drv_tmr_mapping.o
 .text.DRV_TMR_GateModeSet
                0x00000000        0x8 build/pic32mz_ef_sk_meb2/production/_ext/199634090/drv_tmr_mapping.o
 .text.DRV_TMR_GateModeClear
                0x00000000        0x8 build/pic32mz_ef_sk_meb2/production/_ext/199634090/drv_tmr_mapping.o
 .text.DRV_TMR_CounterFrequencyGet
                0x00000000       0x4c build/pic32mz_ef_sk_meb2/production/_ext/199634090/drv_tmr_mapping.o
 .text.DRV_TMR_DividerRangeGet
                0x00000000       0x4c build/pic32mz_ef_sk_meb2/production/_ext/199634090/drv_tmr_mapping.o
 .text          0x00000000        0x0 build/pic32mz_ef_sk_meb2/production/_ext/713288229/drv_gfx_lcc_generic.o
 .data          0x00000000        0x0 build/pic32mz_ef_sk_meb2/production/_ext/713288229/drv_gfx_lcc_generic.o
 .bss           0x00000000        0x0 build/pic32mz_ef_sk_meb2/production/_ext/713288229/drv_gfx_lcc_generic.o
 .reginfo       0x00000000       0x18 build/pic32mz_ef_sk_meb2/production/_ext/713288229/drv_gfx_lcc_generic.o
 .text          0x00000000        0x0 build/pic32mz_ef_sk_meb2/production/_ext/1740298103/libaria_harmony.o
 .data          0x00000000        0x0 build/pic32mz_ef_sk_meb2/production/_ext/1740298103/libaria_harmony.o
 .bss           0x00000000        0x0 build/pic32mz_ef_sk_meb2/production/_ext/1740298103/libaria_harmony.o
 .reginfo       0x00000000       0x18 build/pic32mz_ef_sk_meb2/production/_ext/1740298103/libaria_harmony.o
 .text          0x00000000        0x0 build/pic32mz_ef_sk_meb2/production/_ext/1740298103/libaria_init.o
 .data          0x00000000        0x0 build/pic32mz_ef_sk_meb2/production/_ext/1740298103/libaria_init.o
 .bss           0x00000000        0x0 build/pic32mz_ef_sk_meb2/production/_ext/1740298103/libaria_init.o
 .reginfo       0x00000000       0x18 build/pic32mz_ef_sk_meb2/production/_ext/1740298103/libaria_init.o
 .text          0x00000000        0x0 build/pic32mz_ef_sk_meb2/production/_ext/1740298103/libaria_events.o
 .data          0x00000000        0x0 build/pic32mz_ef_sk_meb2/production/_ext/1740298103/libaria_events.o
 .bss           0x00000000        0x0 build/pic32mz_ef_sk_meb2/production/_ext/1740298103/libaria_events.o
 .reginfo       0x00000000       0x18 build/pic32mz_ef_sk_meb2/production/_ext/1740298103/libaria_events.o
 .text          0x00000000        0x0 build/pic32mz_ef_sk_meb2/production/_ext/1740298103/libaria_macros.o
 .data          0x00000000        0x0 build/pic32mz_ef_sk_meb2/production/_ext/1740298103/libaria_macros.o
 .bss           0x00000000        0x0 build/pic32mz_ef_sk_meb2/production/_ext/1740298103/libaria_macros.o
 .reginfo       0x00000000       0x18 build/pic32mz_ef_sk_meb2/production/_ext/1740298103/libaria_macros.o
 .text          0x00000000        0x0 build/pic32mz_ef_sk_meb2/production/_ext/477038478/gfx_display_def.o
 .bss           0x00000000        0x0 build/pic32mz_ef_sk_meb2/production/_ext/477038478/gfx_display_def.o
 .reginfo       0x00000000       0x18 build/pic32mz_ef_sk_meb2/production/_ext/477038478/gfx_display_def.o
 .text          0x00000000        0x0 build/pic32mz_ef_sk_meb2/production/_ext/477038478/gfx_driver_def.o
 .data          0x00000000        0x0 build/pic32mz_ef_sk_meb2/production/_ext/477038478/gfx_driver_def.o
 .bss           0x00000000        0x0 build/pic32mz_ef_sk_meb2/production/_ext/477038478/gfx_driver_def.o
 .reginfo       0x00000000       0x18 build/pic32mz_ef_sk_meb2/production/_ext/477038478/gfx_driver_def.o
 .text          0x00000000        0x0 build/pic32mz_ef_sk_meb2/production/_ext/1847413222/sys_clk.o
 .data          0x00000000        0x0 build/pic32mz_ef_sk_meb2/production/_ext/1847413222/sys_clk.o
 .bss           0x00000000        0x0 build/pic32mz_ef_sk_meb2/production/_ext/1847413222/sys_clk.o
 .reginfo       0x00000000       0x18 build/pic32mz_ef_sk_meb2/production/_ext/1847413222/sys_clk.o
 .text.SYS_CLK_ClockFailureCallbackRegister
                0x00000000        0xc build/pic32mz_ef_sk_meb2/production/_ext/1847413222/sys_clk.o
 .text.SYS_CLK_SystemFrequencySet
                0x00000000       0x44 build/pic32mz_ef_sk_meb2/production/_ext/1847413222/sys_clk.o
 .text.SYS_CLK_PeripheralFrequencySet
                0x00000000       0x84 build/pic32mz_ef_sk_meb2/production/_ext/1847413222/sys_clk.o
 .text.SYS_CLK_PeripheralFrequencyGet
                0x00000000       0x20 build/pic32mz_ef_sk_meb2/production/_ext/1847413222/sys_clk.o
 .text.SYS_CLK_ReferenceFrequencySet
                0x00000000       0x88 build/pic32mz_ef_sk_meb2/production/_ext/1847413222/sys_clk.o
 .text.SYS_CLK_ReferenceFrequencyGet
                0x00000000       0x1c build/pic32mz_ef_sk_meb2/production/_ext/1847413222/sys_clk.o
 .text.SYS_CLK_TaskError
                0x00000000       0x38 build/pic32mz_ef_sk_meb2/production/_ext/1847413222/sys_clk.o
 .text.SYS_CLK_ReferenceClockSetup
                0x00000000       0x1c build/pic32mz_ef_sk_meb2/production/_ext/1847413222/sys_clk.o
 .text.SYS_CLK_FRCTune
                0x00000000       0x18 build/pic32mz_ef_sk_meb2/production/_ext/1847413222/sys_clk.o
 .text.SYS_CLK_SecondaryOscillatorEnable
                0x00000000       0x48 build/pic32mz_ef_sk_meb2/production/_ext/1847413222/sys_clk.o
 .text.SYS_CLK_SecondaryOscillatorDisable
                0x00000000       0x48 build/pic32mz_ef_sk_meb2/production/_ext/1847413222/sys_clk.o
 .text.SYS_CLK_SecondaryOscillatorIsEnabled
                0x00000000       0x10 build/pic32mz_ef_sk_meb2/production/_ext/1847413222/sys_clk.o
 .text          0x00000000        0x0 build/pic32mz_ef_sk_meb2/production/_ext/1847413222/sys_clk_pic32mz.o
 .data          0x00000000        0x0 build/pic32mz_ef_sk_meb2/production/_ext/1847413222/sys_clk_pic32mz.o
 .bss           0x00000000        0x0 build/pic32mz_ef_sk_meb2/production/_ext/1847413222/sys_clk_pic32mz.o
 .reginfo       0x00000000       0x18 build/pic32mz_ef_sk_meb2/production/_ext/1847413222/sys_clk_pic32mz.o
 .text._SYS_CLK_GetOscPeripheralBus
                0x00000000        0x8 build/pic32mz_ef_sk_meb2/production/_ext/1847413222/sys_clk_pic32mz.o
 .text._SYS_CLK_PLLInputDividerRead
                0x00000000       0x14 build/pic32mz_ef_sk_meb2/production/_ext/1847413222/sys_clk_pic32mz.o
 .text._SYS_CLK_PLLMultiplierRead
                0x00000000       0x14 build/pic32mz_ef_sk_meb2/production/_ext/1847413222/sys_clk_pic32mz.o
 .text._SYS_CLK_PLLOutputDividerRead
                0x00000000       0x34 build/pic32mz_ef_sk_meb2/production/_ext/1847413222/sys_clk_pic32mz.o
 .text._SYS_CLK_SystemClockRead
                0x00000000      0x1e8 build/pic32mz_ef_sk_meb2/production/_ext/1847413222/sys_clk_pic32mz.o
 .text._SYS_CLK_PeripheralClockRead
                0x00000000       0x6c build/pic32mz_ef_sk_meb2/production/_ext/1847413222/sys_clk_pic32mz.o
 .text._SYS_CLK_PeripheralFrequencySet
                0x00000000      0x18c build/pic32mz_ef_sk_meb2/production/_ext/1847413222/sys_clk_pic32mz.o
 .text.SYS_CLK_ClosestFactorsGet
                0x00000000       0xa0 build/pic32mz_ef_sk_meb2/production/_ext/1847413222/sys_clk_pic32mz.o
 .text.SYS_CLK_FRCClosestDivisorGet
                0x00000000       0x84 build/pic32mz_ef_sk_meb2/production/_ext/1847413222/sys_clk_pic32mz.o
 .text.SYS_CLK_FrequencyErrorCheck
                0x00000000       0x18 build/pic32mz_ef_sk_meb2/production/_ext/1847413222/sys_clk_pic32mz.o
 .text.SYS_CLK_SystemClockSourceSwitch
                0x00000000      0x1c4 build/pic32mz_ef_sk_meb2/production/_ext/1847413222/sys_clk_pic32mz.o
 .text._SYS_CLK_SystemClockSet
                0x00000000      0x18c build/pic32mz_ef_sk_meb2/production/_ext/1847413222/sys_clk_pic32mz.o
 .text._SYS_CLK_ReferenceFrequencySet
                0x00000000      0x424 build/pic32mz_ef_sk_meb2/production/_ext/1847413222/sys_clk_pic32mz.o
 .text._SYS_CLK_ReferenceClockSetup
                0x00000000       0x90 build/pic32mz_ef_sk_meb2/production/_ext/1847413222/sys_clk_pic32mz.o
 .rodata        0x00000000       0x10 build/pic32mz_ef_sk_meb2/production/_ext/1847413222/sys_clk_pic32mz.o
 .text          0x00000000        0x0 build/pic32mz_ef_sk_meb2/production/_ext/924081491/sys_devcon.o
 .data          0x00000000        0x0 build/pic32mz_ef_sk_meb2/production/_ext/924081491/sys_devcon.o
 .bss           0x00000000        0x0 build/pic32mz_ef_sk_meb2/production/_ext/924081491/sys_devcon.o
 .reginfo       0x00000000       0x18 build/pic32mz_ef_sk_meb2/production/_ext/924081491/sys_devcon.o
 .text.SYS_DEVCON_Reinitialize
                0x00000000       0x10 build/pic32mz_ef_sk_meb2/production/_ext/924081491/sys_devcon.o
 .text.SYS_DEVCON_Deinitialize
                0x00000000        0x8 build/pic32mz_ef_sk_meb2/production/_ext/924081491/sys_devcon.o
 .text.SYS_DEVCON_Status
                0x00000000        0x8 build/pic32mz_ef_sk_meb2/production/_ext/924081491/sys_devcon.o
 .text.SYS_DEVCON_Tasks
                0x00000000        0x8 build/pic32mz_ef_sk_meb2/production/_ext/924081491/sys_devcon.o
 .text.SYS_DEVCON_JTAGEnable
                0x00000000       0x18 build/pic32mz_ef_sk_meb2/production/_ext/924081491/sys_devcon.o
 .text.SYS_DEVCON_JTAGDisable
                0x00000000       0x1c build/pic32mz_ef_sk_meb2/production/_ext/924081491/sys_devcon.o
 .text.SYS_DEVCON_TraceEnable
                0x00000000       0x1c build/pic32mz_ef_sk_meb2/production/_ext/924081491/sys_devcon.o
 .text.SYS_DEVCON_TraceDisable
                0x00000000       0x18 build/pic32mz_ef_sk_meb2/production/_ext/924081491/sys_devcon.o
 .text.SYS_DEVCON_PowerModeEnter
                0x00000000       0x44 build/pic32mz_ef_sk_meb2/production/_ext/924081491/sys_devcon.o
 .text          0x00000000        0x0 build/pic32mz_ef_sk_meb2/production/_ext/924081491/sys_devcon_pic32mz.o
 .data          0x00000000        0x0 build/pic32mz_ef_sk_meb2/production/_ext/924081491/sys_devcon_pic32mz.o
 .bss           0x00000000        0x0 build/pic32mz_ef_sk_meb2/production/_ext/924081491/sys_devcon_pic32mz.o
 .reginfo       0x00000000       0x18 build/pic32mz_ef_sk_meb2/production/_ext/924081491/sys_devcon_pic32mz.o
 .text.SYS_DEVCON_CacheInit
                0x00000000       0x24 build/pic32mz_ef_sk_meb2/production/_ext/924081491/sys_devcon_pic32mz.o
 .text.SYS_DEVCON_CacheFlush
                0x00000000       0x24 build/pic32mz_ef_sk_meb2/production/_ext/924081491/sys_devcon_pic32mz.o
 .text.SYS_DEVCON_DataCacheFlush
                0x00000000       0x24 build/pic32mz_ef_sk_meb2/production/_ext/924081491/sys_devcon_pic32mz.o
 .text.SYS_DEVCON_InstructionCacheFlush
                0x00000000       0x24 build/pic32mz_ef_sk_meb2/production/_ext/924081491/sys_devcon_pic32mz.o
 .text.SYS_DEVCON_CacheClean
                0x00000000       0x24 build/pic32mz_ef_sk_meb2/production/_ext/924081491/sys_devcon_pic32mz.o
 .text.SYS_DEVCON_DataCacheClean
                0x00000000       0x24 build/pic32mz_ef_sk_meb2/production/_ext/924081491/sys_devcon_pic32mz.o
 .text.SYS_DEVCON_DataCacheInvalidate
                0x00000000       0x24 build/pic32mz_ef_sk_meb2/production/_ext/924081491/sys_devcon_pic32mz.o
 .text.SYS_DEVCON_InstructionCacheInvalidate
                0x00000000       0x24 build/pic32mz_ef_sk_meb2/production/_ext/924081491/sys_devcon_pic32mz.o
 .text.SYS_DEVCON_InstructionCacheLock
                0x00000000       0x24 build/pic32mz_ef_sk_meb2/production/_ext/924081491/sys_devcon_pic32mz.o
 .text.SYS_DEVCON_DataCacheLock
                0x00000000       0x24 build/pic32mz_ef_sk_meb2/production/_ext/924081491/sys_devcon_pic32mz.o
 .text.SYS_DEVCON_CacheSync
                0x00000000       0x24 build/pic32mz_ef_sk_meb2/production/_ext/924081491/sys_devcon_pic32mz.o
 .text.SYS_DEVCON_CacheCoherencySet
                0x00000000       0x2c build/pic32mz_ef_sk_meb2/production/_ext/924081491/sys_devcon_pic32mz.o
 .text.SYS_DEVCON_CacheCoherencyGet
                0x00000000       0x1c build/pic32mz_ef_sk_meb2/production/_ext/924081491/sys_devcon_pic32mz.o
 .text.SYS_DEVCON_DataCacheAssociativityGet
                0x00000000       0x24 build/pic32mz_ef_sk_meb2/production/_ext/924081491/sys_devcon_pic32mz.o
 .text.SYS_DEVCON_InstructionCacheAssociativityGet
                0x00000000       0x24 build/pic32mz_ef_sk_meb2/production/_ext/924081491/sys_devcon_pic32mz.o
 .text.SYS_DEVCON_DataCacheLineSizeGet
                0x00000000       0x24 build/pic32mz_ef_sk_meb2/production/_ext/924081491/sys_devcon_pic32mz.o
 .text.SYS_DEVCON_InstructionCacheLineSizeGet
                0x00000000       0x24 build/pic32mz_ef_sk_meb2/production/_ext/924081491/sys_devcon_pic32mz.o
 .text.SYS_DEVCON_DataCacheLinesPerWayGet
                0x00000000       0x24 build/pic32mz_ef_sk_meb2/production/_ext/924081491/sys_devcon_pic32mz.o
 .text.SYS_DEVCON_InstructionCacheLinesPerWayGet
                0x00000000       0x24 build/pic32mz_ef_sk_meb2/production/_ext/924081491/sys_devcon_pic32mz.o
 .text.SYS_DEVCON_DataCacheSizeGet
                0x00000000       0x24 build/pic32mz_ef_sk_meb2/production/_ext/924081491/sys_devcon_pic32mz.o
 .text.SYS_DEVCON_InstructionCacheSizeGet
                0x00000000       0x24 build/pic32mz_ef_sk_meb2/production/_ext/924081491/sys_devcon_pic32mz.o
 .text          0x00000000      0x6bc build/pic32mz_ef_sk_meb2/production/_ext/924081491/sys_devcon_cache_pic32mz.o
 .data          0x00000000        0x0 build/pic32mz_ef_sk_meb2/production/_ext/924081491/sys_devcon_cache_pic32mz.o
 .bss           0x00000000        0x0 build/pic32mz_ef_sk_meb2/production/_ext/924081491/sys_devcon_cache_pic32mz.o
 .reginfo       0x00000000       0x18 build/pic32mz_ef_sk_meb2/production/_ext/924081491/sys_devcon_cache_pic32mz.o
 .debug_line    0x00000000      0x22b build/pic32mz_ef_sk_meb2/production/_ext/924081491/sys_devcon_cache_pic32mz.o
 .debug_info    0x00000000       0xda build/pic32mz_ef_sk_meb2/production/_ext/924081491/sys_devcon_cache_pic32mz.o
 .debug_abbrev  0x00000000       0x14 build/pic32mz_ef_sk_meb2/production/_ext/924081491/sys_devcon_cache_pic32mz.o
 .debug_aranges
                0x00000000       0x20 build/pic32mz_ef_sk_meb2/production/_ext/924081491/sys_devcon_cache_pic32mz.o
 .text          0x00000000        0x0 build/pic32mz_ef_sk_meb2/production/_ext/50030870/sys_ports_static.o
 .data          0x00000000        0x0 build/pic32mz_ef_sk_meb2/production/_ext/50030870/sys_ports_static.o
 .bss           0x00000000        0x0 build/pic32mz_ef_sk_meb2/production/_ext/50030870/sys_ports_static.o
 .reginfo       0x00000000       0x18 build/pic32mz_ef_sk_meb2/production/_ext/50030870/sys_ports_static.o
 .text.SYS_PORTS_Read
                0x00000000       0x24 build/pic32mz_ef_sk_meb2/production/_ext/50030870/sys_ports_static.o
 .text.SYS_PORTS_Write
                0x00000000       0x28 build/pic32mz_ef_sk_meb2/production/_ext/50030870/sys_ports_static.o
 .text.SYS_PORTS_Set
                0x00000000       0x30 build/pic32mz_ef_sk_meb2/production/_ext/50030870/sys_ports_static.o
 .text.SYS_PORTS_Clear
                0x00000000       0x2c build/pic32mz_ef_sk_meb2/production/_ext/50030870/sys_ports_static.o
 .text.SYS_PORTS_DirectionSelect
                0x00000000       0x5c build/pic32mz_ef_sk_meb2/production/_ext/50030870/sys_ports_static.o
 .text.SYS_PORTS_DirectionGet
                0x00000000       0x24 build/pic32mz_ef_sk_meb2/production/_ext/50030870/sys_ports_static.o
 .text.SYS_PORTS_Toggle
                0x00000000       0x2c build/pic32mz_ef_sk_meb2/production/_ext/50030870/sys_ports_static.o
 .text.SYS_PORTS_OpenDrainEnable
                0x00000000       0x2c build/pic32mz_ef_sk_meb2/production/_ext/50030870/sys_ports_static.o
 .text.SYS_PORTS_OpenDrainDisable
                0x00000000       0x2c build/pic32mz_ef_sk_meb2/production/_ext/50030870/sys_ports_static.o
 .text.SYS_PORTS_ChangeNotificationGlobalEnable
                0x00000000        0x8 build/pic32mz_ef_sk_meb2/production/_ext/50030870/sys_ports_static.o
 .text.SYS_PORTS_ChangeNotificationGlobalDisable
                0x00000000        0x8 build/pic32mz_ef_sk_meb2/production/_ext/50030870/sys_ports_static.o
 .text.SYS_PORTS_GlobalChangeNotificationDisable
                0x00000000        0x8 build/pic32mz_ef_sk_meb2/production/_ext/50030870/sys_ports_static.o
 .text.SYS_PORTS_ChangeNotificationEnable
                0x00000000        0x8 build/pic32mz_ef_sk_meb2/production/_ext/50030870/sys_ports_static.o
 .text.SYS_PORTS_ChangeNotificationDisable
                0x00000000        0x8 build/pic32mz_ef_sk_meb2/production/_ext/50030870/sys_ports_static.o
 .text.SYS_PORTS_ChangeNotificationInIdleModeEnable
                0x00000000        0x8 build/pic32mz_ef_sk_meb2/production/_ext/50030870/sys_ports_static.o
 .text.SYS_PORTS_ChangeNotificationInIdleModeDisable
                0x00000000        0x8 build/pic32mz_ef_sk_meb2/production/_ext/50030870/sys_ports_static.o
 .text.SYS_PORTS_ChangeNotificationPullUpEnable
                0x00000000        0x8 build/pic32mz_ef_sk_meb2/production/_ext/50030870/sys_ports_static.o
 .text.SYS_PORTS_ChangeNotificationPullUpDisable
                0x00000000        0x8 build/pic32mz_ef_sk_meb2/production/_ext/50030870/sys_ports_static.o
 .text.SYS_PORTS_PinModeSelect
                0x00000000       0x64 build/pic32mz_ef_sk_meb2/production/_ext/50030870/sys_ports_static.o
 .text.SYS_PORTS_PinWrite
                0x00000000       0x64 build/pic32mz_ef_sk_meb2/production/_ext/50030870/sys_ports_static.o
 .text.SYS_PORTS_PinRead
                0x00000000       0x28 build/pic32mz_ef_sk_meb2/production/_ext/50030870/sys_ports_static.o
 .text.SYS_PORTS_PinToggle
                0x00000000       0x30 build/pic32mz_ef_sk_meb2/production/_ext/50030870/sys_ports_static.o
 .text.SYS_PORTS_PinSet
                0x00000000       0x30 build/pic32mz_ef_sk_meb2/production/_ext/50030870/sys_ports_static.o
 .text.SYS_PORTS_PinClear
                0x00000000       0x30 build/pic32mz_ef_sk_meb2/production/_ext/50030870/sys_ports_static.o
 .text.SYS_PORTS_PinDirectionSelect
                0x00000000       0x60 build/pic32mz_ef_sk_meb2/production/_ext/50030870/sys_ports_static.o
 .text.SYS_PORTS_PinOpenDrainEnable
                0x00000000       0x30 build/pic32mz_ef_sk_meb2/production/_ext/50030870/sys_ports_static.o
 .text.SYS_PORTS_PinOpenDrainDisable
                0x00000000       0x30 build/pic32mz_ef_sk_meb2/production/_ext/50030870/sys_ports_static.o
 .text.SYS_PORTS_RemapInput
                0x00000000       0x64 build/pic32mz_ef_sk_meb2/production/_ext/50030870/sys_ports_static.o
 .text.SYS_PORTS_RemapOutput
                0x00000000       0x70 build/pic32mz_ef_sk_meb2/production/_ext/50030870/sys_ports_static.o
 .text          0x00000000        0x0 build/pic32mz_ef_sk_meb2/production/_ext/1465531745/bsp.o
 .data          0x00000000        0x0 build/pic32mz_ef_sk_meb2/production/_ext/1465531745/bsp.o
 .bss           0x00000000        0x0 build/pic32mz_ef_sk_meb2/production/_ext/1465531745/bsp.o
 .reginfo       0x00000000       0x18 build/pic32mz_ef_sk_meb2/production/_ext/1465531745/bsp.o
 .text.BSP_SwitchStateGet
                0x00000000       0x44 build/pic32mz_ef_sk_meb2/production/_ext/1465531745/bsp.o
 .text.BSP_LEDStateSet
                0x00000000      0x114 build/pic32mz_ef_sk_meb2/production/_ext/1465531745/bsp.o
 .text.BSP_LEDToggle
                0x00000000       0x4c build/pic32mz_ef_sk_meb2/production/_ext/1465531745/bsp.o
 .text.BSP_LEDStateGet
                0x00000000       0x58 build/pic32mz_ef_sk_meb2/production/_ext/1465531745/bsp.o
 .text.BSP_LEDOn
                0x00000000       0xac build/pic32mz_ef_sk_meb2/production/_ext/1465531745/bsp.o
 .text.BSP_USBVBUSSwitchStateSet
                0x00000000       0x28 build/pic32mz_ef_sk_meb2/production/_ext/1465531745/bsp.o
 .text.BSP_USBVBUSSwitchOverCurrentDetect
                0x00000000        0x8 build/pic32mz_ef_sk_meb2/production/_ext/1465531745/bsp.o
 .text.BSP_USBVBUSPowerEnable
                0x00000000       0x2c build/pic32mz_ef_sk_meb2/production/_ext/1465531745/bsp.o
 .text          0x00000000        0x0 build/pic32mz_ef_sk_meb2/production/_ext/1951523377/system_init.o
 .data          0x00000000        0x0 build/pic32mz_ef_sk_meb2/production/_ext/1951523377/system_init.o
 .bss           0x00000000        0x0 build/pic32mz_ef_sk_meb2/production/_ext/1951523377/system_init.o
 .reginfo       0x00000000       0x18 build/pic32mz_ef_sk_meb2/production/_ext/1951523377/system_init.o
 .text          0x00000000        0x0 build/pic32mz_ef_sk_meb2/production/_ext/1951523377/system_interrupt.o
 .data          0x00000000        0x0 build/pic32mz_ef_sk_meb2/production/_ext/1951523377/system_interrupt.o
 .bss           0x00000000        0x0 build/pic32mz_ef_sk_meb2/production/_ext/1951523377/system_interrupt.o
 .reginfo       0x00000000       0x18 build/pic32mz_ef_sk_meb2/production/_ext/1951523377/system_interrupt.o
 .text          0x00000000        0x0 build/pic32mz_ef_sk_meb2/production/_ext/1951523377/system_exceptions.o
 .data          0x00000000        0x0 build/pic32mz_ef_sk_meb2/production/_ext/1951523377/system_exceptions.o
 .bss           0x00000000        0x0 build/pic32mz_ef_sk_meb2/production/_ext/1951523377/system_exceptions.o
 .reginfo       0x00000000       0x18 build/pic32mz_ef_sk_meb2/production/_ext/1951523377/system_exceptions.o
 .text          0x00000000        0x0 build/pic32mz_ef_sk_meb2/production/_ext/1951523377/system_tasks.o
 .data          0x00000000        0x0 build/pic32mz_ef_sk_meb2/production/_ext/1951523377/system_tasks.o
 .bss           0x00000000        0x0 build/pic32mz_ef_sk_meb2/production/_ext/1951523377/system_tasks.o
 .reginfo       0x00000000       0x18 build/pic32mz_ef_sk_meb2/production/_ext/1951523377/system_tasks.o
 .text          0x00000000        0x0 build/pic32mz_ef_sk_meb2/production/_ext/715821942/gfx_assets.o
 .bss           0x00000000        0x0 build/pic32mz_ef_sk_meb2/production/_ext/715821942/gfx_assets.o
 .reginfo       0x00000000       0x18 build/pic32mz_ef_sk_meb2/production/_ext/715821942/gfx_assets.o
 .text          0x00000000        0x0 c:/program files (x86)/microchip/xc32/v1.42/bin/bin/../../lib/gcc/pic32mx/4.8.3/../../../../pic32mx/lib/./proc/32MZ2048ECG144\default_isr_vectors.o
 .data          0x00000000        0x0 c:/program files (x86)/microchip/xc32/v1.42/bin/bin/../../lib/gcc/pic32mx/4.8.3/../../../../pic32mx/lib/./proc/32MZ2048ECG144\default_isr_vectors.o
 .bss           0x00000000        0x0 c:/program files (x86)/microchip/xc32/v1.42/bin/bin/../../lib/gcc/pic32mx/4.8.3/../../../../pic32mx/lib/./proc/32MZ2048ECG144\default_isr_vectors.o
 .reginfo       0x00000000       0x18 c:/program files (x86)/microchip/xc32/v1.42/bin/bin/../../lib/gcc/pic32mx/4.8.3/../../../../pic32mx/lib/./proc/32MZ2048ECG144\default_isr_vectors.o
 .discard       0x00000000        0x4 c:/program files (x86)/microchip/xc32/v1.42/bin/bin/../../lib/gcc/pic32mx/4.8.3/../../../../pic32mx/lib/./proc/32MZ2048ECG144\default_isr_vectors.o
 .data          0x00000000        0x0 c:/program files (x86)/microchip/xc32/v1.42/bin/bin/../../lib/gcc/pic32mx/4.8.3/../../../../pic32mx/lib\pic32_software_reset.o
 .bss           0x00000000        0x0 c:/program files (x86)/microchip/xc32/v1.42/bin/bin/../../lib/gcc/pic32mx/4.8.3/../../../../pic32mx/lib\pic32_software_reset.o
 .reginfo       0x00000000       0x18 c:/program files (x86)/microchip/xc32/v1.42/bin/bin/../../lib/gcc/pic32mx/4.8.3/../../../../pic32mx/lib\pic32_software_reset.o
 .text          0x00000000        0x0 c:/program files (x86)/microchip/xc32/v1.42/bin/bin/../../lib/gcc/pic32mx/4.8.3/../../../../pic32mx/lib/./proc/32MZ2048ECG144\processor.o
 .data          0x00000000        0x0 c:/program files (x86)/microchip/xc32/v1.42/bin/bin/../../lib/gcc/pic32mx/4.8.3/../../../../pic32mx/lib/./proc/32MZ2048ECG144\processor.o
 .bss           0x00000000        0x0 c:/program files (x86)/microchip/xc32/v1.42/bin/bin/../../lib/gcc/pic32mx/4.8.3/../../../../pic32mx/lib/./proc/32MZ2048ECG144\processor.o
 .reginfo       0x00000000       0x18 c:/program files (x86)/microchip/xc32/v1.42/bin/bin/../../lib/gcc/pic32mx/4.8.3/../../../../pic32mx/lib/./proc/32MZ2048ECG144\processor.o
 .text          0x00000000        0x0 c:/program files (x86)/microchip/xc32/v1.42/bin/bin/../../lib/gcc/pic32mx/4.8.3/../../../../pic32mx/lib/./proc/32MZ2048ECG144\vector_offset_init.o
 .data          0x00000000        0x0 c:/program files (x86)/microchip/xc32/v1.42/bin/bin/../../lib/gcc/pic32mx/4.8.3/../../../../pic32mx/lib/./proc/32MZ2048ECG144\vector_offset_init.o
 .bss           0x00000000        0x0 c:/program files (x86)/microchip/xc32/v1.42/bin/bin/../../lib/gcc/pic32mx/4.8.3/../../../../pic32mx/lib/./proc/32MZ2048ECG144\vector_offset_init.o
 .reginfo       0x00000000       0x18 c:/program files (x86)/microchip/xc32/v1.42/bin/bin/../../lib/gcc/pic32mx/4.8.3/../../../../pic32mx/lib/./proc/32MZ2048ECG144\vector_offset_init.o
 .data          0x00000000        0x0 c:/program files (x86)/microchip/xc32/v1.42/bin/bin/../../lib/gcc/pic32mx/4.8.3\libgcc.a(floatunsisf.o)
 .bss           0x00000000        0x0 c:/program files (x86)/microchip/xc32/v1.42/bin/bin/../../lib/gcc/pic32mx/4.8.3\libgcc.a(floatunsisf.o)
 .reginfo       0x00000000       0x18 c:/program files (x86)/microchip/xc32/v1.42/bin/bin/../../lib/gcc/pic32mx/4.8.3\libgcc.a(floatunsisf.o)
 .data          0x00000000        0x0 c:/program files (x86)/microchip/xc32/v1.42/bin/bin/../../lib/gcc/pic32mx/4.8.3/../../../../pic32mx/lib\libpic32.a(memcpy.o)
 .bss           0x00000000        0x0 c:/program files (x86)/microchip/xc32/v1.42/bin/bin/../../lib/gcc/pic32mx/4.8.3/../../../../pic32mx/lib\libpic32.a(memcpy.o)
 .reginfo       0x00000000       0x18 c:/program files (x86)/microchip/xc32/v1.42/bin/bin/../../lib/gcc/pic32mx/4.8.3/../../../../pic32mx/lib\libpic32.a(memcpy.o)
 .data          0x00000000        0x0 c:/program files (x86)/microchip/xc32/v1.42/bin/bin/../../lib/gcc/pic32mx/4.8.3/../../../../pic32mx/lib\libpic32.a(memset.o)
 .bss           0x00000000        0x0 c:/program files (x86)/microchip/xc32/v1.42/bin/bin/../../lib/gcc/pic32mx/4.8.3/../../../../pic32mx/lib\libpic32.a(memset.o)
 .reginfo       0x00000000       0x18 c:/program files (x86)/microchip/xc32/v1.42/bin/bin/../../lib/gcc/pic32mx/4.8.3/../../../../pic32mx/lib\libpic32.a(memset.o)
 .text          0x00000000      0x120 c:/program files (x86)/microchip/xc32/v1.42/bin/bin/../../lib/gcc/pic32mx/4.8.3/../../../../pic32mx/lib\libpic32.a(strcmp.o)
 .data          0x00000000        0x0 c:/program files (x86)/microchip/xc32/v1.42/bin/bin/../../lib/gcc/pic32mx/4.8.3/../../../../pic32mx/lib\libpic32.a(strcmp.o)
 .bss           0x00000000        0x0 c:/program files (x86)/microchip/xc32/v1.42/bin/bin/../../lib/gcc/pic32mx/4.8.3/../../../../pic32mx/lib\libpic32.a(strcmp.o)
 .reginfo       0x00000000       0x18 c:/program files (x86)/microchip/xc32/v1.42/bin/bin/../../lib/gcc/pic32mx/4.8.3/../../../../pic32mx/lib\libpic32.a(strcmp.o)
 .comment       0x00000000       0x1a c:/program files (x86)/microchip/xc32/v1.42/bin/bin/../../lib/gcc/pic32mx/4.8.3/../../../../pic32mx/lib\libpic32.a(strcmp.o)
 .data          0x00000000        0x0 c:/program files (x86)/microchip/xc32/v1.42/bin/bin/../../lib/gcc/pic32mx/4.8.3/../../../../pic32mx/lib\libpic32.a(strcpy.o)
 .bss           0x00000000        0x0 c:/program files (x86)/microchip/xc32/v1.42/bin/bin/../../lib/gcc/pic32mx/4.8.3/../../../../pic32mx/lib\libpic32.a(strcpy.o)
 .reginfo       0x00000000       0x18 c:/program files (x86)/microchip/xc32/v1.42/bin/bin/../../lib/gcc/pic32mx/4.8.3/../../../../pic32mx/lib\libpic32.a(strcpy.o)
 .data          0x00000000        0x0 c:/program files (x86)/microchip/xc32/v1.42/bin/bin/../../lib/gcc/pic32mx/4.8.3/../../../../pic32mx/lib\libpic32.a(strlen.o)
 .bss           0x00000000        0x0 c:/program files (x86)/microchip/xc32/v1.42/bin/bin/../../lib/gcc/pic32mx/4.8.3/../../../../pic32mx/lib\libpic32.a(strlen.o)
 .reginfo       0x00000000       0x18 c:/program files (x86)/microchip/xc32/v1.42/bin/bin/../../lib/gcc/pic32mx/4.8.3/../../../../pic32mx/lib\libpic32.a(strlen.o)
 .text          0x00000000        0x0 c:/program files (x86)/microchip/xc32/v1.42/bin/bin/../../lib/gcc/pic32mx/4.8.3/../../../../pic32mx/lib\libpic32.a(default-bootstrap-exception-handler.o)
 .data          0x00000000        0x0 c:/program files (x86)/microchip/xc32/v1.42/bin/bin/../../lib/gcc/pic32mx/4.8.3/../../../../pic32mx/lib\libpic32.a(default-bootstrap-exception-handler.o)
 .bss           0x00000000        0x0 c:/program files (x86)/microchip/xc32/v1.42/bin/bin/../../lib/gcc/pic32mx/4.8.3/../../../../pic32mx/lib\libpic32.a(default-bootstrap-exception-handler.o)
 .reginfo       0x00000000       0x18 c:/program files (x86)/microchip/xc32/v1.42/bin/bin/../../lib/gcc/pic32mx/4.8.3/../../../../pic32mx/lib\libpic32.a(default-bootstrap-exception-handler.o)
 .text          0x00000000        0x0 c:/program files (x86)/microchip/xc32/v1.42/bin/bin/../../lib/gcc/pic32mx/4.8.3/../../../../pic32mx/lib\libpic32.a(default-on-reset.o)
 .data          0x00000000        0x0 c:/program files (x86)/microchip/xc32/v1.42/bin/bin/../../lib/gcc/pic32mx/4.8.3/../../../../pic32mx/lib\libpic32.a(default-on-reset.o)
 .bss           0x00000000        0x0 c:/program files (x86)/microchip/xc32/v1.42/bin/bin/../../lib/gcc/pic32mx/4.8.3/../../../../pic32mx/lib\libpic32.a(default-on-reset.o)
 .reginfo       0x00000000       0x18 c:/program files (x86)/microchip/xc32/v1.42/bin/bin/../../lib/gcc/pic32mx/4.8.3/../../../../pic32mx/lib\libpic32.a(default-on-reset.o)
 .text          0x00000000        0x0 c:/program files (x86)/microchip/xc32/v1.42/bin/bin/../../lib/gcc/pic32mx/4.8.3/../../../../pic32mx/lib\libpic32.a(default-on-bootstrap.o)
 .data          0x00000000        0x0 c:/program files (x86)/microchip/xc32/v1.42/bin/bin/../../lib/gcc/pic32mx/4.8.3/../../../../pic32mx/lib\libpic32.a(default-on-bootstrap.o)
 .bss           0x00000000        0x0 c:/program files (x86)/microchip/xc32/v1.42/bin/bin/../../lib/gcc/pic32mx/4.8.3/../../../../pic32mx/lib\libpic32.a(default-on-bootstrap.o)
 .reginfo       0x00000000       0x18 c:/program files (x86)/microchip/xc32/v1.42/bin/bin/../../lib/gcc/pic32mx/4.8.3/../../../../pic32mx/lib\libpic32.a(default-on-bootstrap.o)
 .data          0x00000000        0x0 c:/program files (x86)/microchip/xc32/v1.42/bin/bin/../../lib/gcc/pic32mx/4.8.3/../../../../pic32mx/lib\libpic32.a(default-nmi-handler.o)
 .bss           0x00000000        0x0 c:/program files (x86)/microchip/xc32/v1.42/bin/bin/../../lib/gcc/pic32mx/4.8.3/../../../../pic32mx/lib\libpic32.a(default-nmi-handler.o)
 .reginfo       0x00000000       0x18 c:/program files (x86)/microchip/xc32/v1.42/bin/bin/../../lib/gcc/pic32mx/4.8.3/../../../../pic32mx/lib\libpic32.a(default-nmi-handler.o)
 .text          0x00000000        0x0 c:/program files (x86)/microchip/xc32/v1.42/bin/bin/../../lib/gcc/pic32mx/4.8.3/../../../../pic32mx/lib\libpic32.a(pic32_init_cache.o)
 .data          0x00000000        0x0 c:/program files (x86)/microchip/xc32/v1.42/bin/bin/../../lib/gcc/pic32mx/4.8.3/../../../../pic32mx/lib\libpic32.a(pic32_init_cache.o)
 .bss           0x00000000        0x0 c:/program files (x86)/microchip/xc32/v1.42/bin/bin/../../lib/gcc/pic32mx/4.8.3/../../../../pic32mx/lib\libpic32.a(pic32_init_cache.o)
 .reginfo       0x00000000       0x18 c:/program files (x86)/microchip/xc32/v1.42/bin/bin/../../lib/gcc/pic32mx/4.8.3/../../../../pic32mx/lib\libpic32.a(pic32_init_cache.o)
 .cache_init.pic32_size_cache
                0x00000000       0x58 c:/program files (x86)/microchip/xc32/v1.42/bin/bin/../../lib/gcc/pic32mx/4.8.3/../../../../pic32mx/lib\libpic32.a(pic32_init_cache.o)
 .text          0x00000000        0x0 c:/program files (x86)/microchip/xc32/v1.42/bin/bin/../../lib/gcc/pic32mx/4.8.3/../../../../pic32mx/lib\libpic32.a(pic32_init_tlb_ebi_sqi.o)
 .data          0x00000000        0x0 c:/program files (x86)/microchip/xc32/v1.42/bin/bin/../../lib/gcc/pic32mx/4.8.3/../../../../pic32mx/lib\libpic32.a(pic32_init_tlb_ebi_sqi.o)
 .bss           0x00000000        0x0 c:/program files (x86)/microchip/xc32/v1.42/bin/bin/../../lib/gcc/pic32mx/4.8.3/../../../../pic32mx/lib\libpic32.a(pic32_init_tlb_ebi_sqi.o)
 .reginfo       0x00000000       0x18 c:/program files (x86)/microchip/xc32/v1.42/bin/bin/../../lib/gcc/pic32mx/4.8.3/../../../../pic32mx/lib\libpic32.a(pic32_init_tlb_ebi_sqi.o)
 .text          0x00000000        0x0 c:/program files (x86)/microchip/xc32/v1.42/bin/bin/../../lib/gcc/pic32mx/4.8.3/../../../../pic32mx/lib\libpic32.a(general-exception.o)
 .data          0x00000000        0x0 c:/program files (x86)/microchip/xc32/v1.42/bin/bin/../../lib/gcc/pic32mx/4.8.3/../../../../pic32mx/lib\libpic32.a(general-exception.o)
 .bss           0x00000000        0x0 c:/program files (x86)/microchip/xc32/v1.42/bin/bin/../../lib/gcc/pic32mx/4.8.3/../../../../pic32mx/lib\libpic32.a(general-exception.o)
 .reginfo       0x00000000       0x18 c:/program files (x86)/microchip/xc32/v1.42/bin/bin/../../lib/gcc/pic32mx/4.8.3/../../../../pic32mx/lib\libpic32.a(general-exception.o)
 .text          0x00000000        0x0 c:/program files (x86)/microchip/xc32/v1.42/bin/bin/../../lib/gcc/pic32mx/4.8.3/../../../../pic32mx/lib\libpic32.a(cache-err-exception.o)
 .data          0x00000000        0x0 c:/program files (x86)/microchip/xc32/v1.42/bin/bin/../../lib/gcc/pic32mx/4.8.3/../../../../pic32mx/lib\libpic32.a(cache-err-exception.o)
 .bss           0x00000000        0x0 c:/program files (x86)/microchip/xc32/v1.42/bin/bin/../../lib/gcc/pic32mx/4.8.3/../../../../pic32mx/lib\libpic32.a(cache-err-exception.o)
 .reginfo       0x00000000       0x18 c:/program files (x86)/microchip/xc32/v1.42/bin/bin/../../lib/gcc/pic32mx/4.8.3/../../../../pic32mx/lib\libpic32.a(cache-err-exception.o)
 .text          0x00000000        0x0 c:/program files (x86)/microchip/xc32/v1.42/bin/bin/../../lib/gcc/pic32mx/4.8.3/../../../../pic32mx/lib\libpic32.a(simple-tlb-refill-exception.o)
 .data          0x00000000        0x0 c:/program files (x86)/microchip/xc32/v1.42/bin/bin/../../lib/gcc/pic32mx/4.8.3/../../../../pic32mx/lib\libpic32.a(simple-tlb-refill-exception.o)
 .bss           0x00000000        0x0 c:/program files (x86)/microchip/xc32/v1.42/bin/bin/../../lib/gcc/pic32mx/4.8.3/../../../../pic32mx/lib\libpic32.a(simple-tlb-refill-exception.o)
 .reginfo       0x00000000       0x18 c:/program files (x86)/microchip/xc32/v1.42/bin/bin/../../lib/gcc/pic32mx/4.8.3/../../../../pic32mx/lib\libpic32.a(simple-tlb-refill-exception.o)
 .text          0x00000000        0x0 c:/program files (x86)/microchip/xc32/v1.42/bin/bin/../../lib/gcc/pic32mx/4.8.3/../../../../pic32mx/lib\libpic32.a(defaultinterrupt.o)
 .data          0x00000000        0x0 c:/program files (x86)/microchip/xc32/v1.42/bin/bin/../../lib/gcc/pic32mx/4.8.3/../../../../pic32mx/lib\libpic32.a(defaultinterrupt.o)
 .bss           0x00000000        0x0 c:/program files (x86)/microchip/xc32/v1.42/bin/bin/../../lib/gcc/pic32mx/4.8.3/../../../../pic32mx/lib\libpic32.a(defaultinterrupt.o)
 .reginfo       0x00000000       0x18 c:/program files (x86)/microchip/xc32/v1.42/bin/bin/../../lib/gcc/pic32mx/4.8.3/../../../../pic32mx/lib\libpic32.a(defaultinterrupt.o)
 .text          0x00000000        0x0 c:/program files (x86)/microchip/xc32/v1.42/bin/bin/../../lib/gcc/pic32mx/4.8.3/../../../../pic32mx/lib\libpic32.a(default-cache-err-exception-handler.o)
 .data          0x00000000        0x0 c:/program files (x86)/microchip/xc32/v1.42/bin/bin/../../lib/gcc/pic32mx/4.8.3/../../../../pic32mx/lib\libpic32.a(default-cache-err-exception-handler.o)
 .bss           0x00000000        0x0 c:/program files (x86)/microchip/xc32/v1.42/bin/bin/../../lib/gcc/pic32mx/4.8.3/../../../../pic32mx/lib\libpic32.a(default-cache-err-exception-handler.o)
 .reginfo       0x00000000       0x18 c:/program files (x86)/microchip/xc32/v1.42/bin/bin/../../lib/gcc/pic32mx/4.8.3/../../../../pic32mx/lib\libpic32.a(default-cache-err-exception-handler.o)
 .text          0x00000000        0x0 c:/program files (x86)/microchip/xc32/v1.42/bin/bin/../../lib/gcc/pic32mx/4.8.3/../../../../pic32mx/lib\libpic32.a(default-simple-tlb-refill-exception-handler.o)
 .data          0x00000000        0x0 c:/program files (x86)/microchip/xc32/v1.42/bin/bin/../../lib/gcc/pic32mx/4.8.3/../../../../pic32mx/lib\libpic32.a(default-simple-tlb-refill-exception-handler.o)
 .bss           0x00000000        0x0 c:/program files (x86)/microchip/xc32/v1.42/bin/bin/../../lib/gcc/pic32mx/4.8.3/../../../../pic32mx/lib\libpic32.a(default-simple-tlb-refill-exception-handler.o)
 .reginfo       0x00000000       0x18 c:/program files (x86)/microchip/xc32/v1.42/bin/bin/../../lib/gcc/pic32mx/4.8.3/../../../../pic32mx/lib\libpic32.a(default-simple-tlb-refill-exception-handler.o)
 .text          0x00000000        0x0 c:/program files (x86)/microchip/xc32/v1.42/bin/bin/../../lib/gcc/pic32mx/4.8.3/../../../../pic32mx/lib\libm.a(fp32div.o)
 .data          0x00000000        0x0 c:/program files (x86)/microchip/xc32/v1.42/bin/bin/../../lib/gcc/pic32mx/4.8.3/../../../../pic32mx/lib\libm.a(fp32div.o)
 .bss           0x00000000        0x0 c:/program files (x86)/microchip/xc32/v1.42/bin/bin/../../lib/gcc/pic32mx/4.8.3/../../../../pic32mx/lib\libm.a(fp32div.o)
 .reginfo       0x00000000       0x18 c:/program files (x86)/microchip/xc32/v1.42/bin/bin/../../lib/gcc/pic32mx/4.8.3/../../../../pic32mx/lib\libm.a(fp32div.o)
 .text          0x00000000        0x0 c:/program files (x86)/microchip/xc32/v1.42/bin/bin/../../lib/gcc/pic32mx/4.8.3/../../../../pic32mx/lib\libm.a(fp32mul.o)
 .data          0x00000000        0x0 c:/program files (x86)/microchip/xc32/v1.42/bin/bin/../../lib/gcc/pic32mx/4.8.3/../../../../pic32mx/lib\libm.a(fp32mul.o)
 .bss           0x00000000        0x0 c:/program files (x86)/microchip/xc32/v1.42/bin/bin/../../lib/gcc/pic32mx/4.8.3/../../../../pic32mx/lib\libm.a(fp32mul.o)
 .reginfo       0x00000000       0x18 c:/program files (x86)/microchip/xc32/v1.42/bin/bin/../../lib/gcc/pic32mx/4.8.3/../../../../pic32mx/lib\libm.a(fp32mul.o)
 .text          0x00000000        0x0 c:/program files (x86)/microchip/xc32/v1.42/bin/bin/../../lib/gcc/pic32mx/4.8.3/../../../../pic32mx/lib\libm.a(fp32subadd.o)
 .data          0x00000000        0x0 c:/program files (x86)/microchip/xc32/v1.42/bin/bin/../../lib/gcc/pic32mx/4.8.3/../../../../pic32mx/lib\libm.a(fp32subadd.o)
 .bss           0x00000000        0x0 c:/program files (x86)/microchip/xc32/v1.42/bin/bin/../../lib/gcc/pic32mx/4.8.3/../../../../pic32mx/lib\libm.a(fp32subadd.o)
 .reginfo       0x00000000       0x18 c:/program files (x86)/microchip/xc32/v1.42/bin/bin/../../lib/gcc/pic32mx/4.8.3/../../../../pic32mx/lib\libm.a(fp32subadd.o)
 .text          0x00000000        0x0 c:/program files (x86)/microchip/xc32/v1.42/bin/bin/../../lib/gcc/pic32mx/4.8.3/../../../../pic32mx/lib\libm.a(fpcmp.o)
 .data          0x00000000        0x0 c:/program files (x86)/microchip/xc32/v1.42/bin/bin/../../lib/gcc/pic32mx/4.8.3/../../../../pic32mx/lib\libm.a(fpcmp.o)
 .bss           0x00000000        0x0 c:/program files (x86)/microchip/xc32/v1.42/bin/bin/../../lib/gcc/pic32mx/4.8.3/../../../../pic32mx/lib\libm.a(fpcmp.o)
 .reginfo       0x00000000       0x18 c:/program files (x86)/microchip/xc32/v1.42/bin/bin/../../lib/gcc/pic32mx/4.8.3/../../../../pic32mx/lib\libm.a(fpcmp.o)
 .text.fpcmp    0x00000000       0x9c c:/program files (x86)/microchip/xc32/v1.42/bin/bin/../../lib/gcc/pic32mx/4.8.3/../../../../pic32mx/lib\libm.a(fpcmp.o)
 .text          0x00000000        0x0 c:/program files (x86)/microchip/xc32/v1.42/bin/bin/../../lib/gcc/pic32mx/4.8.3/../../../../pic32mx/lib\libm.a(fptoul.o)
 .data          0x00000000        0x0 c:/program files (x86)/microchip/xc32/v1.42/bin/bin/../../lib/gcc/pic32mx/4.8.3/../../../../pic32mx/lib\libm.a(fptoul.o)
 .bss           0x00000000        0x0 c:/program files (x86)/microchip/xc32/v1.42/bin/bin/../../lib/gcc/pic32mx/4.8.3/../../../../pic32mx/lib\libm.a(fptoul.o)
 .reginfo       0x00000000       0x18 c:/program files (x86)/microchip/xc32/v1.42/bin/bin/../../lib/gcc/pic32mx/4.8.3/../../../../pic32mx/lib\libm.a(fptoul.o)
 .text          0x00000000        0x0 c:/program files (x86)/microchip/xc32/v1.42/bin/bin/../../lib/gcc/pic32mx/4.8.3/../../../../pic32mx/lib\libm.a(sitofp.o)
 .data          0x00000000        0x0 c:/program files (x86)/microchip/xc32/v1.42/bin/bin/../../lib/gcc/pic32mx/4.8.3/../../../../pic32mx/lib\libm.a(sitofp.o)
 .bss           0x00000000        0x0 c:/program files (x86)/microchip/xc32/v1.42/bin/bin/../../lib/gcc/pic32mx/4.8.3/../../../../pic32mx/lib\libm.a(sitofp.o)
 .reginfo       0x00000000       0x18 c:/program files (x86)/microchip/xc32/v1.42/bin/bin/../../lib/gcc/pic32mx/4.8.3/../../../../pic32mx/lib\libm.a(sitofp.o)
 .text          0x00000000        0x0 c:/program files (x86)/microchip/xc32/v1.42/bin/bin/../../lib/gcc/pic32mx/4.8.3/../../../../pic32mx/lib\libc.a(fclose.o)
 .data          0x00000000        0x0 c:/program files (x86)/microchip/xc32/v1.42/bin/bin/../../lib/gcc/pic32mx/4.8.3/../../../../pic32mx/lib\libc.a(fclose.o)
 .bss           0x00000000        0x0 c:/program files (x86)/microchip/xc32/v1.42/bin/bin/../../lib/gcc/pic32mx/4.8.3/../../../../pic32mx/lib\libc.a(fclose.o)
 .reginfo       0x00000000       0x18 c:/program files (x86)/microchip/xc32/v1.42/bin/bin/../../lib/gcc/pic32mx/4.8.3/../../../../pic32mx/lib\libc.a(fclose.o)
 .text.fclose   0x00000000      0x118 c:/program files (x86)/microchip/xc32/v1.42/bin/bin/../../lib/gcc/pic32mx/4.8.3/../../../../pic32mx/lib\libc.a(fclose.o)
 .text          0x00000000        0x0 c:/program files (x86)/microchip/xc32/v1.42/bin/bin/../../lib/gcc/pic32mx/4.8.3/../../../../pic32mx/lib\libc.a(fflush.o)
 .data          0x00000000        0x0 c:/program files (x86)/microchip/xc32/v1.42/bin/bin/../../lib/gcc/pic32mx/4.8.3/../../../../pic32mx/lib\libc.a(fflush.o)
 .bss           0x00000000        0x0 c:/program files (x86)/microchip/xc32/v1.42/bin/bin/../../lib/gcc/pic32mx/4.8.3/../../../../pic32mx/lib\libc.a(fflush.o)
 .reginfo       0x00000000       0x18 c:/program files (x86)/microchip/xc32/v1.42/bin/bin/../../lib/gcc/pic32mx/4.8.3/../../../../pic32mx/lib\libc.a(fflush.o)
 .text.fflush   0x00000000       0xa0 c:/program files (x86)/microchip/xc32/v1.42/bin/bin/../../lib/gcc/pic32mx/4.8.3/../../../../pic32mx/lib\libc.a(fflush.o)
 .text          0x00000000        0x0 c:/program files (x86)/microchip/xc32/v1.42/bin/bin/../../lib/gcc/pic32mx/4.8.3/../../../../pic32mx/lib\libc.a(fopen.o)
 .data          0x00000000        0x0 c:/program files (x86)/microchip/xc32/v1.42/bin/bin/../../lib/gcc/pic32mx/4.8.3/../../../../pic32mx/lib\libc.a(fopen.o)
 .bss           0x00000000        0x0 c:/program files (x86)/microchip/xc32/v1.42/bin/bin/../../lib/gcc/pic32mx/4.8.3/../../../../pic32mx/lib\libc.a(fopen.o)
 .reginfo       0x00000000       0x18 c:/program files (x86)/microchip/xc32/v1.42/bin/bin/../../lib/gcc/pic32mx/4.8.3/../../../../pic32mx/lib\libc.a(fopen.o)
 .text.fopen    0x00000000       0x4c c:/program files (x86)/microchip/xc32/v1.42/bin/bin/../../lib/gcc/pic32mx/4.8.3/../../../../pic32mx/lib\libc.a(fopen.o)
 .text          0x00000000        0x0 c:/program files (x86)/microchip/xc32/v1.42/bin/bin/../../lib/gcc/pic32mx/4.8.3/../../../../pic32mx/lib\libc.a(fread.o)
 .data          0x00000000        0x0 c:/program files (x86)/microchip/xc32/v1.42/bin/bin/../../lib/gcc/pic32mx/4.8.3/../../../../pic32mx/lib\libc.a(fread.o)
 .bss           0x00000000        0x0 c:/program files (x86)/microchip/xc32/v1.42/bin/bin/../../lib/gcc/pic32mx/4.8.3/../../../../pic32mx/lib\libc.a(fread.o)
 .reginfo       0x00000000       0x18 c:/program files (x86)/microchip/xc32/v1.42/bin/bin/../../lib/gcc/pic32mx/4.8.3/../../../../pic32mx/lib\libc.a(fread.o)
 .text.fread    0x00000000      0x188 c:/program files (x86)/microchip/xc32/v1.42/bin/bin/../../lib/gcc/pic32mx/4.8.3/../../../../pic32mx/lib\libc.a(fread.o)
 .text          0x00000000        0x0 c:/program files (x86)/microchip/xc32/v1.42/bin/bin/../../lib/gcc/pic32mx/4.8.3/../../../../pic32mx/lib\libc.a(freopen.o)
 .data          0x00000000        0x0 c:/program files (x86)/microchip/xc32/v1.42/bin/bin/../../lib/gcc/pic32mx/4.8.3/../../../../pic32mx/lib\libc.a(freopen.o)
 .bss           0x00000000        0x0 c:/program files (x86)/microchip/xc32/v1.42/bin/bin/../../lib/gcc/pic32mx/4.8.3/../../../../pic32mx/lib\libc.a(freopen.o)
 .reginfo       0x00000000       0x18 c:/program files (x86)/microchip/xc32/v1.42/bin/bin/../../lib/gcc/pic32mx/4.8.3/../../../../pic32mx/lib\libc.a(freopen.o)
 .text.freopen  0x00000000      0x238 c:/program files (x86)/microchip/xc32/v1.42/bin/bin/../../lib/gcc/pic32mx/4.8.3/../../../../pic32mx/lib\libc.a(freopen.o)
 .text          0x00000000        0x0 c:/program files (x86)/microchip/xc32/v1.42/bin/bin/../../lib/gcc/pic32mx/4.8.3/../../../../pic32mx/lib\libc.a(fseek.o)
 .data          0x00000000        0x0 c:/program files (x86)/microchip/xc32/v1.42/bin/bin/../../lib/gcc/pic32mx/4.8.3/../../../../pic32mx/lib\libc.a(fseek.o)
 .bss           0x00000000        0x0 c:/program files (x86)/microchip/xc32/v1.42/bin/bin/../../lib/gcc/pic32mx/4.8.3/../../../../pic32mx/lib\libc.a(fseek.o)
 .reginfo       0x00000000       0x18 c:/program files (x86)/microchip/xc32/v1.42/bin/bin/../../lib/gcc/pic32mx/4.8.3/../../../../pic32mx/lib\libc.a(fseek.o)
 .text.ftell    0x00000000       0x74 c:/program files (x86)/microchip/xc32/v1.42/bin/bin/../../lib/gcc/pic32mx/4.8.3/../../../../pic32mx/lib\libc.a(fseek.o)
 .text.fseek    0x00000000      0x1ac c:/program files (x86)/microchip/xc32/v1.42/bin/bin/../../lib/gcc/pic32mx/4.8.3/../../../../pic32mx/lib\libc.a(fseek.o)
 .text          0x00000000        0x0 c:/program files (x86)/microchip/xc32/v1.42/bin/bin/../../lib/gcc/pic32mx/4.8.3/../../../../pic32mx/lib\libc.a(fwrite.o)
 .data          0x00000000        0x0 c:/program files (x86)/microchip/xc32/v1.42/bin/bin/../../lib/gcc/pic32mx/4.8.3/../../../../pic32mx/lib\libc.a(fwrite.o)
 .bss           0x00000000        0x0 c:/program files (x86)/microchip/xc32/v1.42/bin/bin/../../lib/gcc/pic32mx/4.8.3/../../../../pic32mx/lib\libc.a(fwrite.o)
 .reginfo       0x00000000       0x18 c:/program files (x86)/microchip/xc32/v1.42/bin/bin/../../lib/gcc/pic32mx/4.8.3/../../../../pic32mx/lib\libc.a(fwrite.o)
 .text.fwrite   0x00000000      0x214 c:/program files (x86)/microchip/xc32/v1.42/bin/bin/../../lib/gcc/pic32mx/4.8.3/../../../../pic32mx/lib\libc.a(fwrite.o)
 .text          0x00000000        0x0 c:/program files (x86)/microchip/xc32/v1.42/bin/bin/../../lib/gcc/pic32mx/4.8.3/../../../../pic32mx/lib\libc.a(buf.o)
 .data          0x00000000        0x0 c:/program files (x86)/microchip/xc32/v1.42/bin/bin/../../lib/gcc/pic32mx/4.8.3/../../../../pic32mx/lib\libc.a(buf.o)
 .bss           0x00000000        0x4 c:/program files (x86)/microchip/xc32/v1.42/bin/bin/../../lib/gcc/pic32mx/4.8.3/../../../../pic32mx/lib\libc.a(buf.o)
 .reginfo       0x00000000       0x18 c:/program files (x86)/microchip/xc32/v1.42/bin/bin/../../lib/gcc/pic32mx/4.8.3/../../../../pic32mx/lib\libc.a(buf.o)
 .text._bufallo
                0x00000000       0x5c c:/program files (x86)/microchip/xc32/v1.42/bin/bin/../../lib/gcc/pic32mx/4.8.3/../../../../pic32mx/lib\libc.a(buf.o)
 .text._buffree
                0x00000000       0x14 c:/program files (x86)/microchip/xc32/v1.42/bin/bin/../../lib/gcc/pic32mx/4.8.3/../../../../pic32mx/lib\libc.a(buf.o)
 .text          0x00000000        0x0 c:/program files (x86)/microchip/xc32/v1.42/bin/bin/../../lib/gcc/pic32mx/4.8.3/../../../../pic32mx/lib\libc.a(calloc.o)
 .data          0x00000000        0x0 c:/program files (x86)/microchip/xc32/v1.42/bin/bin/../../lib/gcc/pic32mx/4.8.3/../../../../pic32mx/lib\libc.a(calloc.o)
 .bss           0x00000000        0x0 c:/program files (x86)/microchip/xc32/v1.42/bin/bin/../../lib/gcc/pic32mx/4.8.3/../../../../pic32mx/lib\libc.a(calloc.o)
 .reginfo       0x00000000       0x18 c:/program files (x86)/microchip/xc32/v1.42/bin/bin/../../lib/gcc/pic32mx/4.8.3/../../../../pic32mx/lib\libc.a(calloc.o)
 .text          0x00000000        0x0 c:/program files (x86)/microchip/xc32/v1.42/bin/bin/../../lib/gcc/pic32mx/4.8.3/../../../../pic32mx/lib\libc.a(errno.o)
 .data          0x00000000        0x0 c:/program files (x86)/microchip/xc32/v1.42/bin/bin/../../lib/gcc/pic32mx/4.8.3/../../../../pic32mx/lib\libc.a(errno.o)
 .bss           0x00000000        0x0 c:/program files (x86)/microchip/xc32/v1.42/bin/bin/../../lib/gcc/pic32mx/4.8.3/../../../../pic32mx/lib\libc.a(errno.o)
 .reginfo       0x00000000       0x18 c:/program files (x86)/microchip/xc32/v1.42/bin/bin/../../lib/gcc/pic32mx/4.8.3/../../../../pic32mx/lib\libc.a(errno.o)
 .text          0x00000000        0x0 c:/program files (x86)/microchip/xc32/v1.42/bin/bin/../../lib/gcc/pic32mx/4.8.3/../../../../pic32mx/lib\libc.a(malloc.o)
 .data          0x00000000        0x0 c:/program files (x86)/microchip/xc32/v1.42/bin/bin/../../lib/gcc/pic32mx/4.8.3/../../../../pic32mx/lib\libc.a(malloc.o)
 .reginfo       0x00000000       0x18 c:/program files (x86)/microchip/xc32/v1.42/bin/bin/../../lib/gcc/pic32mx/4.8.3/../../../../pic32mx/lib\libc.a(malloc.o)
 .text          0x00000000        0x0 c:/program files (x86)/microchip/xc32/v1.42/bin/bin/../../lib/gcc/pic32mx/4.8.3/../../../../pic32mx/lib\libc.a(tfiles.o)
 .data          0x00000000        0x0 c:/program files (x86)/microchip/xc32/v1.42/bin/bin/../../lib/gcc/pic32mx/4.8.3/../../../../pic32mx/lib\libc.a(tfiles.o)
 .bss           0x00000000        0x4 c:/program files (x86)/microchip/xc32/v1.42/bin/bin/../../lib/gcc/pic32mx/4.8.3/../../../../pic32mx/lib\libc.a(tfiles.o)
 .reginfo       0x00000000       0x18 c:/program files (x86)/microchip/xc32/v1.42/bin/bin/../../lib/gcc/pic32mx/4.8.3/../../../../pic32mx/lib\libc.a(tfiles.o)
 .text          0x00000000        0x0 c:/program files (x86)/microchip/xc32/v1.42/bin/bin/../../lib/gcc/pic32mx/4.8.3/../../../../pic32mx/lib\libc.a(_iob.o)
 .data          0x00000000       0xa4 c:/program files (x86)/microchip/xc32/v1.42/bin/bin/../../lib/gcc/pic32mx/4.8.3/../../../../pic32mx/lib\libc.a(_iob.o)
 .bss           0x00000000       0x44 c:/program files (x86)/microchip/xc32/v1.42/bin/bin/../../lib/gcc/pic32mx/4.8.3/../../../../pic32mx/lib\libc.a(_iob.o)
 .reginfo       0x00000000       0x18 c:/program files (x86)/microchip/xc32/v1.42/bin/bin/../../lib/gcc/pic32mx/4.8.3/../../../../pic32mx/lib\libc.a(_iob.o)
 .text          0x00000000        0x0 c:/program files (x86)/microchip/xc32/v1.42/bin/bin/../../lib/gcc/pic32mx/4.8.3/../../../../pic32mx/lib\libc.a(fgetc.o)
 .data          0x00000000        0x0 c:/program files (x86)/microchip/xc32/v1.42/bin/bin/../../lib/gcc/pic32mx/4.8.3/../../../../pic32mx/lib\libc.a(fgetc.o)
 .bss           0x00000000        0x0 c:/program files (x86)/microchip/xc32/v1.42/bin/bin/../../lib/gcc/pic32mx/4.8.3/../../../../pic32mx/lib\libc.a(fgetc.o)
 .reginfo       0x00000000       0x18 c:/program files (x86)/microchip/xc32/v1.42/bin/bin/../../lib/gcc/pic32mx/4.8.3/../../../../pic32mx/lib\libc.a(fgetc.o)
 .text.fgetc    0x00000000      0x104 c:/program files (x86)/microchip/xc32/v1.42/bin/bin/../../lib/gcc/pic32mx/4.8.3/../../../../pic32mx/lib\libc.a(fgetc.o)
 .text          0x00000000        0x0 c:/program files (x86)/microchip/xc32/v1.42/bin/bin/../../lib/gcc/pic32mx/4.8.3/../../../../pic32mx/lib\libc.a(_fputc_simple.o)
 .data          0x00000000        0x0 c:/program files (x86)/microchip/xc32/v1.42/bin/bin/../../lib/gcc/pic32mx/4.8.3/../../../../pic32mx/lib\libc.a(_fputc_simple.o)
 .bss           0x00000000        0x0 c:/program files (x86)/microchip/xc32/v1.42/bin/bin/../../lib/gcc/pic32mx/4.8.3/../../../../pic32mx/lib\libc.a(_fputc_simple.o)
 .reginfo       0x00000000       0x18 c:/program files (x86)/microchip/xc32/v1.42/bin/bin/../../lib/gcc/pic32mx/4.8.3/../../../../pic32mx/lib\libc.a(_fputc_simple.o)
 .text.fputc    0x00000000      0x144 c:/program files (x86)/microchip/xc32/v1.42/bin/bin/../../lib/gcc/pic32mx/4.8.3/../../../../pic32mx/lib\libc.a(_fputc_simple.o)
 .text          0x00000000        0x0 c:/program files (x86)/microchip/xc32/v1.42/bin/bin/../../lib/gcc/pic32mx/4.8.3/../../../../pic32mx/lib\libc.a(filbuf.o)
 .data          0x00000000        0x0 c:/program files (x86)/microchip/xc32/v1.42/bin/bin/../../lib/gcc/pic32mx/4.8.3/../../../../pic32mx/lib\libc.a(filbuf.o)
 .bss           0x00000000        0x0 c:/program files (x86)/microchip/xc32/v1.42/bin/bin/../../lib/gcc/pic32mx/4.8.3/../../../../pic32mx/lib\libc.a(filbuf.o)
 .reginfo       0x00000000       0x18 c:/program files (x86)/microchip/xc32/v1.42/bin/bin/../../lib/gcc/pic32mx/4.8.3/../../../../pic32mx/lib\libc.a(filbuf.o)
 .text._filbuf  0x00000000      0x188 c:/program files (x86)/microchip/xc32/v1.42/bin/bin/../../lib/gcc/pic32mx/4.8.3/../../../../pic32mx/lib\libc.a(filbuf.o)
 .text          0x00000000        0x0 c:/program files (x86)/microchip/xc32/v1.42/bin/bin/../../lib/gcc/pic32mx/4.8.3/../../../../pic32mx/lib\libc.a(_flsbuf_simple.o)
 .data          0x00000000        0x0 c:/program files (x86)/microchip/xc32/v1.42/bin/bin/../../lib/gcc/pic32mx/4.8.3/../../../../pic32mx/lib\libc.a(_flsbuf_simple.o)
 .bss           0x00000000        0x0 c:/program files (x86)/microchip/xc32/v1.42/bin/bin/../../lib/gcc/pic32mx/4.8.3/../../../../pic32mx/lib\libc.a(_flsbuf_simple.o)
 .reginfo       0x00000000       0x18 c:/program files (x86)/microchip/xc32/v1.42/bin/bin/../../lib/gcc/pic32mx/4.8.3/../../../../pic32mx/lib\libc.a(_flsbuf_simple.o)
 .text._flsbuf  0x00000000      0x12c c:/program files (x86)/microchip/xc32/v1.42/bin/bin/../../lib/gcc/pic32mx/4.8.3/../../../../pic32mx/lib\libc.a(_flsbuf_simple.o)
 .text          0x00000000        0x0 c:/program files (x86)/microchip/xc32/v1.42/bin/bin/../../lib/gcc/pic32mx/4.8.3/../../../../pic32mx/lib\libpic32.a(sbrk.o)
 .data          0x00000000        0x0 c:/program files (x86)/microchip/xc32/v1.42/bin/bin/../../lib/gcc/pic32mx/4.8.3/../../../../pic32mx/lib\libpic32.a(sbrk.o)
 .reginfo       0x00000000       0x18 c:/program files (x86)/microchip/xc32/v1.42/bin/bin/../../lib/gcc/pic32mx/4.8.3/../../../../pic32mx/lib\libpic32.a(sbrk.o)
 .text.getpagesize
                0x00000000        0x8 c:/program files (x86)/microchip/xc32/v1.42/bin/bin/../../lib/gcc/pic32mx/4.8.3/../../../../pic32mx/lib\libpic32.a(sbrk.o)
 .text          0x00000000        0x0 c:/program files (x86)/microchip/xc32/v1.42/bin/bin/../../lib/gcc/pic32mx/4.8.3/../../../../pic32mx/lib\libpic32.a(read.o)
 .data          0x00000000        0x0 c:/program files (x86)/microchip/xc32/v1.42/bin/bin/../../lib/gcc/pic32mx/4.8.3/../../../../pic32mx/lib\libpic32.a(read.o)
 .bss           0x00000000        0x0 c:/program files (x86)/microchip/xc32/v1.42/bin/bin/../../lib/gcc/pic32mx/4.8.3/../../../../pic32mx/lib\libpic32.a(read.o)
 .reginfo       0x00000000       0x18 c:/program files (x86)/microchip/xc32/v1.42/bin/bin/../../lib/gcc/pic32mx/4.8.3/../../../../pic32mx/lib\libpic32.a(read.o)
 .text.read     0x00000000      0x158 c:/program files (x86)/microchip/xc32/v1.42/bin/bin/../../lib/gcc/pic32mx/4.8.3/../../../../pic32mx/lib\libpic32.a(read.o)
 .text          0x00000000        0x0 c:/program files (x86)/microchip/xc32/v1.42/bin/bin/../../lib/gcc/pic32mx/4.8.3/../../../../pic32mx/lib\libpic32.a(write.o)
 .data          0x00000000        0x0 c:/program files (x86)/microchip/xc32/v1.42/bin/bin/../../lib/gcc/pic32mx/4.8.3/../../../../pic32mx/lib\libpic32.a(write.o)
 .bss           0x00000000        0x0 c:/program files (x86)/microchip/xc32/v1.42/bin/bin/../../lib/gcc/pic32mx/4.8.3/../../../../pic32mx/lib\libpic32.a(write.o)
 .reginfo       0x00000000       0x18 c:/program files (x86)/microchip/xc32/v1.42/bin/bin/../../lib/gcc/pic32mx/4.8.3/../../../../pic32mx/lib\libpic32.a(write.o)
 .text.write    0x00000000       0x9c c:/program files (x86)/microchip/xc32/v1.42/bin/bin/../../lib/gcc/pic32mx/4.8.3/../../../../pic32mx/lib\libpic32.a(write.o)
 .text          0x00000000        0x0 c:/program files (x86)/microchip/xc32/v1.42/bin/bin/../../lib/gcc/pic32mx/4.8.3/../../../../pic32mx/lib\libpic32.a(lseek.o)
 .data          0x00000000        0x0 c:/program files (x86)/microchip/xc32/v1.42/bin/bin/../../lib/gcc/pic32mx/4.8.3/../../../../pic32mx/lib\libpic32.a(lseek.o)
 .bss           0x00000000        0x0 c:/program files (x86)/microchip/xc32/v1.42/bin/bin/../../lib/gcc/pic32mx/4.8.3/../../../../pic32mx/lib\libpic32.a(lseek.o)
 .reginfo       0x00000000       0x18 c:/program files (x86)/microchip/xc32/v1.42/bin/bin/../../lib/gcc/pic32mx/4.8.3/../../../../pic32mx/lib\libpic32.a(lseek.o)
 .text.lseek    0x00000000        0x8 c:/program files (x86)/microchip/xc32/v1.42/bin/bin/../../lib/gcc/pic32mx/4.8.3/../../../../pic32mx/lib\libpic32.a(lseek.o)
 .text          0x00000000        0x0 c:/program files (x86)/microchip/xc32/v1.42/bin/bin/../../lib/gcc/pic32mx/4.8.3/../../../../pic32mx/lib\libpic32.a(remove.o)
 .data          0x00000000        0x0 c:/program files (x86)/microchip/xc32/v1.42/bin/bin/../../lib/gcc/pic32mx/4.8.3/../../../../pic32mx/lib\libpic32.a(remove.o)
 .bss           0x00000000        0x0 c:/program files (x86)/microchip/xc32/v1.42/bin/bin/../../lib/gcc/pic32mx/4.8.3/../../../../pic32mx/lib\libpic32.a(remove.o)
 .reginfo       0x00000000       0x18 c:/program files (x86)/microchip/xc32/v1.42/bin/bin/../../lib/gcc/pic32mx/4.8.3/../../../../pic32mx/lib\libpic32.a(remove.o)
 .text.remove   0x00000000        0x8 c:/program files (x86)/microchip/xc32/v1.42/bin/bin/../../lib/gcc/pic32mx/4.8.3/../../../../pic32mx/lib\libpic32.a(remove.o)
 .text          0x00000000        0x0 c:/program files (x86)/microchip/xc32/v1.42/bin/bin/../../lib/gcc/pic32mx/4.8.3/../../../../pic32mx/lib\libpic32.a(close.o)
 .data          0x00000000        0x0 c:/program files (x86)/microchip/xc32/v1.42/bin/bin/../../lib/gcc/pic32mx/4.8.3/../../../../pic32mx/lib\libpic32.a(close.o)
 .bss           0x00000000        0x0 c:/program files (x86)/microchip/xc32/v1.42/bin/bin/../../lib/gcc/pic32mx/4.8.3/../../../../pic32mx/lib\libpic32.a(close.o)
 .reginfo       0x00000000       0x18 c:/program files (x86)/microchip/xc32/v1.42/bin/bin/../../lib/gcc/pic32mx/4.8.3/../../../../pic32mx/lib\libpic32.a(close.o)
 .text.close    0x00000000        0x8 c:/program files (x86)/microchip/xc32/v1.42/bin/bin/../../lib/gcc/pic32mx/4.8.3/../../../../pic32mx/lib\libpic32.a(close.o)
 .text          0x00000000        0x0 c:/program files (x86)/microchip/xc32/v1.42/bin/bin/../../lib/gcc/pic32mx/4.8.3/../../../../pic32mx/lib\libpic32.a(open.o)
 .data          0x00000000        0x0 c:/program files (x86)/microchip/xc32/v1.42/bin/bin/../../lib/gcc/pic32mx/4.8.3/../../../../pic32mx/lib\libpic32.a(open.o)
 .bss           0x00000000        0x0 c:/program files (x86)/microchip/xc32/v1.42/bin/bin/../../lib/gcc/pic32mx/4.8.3/../../../../pic32mx/lib\libpic32.a(open.o)
 .reginfo       0x00000000       0x18 c:/program files (x86)/microchip/xc32/v1.42/bin/bin/../../lib/gcc/pic32mx/4.8.3/../../../../pic32mx/lib\libpic32.a(open.o)
 .text.open     0x00000000       0x14 c:/program files (x86)/microchip/xc32/v1.42/bin/bin/../../lib/gcc/pic32mx/4.8.3/../../../../pic32mx/lib\libpic32.a(open.o)
 .text          0x00000000        0x0 c:/program files (x86)/microchip/xc32/v1.42/bin/bin/../../lib/gcc/pic32mx/4.8.3/../../../../pic32mx/lib\libpic32.a(xc32_uart.o)
 .data          0x00000000        0x0 c:/program files (x86)/microchip/xc32/v1.42/bin/bin/../../lib/gcc/pic32mx/4.8.3/../../../../pic32mx/lib\libpic32.a(xc32_uart.o)
 .bss           0x00000000        0x0 c:/program files (x86)/microchip/xc32/v1.42/bin/bin/../../lib/gcc/pic32mx/4.8.3/../../../../pic32mx/lib\libpic32.a(xc32_uart.o)
 .reginfo       0x00000000       0x18 c:/program files (x86)/microchip/xc32/v1.42/bin/bin/../../lib/gcc/pic32mx/4.8.3/../../../../pic32mx/lib\libpic32.a(xc32_uart.o)
 .text          0x00000000        0x0 c:/program files (x86)/microchip/xc32/v1.42/bin/bin/../../lib/gcc/pic32mx/4.8.3/../../../../pic32mx/lib\libpic32.a(_mon_putc.o)
 .data          0x00000000        0x0 c:/program files (x86)/microchip/xc32/v1.42/bin/bin/../../lib/gcc/pic32mx/4.8.3/../../../../pic32mx/lib\libpic32.a(_mon_putc.o)
 .bss           0x00000000        0x0 c:/program files (x86)/microchip/xc32/v1.42/bin/bin/../../lib/gcc/pic32mx/4.8.3/../../../../pic32mx/lib\libpic32.a(_mon_putc.o)
 .reginfo       0x00000000       0x18 c:/program files (x86)/microchip/xc32/v1.42/bin/bin/../../lib/gcc/pic32mx/4.8.3/../../../../pic32mx/lib\libpic32.a(_mon_putc.o)
 .text._mon_putc
                0x00000000       0xd4 c:/program files (x86)/microchip/xc32/v1.42/bin/bin/../../lib/gcc/pic32mx/4.8.3/../../../../pic32mx/lib\libpic32.a(_mon_putc.o)

Memory Configuration

Name             Origin             Length             Attributes
kseg0_program_mem 0x9d000000         0x00200000         xr
kseg0_boot_mem   0x9fc004b0         0x00000000
kseg1_boot_mem   0xbfc00000         0x00000480
kseg1_boot_mem_4B0 0xbfc004b0         0x0000fa50
config_BFC0FF40  0xbfc0ff40         0x00000004
config_BFC0FF44  0xbfc0ff44         0x00000004
config_BFC0FF48  0xbfc0ff48         0x00000004
config_BFC0FF4C  0xbfc0ff4c         0x00000004
config_BFC0FF50  0xbfc0ff50         0x00000004
config_BFC0FF54  0xbfc0ff54         0x00000004
config_BFC0FF58  0xbfc0ff58         0x00000004
config_BFC0FF5C  0xbfc0ff5c         0x00000004
config_BFC0FF60  0xbfc0ff60         0x00000004
config_BFC0FF64  0xbfc0ff64         0x00000004
config_BFC0FF68  0xbfc0ff68         0x00000004
config_BFC0FF6C  0xbfc0ff6c         0x00000004
config_BFC0FF70  0xbfc0ff70         0x00000004
config_BFC0FF74  0xbfc0ff74         0x00000004
config_BFC0FF78  0xbfc0ff78         0x00000004
config_BFC0FF7C  0xbfc0ff7c         0x00000004
config_BFC0FFC0  0xbfc0ffc0         0x00000004
config_BFC0FFC4  0xbfc0ffc4         0x00000004
config_BFC0FFC8  0xbfc0ffc8         0x00000004
config_BFC0FFCC  0xbfc0ffcc         0x00000004
config_BFC0FFD0  0xbfc0ffd0         0x00000004
config_BFC0FFD4  0xbfc0ffd4         0x00000004
config_BFC0FFD8  0xbfc0ffd8         0x00000004
config_BFC0FFDC  0xbfc0ffdc         0x00000004
config_BFC0FFE0  0xbfc0ffe0         0x00000004
config_BFC0FFE4  0xbfc0ffe4         0x00000004
config_BFC0FFE8  0xbfc0ffe8         0x00000004
config_BFC0FFEC  0xbfc0ffec         0x00000004
config_BFC0FFF0  0xbfc0fff0         0x00000004
config_BFC0FFF4  0xbfc0fff4         0x00000004
config_BFC0FFF8  0xbfc0fff8         0x00000004
config_BFC0FFFC  0xbfc0fffc         0x00000004
lowerbootaliaslastpage 0xbfc10000         0x00004000
upperbootalias   0xbfc20000         0x0000ff00
config_BFC2FF40  0xbfc2ff40         0x00000004
config_BFC2FF44  0xbfc2ff44         0x00000004
config_BFC2FF48  0xbfc2ff48         0x00000004
config_BFC2FF4C  0xbfc2ff4c         0x00000004
config_BFC2FF50  0xbfc2ff50         0x00000004
config_BFC2FF54  0xbfc2ff54         0x00000004
config_BFC2FF58  0xbfc2ff58         0x00000004
config_BFC2FF5C  0xbfc2ff5c         0x00000004
config_BFC2FF60  0xbfc2ff60         0x00000004
config_BFC2FF64  0xbfc2ff64         0x00000004
config_BFC2FF68  0xbfc2ff68         0x00000004
config_BFC2FF6C  0xbfc2ff6c         0x00000004
config_BFC2FF70  0xbfc2ff70         0x00000004
config_BFC2FF74  0xbfc2ff74         0x00000004
config_BFC2FF78  0xbfc2ff78         0x00000004
config_BFC2FF7C  0xbfc2ff7c         0x00000004
config_BFC2FFC0  0xbfc2ffc0         0x00000004
config_BFC2FFC4  0xbfc2ffc4         0x00000004
config_BFC2FFC8  0xbfc2ffc8         0x00000004
config_BFC2FFCC  0xbfc2ffcc         0x00000004
config_BFC2FFD0  0xbfc2ffd0         0x00000004
config_BFC2FFD4  0xbfc2ffd4         0x00000004
config_BFC2FFD8  0xbfc2ffd8         0x00000004
config_BFC2FFDC  0xbfc2ffdc         0x00000004
config_BFC2FFE0  0xbfc2ffe0         0x00000004
config_BFC2FFE4  0xbfc2ffe4         0x00000004
config_BFC2FFE8  0xbfc2ffe8         0x00000004
config_BFC2FFEC  0xbfc2ffec         0x00000004
config_BFC2FFF0  0xbfc2fff0         0x00000004
config_BFC2FFF4  0xbfc2fff4         0x00000004
config_BFC2FFF8  0xbfc2fff8         0x00000004
config_BFC2FFFC  0xbfc2fffc         0x00000004
upperbootaliaslastpage 0xbfc30000         0x00004000
boot1            0xbfc40000         0x0000ff00
config_BFC4FF40  0xbfc4ff40         0x00000004
config_BFC4FF44  0xbfc4ff44         0x00000004
config_BFC4FF48  0xbfc4ff48         0x00000004
config_BFC4FF4C  0xbfc4ff4c         0x00000004
config_BFC4FF50  0xbfc4ff50         0x00000004
config_BFC4FF54  0xbfc4ff54         0x00000004
config_BFC4FF58  0xbfc4ff58         0x00000004
config_BFC4FF5C  0xbfc4ff5c         0x00000004
config_BFC4FF60  0xbfc4ff60         0x00000004
config_BFC4FF64  0xbfc4ff64         0x00000004
config_BFC4FF68  0xbfc4ff68         0x00000004
config_BFC4FF6C  0xbfc4ff6c         0x00000004
config_BFC4FF70  0xbfc4ff70         0x00000004
config_BFC4FF74  0xbfc4ff74         0x00000004
config_BFC4FF78  0xbfc4ff78         0x00000004
config_BFC4FF7C  0xbfc4ff7c         0x00000004
config_BFC4FFC0  0xbfc4ffc0         0x00000004
config_BFC4FFC4  0xbfc4ffc4         0x00000004
config_BFC4FFC8  0xbfc4ffc8         0x00000004
config_BFC4FFCC  0xbfc4ffcc         0x00000004
config_BFC4FFD0  0xbfc4ffd0         0x00000004
config_BFC4FFD4  0xbfc4ffd4         0x00000004
config_BFC4FFD8  0xbfc4ffd8         0x00000004
config_BFC4FFDC  0xbfc4ffdc         0x00000004
config_BFC4FFE0  0xbfc4ffe0         0x00000004
config_BFC4FFE4  0xbfc4ffe4         0x00000004
config_BFC4FFE8  0xbfc4ffe8         0x00000004
config_BFC4FFEC  0xbfc4ffec         0x00000004
config_BFC4FFF0  0xbfc4fff0         0x00000004
config_BFC4FFF4  0xbfc4fff4         0x00000004
config_BFC4FFF8  0xbfc4fff8         0x00000004
config_BFC4FFFC  0xbfc4fffc         0x00000004
boot1lastpage    0xbfc50000         0x00004000
config_BFC54000  0xbfc54000         0x00000004
config_BFC54004  0xbfc54004         0x00000004
config_BFC54008  0xbfc54008         0x00000004
config_BFC5400C  0xbfc5400c         0x00000004
config_BFC54010  0xbfc54010         0x00000004
config_BFC54020  0xbfc54020         0x00000004
config_BFC54024  0xbfc54024         0x00000004
boot2            0xbfc60000         0x0000ff00
config_BFC6FF40  0xbfc6ff40         0x00000004
config_BFC6FF44  0xbfc6ff44         0x00000004
config_BFC6FF48  0xbfc6ff48         0x00000004
config_BFC6FF4C  0xbfc6ff4c         0x00000004
config_BFC6FF50  0xbfc6ff50         0x00000004
config_BFC6FF54  0xbfc6ff54         0x00000004
config_BFC6FF58  0xbfc6ff58         0x00000004
config_BFC6FF5C  0xbfc6ff5c         0x00000004
config_BFC6FF60  0xbfc6ff60         0x00000004
config_BFC6FF64  0xbfc6ff64         0x00000004
config_BFC6FF68  0xbfc6ff68         0x00000004
config_BFC6FF6C  0xbfc6ff6c         0x00000004
config_BFC6FF70  0xbfc6ff70         0x00000004
config_BFC6FF74  0xbfc6ff74         0x00000004
config_BFC6FF78  0xbfc6ff78         0x00000004
config_BFC6FF7C  0xbfc6ff7c         0x00000004
config_BFC6FFC0  0xbfc6ffc0         0x00000004
config_BFC6FFC4  0xbfc6ffc4         0x00000004
config_BFC6FFC8  0xbfc6ffc8         0x00000004
config_BFC6FFCC  0xbfc6ffcc         0x00000004
config_BFC6FFD0  0xbfc6ffd0         0x00000004
config_BFC6FFD4  0xbfc6ffd4         0x00000004
config_BFC6FFD8  0xbfc6ffd8         0x00000004
config_BFC6FFDC  0xbfc6ffdc         0x00000004
config_BFC6FFE0  0xbfc6ffe0         0x00000004
config_BFC6FFE4  0xbfc6ffe4         0x00000004
config_BFC6FFE8  0xbfc6ffe8         0x00000004
config_BFC6FFEC  0xbfc6ffec         0x00000004
config_BFC6FFF0  0xbfc6fff0         0x00000004
config_BFC6FFF4  0xbfc6fff4         0x00000004
config_BFC6FFF8  0xbfc6fff8         0x00000004
config_BFC6FFFC  0xbfc6fffc         0x00000004
boot2lastpage    0xbfc70000         0x00004000
kseg0_data_mem   0x80000000         0x00080000         w !x
sfrs             0xbf800000         0x00100000
configsfrs_BFC0FF40 0xbfc0ff40         0x00000040
configsfrs_BFC0FFC0 0xbfc0ffc0         0x00000040
configsfrs_BFC2FF40 0xbfc2ff40         0x00000040
configsfrs_BFC2FFC0 0xbfc2ffc0         0x00000040
configsfrs_BFC4FF40 0xbfc4ff40         0x00000040
configsfrs_BFC4FFC0 0xbfc4ffc0         0x00000040
configsfrs_BFC54000 0xbfc54000         0x00000014
configsfrs_BFC54020 0xbfc54020         0x00000008
configsfrs_BFC6FF40 0xbfc6ff40         0x00000040
configsfrs_BFC6FFC0 0xbfc6ffc0         0x00000040
kseg2_ebi_data_mem 0xc0000000         0x04000000
kseg2_sqi_data_mem 0xd0000000         0x04000000
kseg3_ebi_data_mem 0xe0000000         0x04000000
kseg3_sqi_data_mem 0xf0000000         0x04000000
*default*        0x00000000         0xffffffff

Linker script and memory map

LOAD c:/program files (x86)/microchip/xc32/v1.42/bin/bin/../../lib/gcc/pic32mx/4.8.3/../../../../pic32mx/lib/./proc/32MZ2048ECG144/crt0_mips32r2.o
LOAD c:/program files (x86)/microchip/xc32/v1.42/bin/bin/../../lib/gcc/pic32mx/4.8.3/../../../../pic32mx/lib\debug-exception-return.o
LOAD build/pic32mz_ef_sk_meb2/production/_ext/1360937237/app.o
LOAD build/pic32mz_ef_sk_meb2/production/_ext/1360937237/main.o
LOAD build/pic32mz_ef_sk_meb2/production/_ext/1360937237/ov2640.o
LOAD build/pic32mz_ef_sk_meb2/production/_ext/1360937237/i2c_master_noint.o
LOAD build/pic32mz_ef_sk_meb2/production/_ext/1360937237/i2c_bitbanging.o
LOAD build/pic32mz_ef_sk_meb2/production/_ext/426253641/jidctint.o
LOAD build/pic32mz_ef_sk_meb2/production/_ext/1597685232/gfxu_image.o
LOAD build/pic32mz_ef_sk_meb2/production/_ext/1597685232/gfxu_image_png_external.o
LOAD build/pic32mz_ef_sk_meb2/production/_ext/1597685232/gfxu_image_png_internal.o
LOAD build/pic32mz_ef_sk_meb2/production/_ext/1597685232/gfxu_image_jpg_internal.o
LOAD build/pic32mz_ef_sk_meb2/production/_ext/493934858/lodepng.o
LOAD build/pic32mz_ef_sk_meb2/production/_ext/1597685232/gfxu_image_raw_external.o
LOAD build/pic32mz_ef_sk_meb2/production/_ext/1597685232/gfxu_image_raw_internal.o
LOAD build/pic32mz_ef_sk_meb2/production/_ext/1597685232/gfxu_image_rle_external.o
LOAD build/pic32mz_ef_sk_meb2/production/_ext/1597685232/gfxu_image_rle_internal.o
LOAD build/pic32mz_ef_sk_meb2/production/_ext/1597685232/gfxu_image_utils.o
LOAD build/pic32mz_ef_sk_meb2/production/_ext/1597685232/gfxu_palette.o
LOAD build/pic32mz_ef_sk_meb2/production/_ext/1597685232/gfxu_string.o
LOAD build/pic32mz_ef_sk_meb2/production/_ext/1597685232/gfxu_string_external.o
LOAD build/pic32mz_ef_sk_meb2/production/_ext/1597685232/gfxu_string_internal.o
LOAD build/pic32mz_ef_sk_meb2/production/_ext/1597685232/gfxu_string_query.o
LOAD build/pic32mz_ef_sk_meb2/production/_ext/1597685232/gfxu_string_utils.o
LOAD build/pic32mz_ef_sk_meb2/production/_ext/1907747181/libaria.o
LOAD build/pic32mz_ef_sk_meb2/production/_ext/1907747181/libaria_context.o
LOAD build/pic32mz_ef_sk_meb2/production/_ext/1907747181/libaria_context_paint.o
LOAD build/pic32mz_ef_sk_meb2/production/_ext/1907747181/libaria_draw.o
LOAD build/pic32mz_ef_sk_meb2/production/_ext/1907747181/libaria_editwidget.o
LOAD build/pic32mz_ef_sk_meb2/production/_ext/1907747181/libaria_event.o
LOAD build/pic32mz_ef_sk_meb2/production/_ext/1907747181/libaria_input.o
LOAD build/pic32mz_ef_sk_meb2/production/_ext/1907747181/libaria_layer.o
LOAD build/pic32mz_ef_sk_meb2/production/_ext/1907747181/libaria_list.o
LOAD build/pic32mz_ef_sk_meb2/production/_ext/1907747181/libaria_scheme.o
LOAD build/pic32mz_ef_sk_meb2/production/_ext/1907747181/libaria_screen.o
LOAD build/pic32mz_ef_sk_meb2/production/_ext/1907747181/libaria_string.o
LOAD build/pic32mz_ef_sk_meb2/production/_ext/1907747181/libaria_utils.o
LOAD build/pic32mz_ef_sk_meb2/production/_ext/1907747181/libaria_widget.o
LOAD build/pic32mz_ef_sk_meb2/production/_ext/1907747181/libaria_widget_skin_classic.o
LOAD build/pic32mz_ef_sk_meb2/production/_ext/1907747181/libaria_widget_button.o
LOAD build/pic32mz_ef_sk_meb2/production/_ext/1907747181/libaria_widget_button_skin_classic.o
LOAD build/pic32mz_ef_sk_meb2/production/_ext/1907747181/libaria_widget_checkbox.o
LOAD build/pic32mz_ef_sk_meb2/production/_ext/1907747181/libaria_widget_checkbox_skin_classic.o
LOAD build/pic32mz_ef_sk_meb2/production/_ext/1907747181/libaria_widget_circle.o
LOAD build/pic32mz_ef_sk_meb2/production/_ext/1907747181/libaria_widget_circle_skin_classic.o
LOAD build/pic32mz_ef_sk_meb2/production/_ext/1907747181/libaria_widget_drawsurface.o
LOAD build/pic32mz_ef_sk_meb2/production/_ext/1907747181/libaria_widget_drawsurface_skin_classic.o
LOAD build/pic32mz_ef_sk_meb2/production/_ext/1907747181/libaria_widget_gradient.o
LOAD build/pic32mz_ef_sk_meb2/production/_ext/1907747181/libaria_widget_gradient_skin_classic.o
LOAD build/pic32mz_ef_sk_meb2/production/_ext/1907747181/libaria_widget_groupbox.o
LOAD build/pic32mz_ef_sk_meb2/production/_ext/1907747181/libaria_widget_groupbox_skin_classic.o
LOAD build/pic32mz_ef_sk_meb2/production/_ext/1907747181/libaria_widget_image.o
LOAD build/pic32mz_ef_sk_meb2/production/_ext/1907747181/libaria_widget_image_skin_classic.o
LOAD build/pic32mz_ef_sk_meb2/production/_ext/1907747181/libaria_widget_imagesequence.o
LOAD build/pic32mz_ef_sk_meb2/production/_ext/1907747181/libaria_widget_imagesequence_skin_classic.o
LOAD build/pic32mz_ef_sk_meb2/production/_ext/1907747181/libaria_widget_keypad.o
LOAD build/pic32mz_ef_sk_meb2/production/_ext/1907747181/libaria_widget_keypad_skin_classic.o
LOAD build/pic32mz_ef_sk_meb2/production/_ext/1907747181/libaria_widget_label.o
LOAD build/pic32mz_ef_sk_meb2/production/_ext/1907747181/libaria_widget_label_skin_classic.o
LOAD build/pic32mz_ef_sk_meb2/production/_ext/1907747181/libaria_widget_line.o
LOAD build/pic32mz_ef_sk_meb2/production/_ext/1907747181/libaria_widget_line_skin_classic.o
LOAD build/pic32mz_ef_sk_meb2/production/_ext/1907747181/libaria_widget_list.o
LOAD build/pic32mz_ef_sk_meb2/production/_ext/1907747181/libaria_widget_list_skin_classic.o
LOAD build/pic32mz_ef_sk_meb2/production/_ext/1907747181/libaria_widget_listwheel.o
LOAD build/pic32mz_ef_sk_meb2/production/_ext/1907747181/libaria_widget_listwheel_skin_classic.o
LOAD build/pic32mz_ef_sk_meb2/production/_ext/1907747181/libaria_widget_progressbar.o
LOAD build/pic32mz_ef_sk_meb2/production/_ext/1907747181/libaria_widget_progressbar_skin_classic.o
LOAD build/pic32mz_ef_sk_meb2/production/_ext/1907747181/libaria_widget_radiobutton.o
LOAD build/pic32mz_ef_sk_meb2/production/_ext/1907747181/libaria_widget_radiobutton_skin_classic.o
LOAD build/pic32mz_ef_sk_meb2/production/_ext/1907747181/libaria_radiobutton_group.o
LOAD build/pic32mz_ef_sk_meb2/production/_ext/1907747181/libaria_widget_rectangle.o
LOAD build/pic32mz_ef_sk_meb2/production/_ext/1907747181/libaria_widget_rectangle_skin_classic.o
LOAD build/pic32mz_ef_sk_meb2/production/_ext/1907747181/libaria_widget_scrollbar.o
LOAD build/pic32mz_ef_sk_meb2/production/_ext/1907747181/libaria_widget_scrollbar_skin_classic.o
LOAD build/pic32mz_ef_sk_meb2/production/_ext/1907747181/libaria_widget_slider.o
LOAD build/pic32mz_ef_sk_meb2/production/_ext/1907747181/libaria_widget_slider_skin_classic.o
LOAD build/pic32mz_ef_sk_meb2/production/_ext/1907747181/libaria_widget_textfield.o
LOAD build/pic32mz_ef_sk_meb2/production/_ext/1907747181/libaria_widget_textfield_skin_classic.o
LOAD build/pic32mz_ef_sk_meb2/production/_ext/1907747181/libaria_widget_touchtest.o
LOAD build/pic32mz_ef_sk_meb2/production/_ext/1907747181/libaria_widget_touchtest_skin_classic.o
LOAD build/pic32mz_ef_sk_meb2/production/_ext/1907747181/libaria_widget_window.o
LOAD build/pic32mz_ef_sk_meb2/production/_ext/1907747181/libaria_widget_window_skin_classic.o
LOAD build/pic32mz_ef_sk_meb2/production/_ext/1847583374/gfx.o
LOAD build/pic32mz_ef_sk_meb2/production/_ext/1847583374/gfx_color.o
LOAD build/pic32mz_ef_sk_meb2/production/_ext/1847583374/gfx_context.o
LOAD build/pic32mz_ef_sk_meb2/production/_ext/1847583374/gfx_default_impl.o
LOAD build/pic32mz_ef_sk_meb2/production/_ext/1847583374/gfx_display.o
LOAD build/pic32mz_ef_sk_meb2/production/_ext/1847583374/gfx_driver_interface.o
LOAD build/pic32mz_ef_sk_meb2/production/_ext/1847583374/gfx_get.o
LOAD build/pic32mz_ef_sk_meb2/production/_ext/1847583374/gfx_interface.o
LOAD build/pic32mz_ef_sk_meb2/production/_ext/1847583374/gfx_layer.o
LOAD build/pic32mz_ef_sk_meb2/production/_ext/1847583374/gfx_pixel_buffer.o
LOAD build/pic32mz_ef_sk_meb2/production/_ext/1847583374/gfx_rect.o
LOAD build/pic32mz_ef_sk_meb2/production/_ext/1847583374/gfx_util.o
LOAD build/pic32mz_ef_sk_meb2/production/_ext/1847583374/gfx_set.o
LOAD build/pic32mz_ef_sk_meb2/production/_ext/1847583374/gfx_color_blend.o
LOAD build/pic32mz_ef_sk_meb2/production/_ext/1847583374/gfx_color_convert.o
LOAD build/pic32mz_ef_sk_meb2/production/_ext/1847583374/gfx_color_lerp.o
LOAD build/pic32mz_ef_sk_meb2/production/_ext/1847583374/gfx_color_value.o
LOAD build/pic32mz_ef_sk_meb2/production/_ext/1847583374/gfx_draw_blit.o
LOAD build/pic32mz_ef_sk_meb2/production/_ext/1847583374/gfx_draw_circle.o
LOAD build/pic32mz_ef_sk_meb2/production/_ext/1847583374/gfx_draw_line.o
LOAD build/pic32mz_ef_sk_meb2/production/_ext/1847583374/gfx_draw_pixel.o
LOAD build/pic32mz_ef_sk_meb2/production/_ext/1847583374/gfx_draw_rect.o
LOAD build/pic32mz_ef_sk_meb2/production/_ext/1847583374/gfx_math.o
LOAD build/pic32mz_ef_sk_meb2/production/_ext/853959373/sys_dma.o
LOAD build/pic32mz_ef_sk_meb2/production/_ext/1042686532/sys_int_pic32.o
LOAD build/pic32mz_ef_sk_meb2/production/_ext/199634090/drv_tmr_static.o
LOAD build/pic32mz_ef_sk_meb2/production/_ext/199634090/drv_tmr_mapping.o
LOAD build/pic32mz_ef_sk_meb2/production/_ext/713288229/drv_gfx_lcc_generic.o
LOAD build/pic32mz_ef_sk_meb2/production/_ext/1740298103/libaria_harmony.o
LOAD build/pic32mz_ef_sk_meb2/production/_ext/1740298103/libaria_init.o
LOAD build/pic32mz_ef_sk_meb2/production/_ext/1740298103/libaria_events.o
LOAD build/pic32mz_ef_sk_meb2/production/_ext/1740298103/libaria_macros.o
LOAD build/pic32mz_ef_sk_meb2/production/_ext/477038478/gfx_display_def.o
LOAD build/pic32mz_ef_sk_meb2/production/_ext/477038478/gfx_driver_def.o
LOAD build/pic32mz_ef_sk_meb2/production/_ext/1847413222/sys_clk.o
LOAD build/pic32mz_ef_sk_meb2/production/_ext/1847413222/sys_clk_pic32mz.o
LOAD build/pic32mz_ef_sk_meb2/production/_ext/924081491/sys_devcon.o
LOAD build/pic32mz_ef_sk_meb2/production/_ext/924081491/sys_devcon_pic32mz.o
LOAD build/pic32mz_ef_sk_meb2/production/_ext/924081491/sys_devcon_cache_pic32mz.o
LOAD build/pic32mz_ef_sk_meb2/production/_ext/50030870/sys_ports_static.o
LOAD build/pic32mz_ef_sk_meb2/production/_ext/1465531745/bsp.o
LOAD build/pic32mz_ef_sk_meb2/production/_ext/1951523377/system_init.o
LOAD build/pic32mz_ef_sk_meb2/production/_ext/1951523377/system_interrupt.o
LOAD build/pic32mz_ef_sk_meb2/production/_ext/1951523377/system_exceptions.o
LOAD build/pic32mz_ef_sk_meb2/production/_ext/1951523377/system_tasks.o
LOAD build/pic32mz_ef_sk_meb2/production/_ext/715821942/gfx_assets.o
LOAD ..\..\..\..\..\bin\framework\peripheral\PIC32MZ2048ECG144_peripherals.a
                0x00000001                __MPLAB_BUILD = 0x1
                0x00019000                _min_heap_size = 0x19000
LOAD c:/program files (x86)/microchip/xc32/v1.42/bin/bin/../../lib/gcc/pic32mx/4.8.3/../../../../pic32mx/lib/./proc/32MZ2048ECG144\default_isr_vectors.o
LOAD c:/program files (x86)/microchip/xc32/v1.42/bin/bin/../../lib/gcc/pic32mx/4.8.3/../../../../pic32mx/lib\pic32_software_reset.o
                0x00000400                PROVIDE (_min_stack_size, 0x400)
LOAD c:/program files (x86)/microchip/xc32/v1.42/bin/bin/../../lib/gcc/pic32mx/4.8.3/../../../../pic32mx/lib/./proc/32MZ2048ECG144\processor.o
START GROUP
LOAD c:/program files (x86)/microchip/xc32/v1.42/bin/bin/../../lib/gcc/pic32mx/4.8.3/../../../../pic32mx/lib/./proc/32MZ2048ECG144\vector_offset_init.o
END GROUP
                0x00000001                PROVIDE (_vector_spacing, 0x1)
                0x9d000000                PROVIDE (_ebase_address, 0x9d000000)
                0xbfc00000                _RESET_ADDR = 0xbfc00000
                0xbfc00380                _BEV_EXCPT_ADDR = 0xbfc00380
                0xbfc00480                _DBG_EXCPT_ADDR = 0xbfc00480
                0x9d000000                _SIMPLE_TLB_REFILL_EXCPT_ADDR = (_ebase_address + 0x0)
                0x9d000100                _CACHE_ERR_EXCPT_ADDR = (_ebase_address + 0x100)
                0x9d000180                _GEN_EXCPT_ADDR = (_ebase_address + 0x180)

.config_BFC0FF40
 *(.config_BFC0FF40)

.config_BFC0FF44
 *(.config_BFC0FF44)

.config_BFC0FF48
 *(.config_BFC0FF48)

.config_BFC0FF4C
 *(.config_BFC0FF4C)

.config_BFC0FF50
 *(.config_BFC0FF50)

.config_BFC0FF54
 *(.config_BFC0FF54)

.config_BFC0FF58
 *(.config_BFC0FF58)

.config_BFC0FF5C
 *(.config_BFC0FF5C)

.config_BFC0FF60
 *(.config_BFC0FF60)

.config_BFC0FF64
 *(.config_BFC0FF64)

.config_BFC0FF68
 *(.config_BFC0FF68)

.config_BFC0FF6C
 *(.config_BFC0FF6C)

.config_BFC0FF70
 *(.config_BFC0FF70)

.config_BFC0FF74
 *(.config_BFC0FF74)

.config_BFC0FF78
 *(.config_BFC0FF78)

.config_BFC0FF7C
 *(.config_BFC0FF7C)

.config_BFC0FFC0
                0xbfc0ffc0        0x4
 *(.config_BFC0FFC0)
 .config_BFC0FFC0
                0xbfc0ffc0        0x4 build/pic32mz_ef_sk_meb2/production/_ext/1951523377/system_init.o

.config_BFC0FFC4
                0xbfc0ffc4        0x4
 *(.config_BFC0FFC4)
 .config_BFC0FFC4
                0xbfc0ffc4        0x4 build/pic32mz_ef_sk_meb2/production/_ext/1951523377/system_init.o

.config_BFC0FFC8
                0xbfc0ffc8        0x4
 *(.config_BFC0FFC8)
 .config_BFC0FFC8
                0xbfc0ffc8        0x4 build/pic32mz_ef_sk_meb2/production/_ext/1951523377/system_init.o

.config_BFC0FFCC
                0xbfc0ffcc        0x4
 *(.config_BFC0FFCC)
 .config_BFC0FFCC
                0xbfc0ffcc        0x4 build/pic32mz_ef_sk_meb2/production/_ext/1951523377/system_init.o

.config_BFC0FFD0
 *(.config_BFC0FFD0)

.config_BFC0FFD4
 *(.config_BFC0FFD4)

.config_BFC0FFD8
 *(.config_BFC0FFD8)

.config_BFC0FFDC
                0xbfc0ffdc        0x4
 *(.config_BFC0FFDC)
 .config_BFC0FFDC
                0xbfc0ffdc        0x4 build/pic32mz_ef_sk_meb2/production/_ext/1951523377/system_init.o

.config_BFC0FFE0
 *(.config_BFC0FFE0)

.config_BFC0FFE4
 *(.config_BFC0FFE4)

.config_BFC0FFE8
 *(.config_BFC0FFE8)

.config_BFC0FFEC
 *(.config_BFC0FFEC)

.config_BFC0FFF0
 *(.config_BFC0FFF0)

.config_BFC0FFF4
 *(.config_BFC0FFF4)

.config_BFC0FFF8
 *(.config_BFC0FFF8)

.config_BFC0FFFC
                0xbfc0fffc        0x4
 *(.config_BFC0FFFC)
 .config_BFC0FFFC
                0xbfc0fffc        0x4 build/pic32mz_ef_sk_meb2/production/_ext/1951523377/system_init.o

.config_BFC2FF40
 *(.config_BFC2FF40)

.config_BFC2FF44
 *(.config_BFC2FF44)

.config_BFC2FF48
 *(.config_BFC2FF48)

.config_BFC2FF4C
 *(.config_BFC2FF4C)

.config_BFC2FF50
 *(.config_BFC2FF50)

.config_BFC2FF54
 *(.config_BFC2FF54)

.config_BFC2FF58
 *(.config_BFC2FF58)

.config_BFC2FF5C
 *(.config_BFC2FF5C)

.config_BFC2FF60
 *(.config_BFC2FF60)

.config_BFC2FF64
 *(.config_BFC2FF64)

.config_BFC2FF68
 *(.config_BFC2FF68)

.config_BFC2FF6C
 *(.config_BFC2FF6C)

.config_BFC2FF70
 *(.config_BFC2FF70)

.config_BFC2FF74
 *(.config_BFC2FF74)

.config_BFC2FF78
 *(.config_BFC2FF78)

.config_BFC2FF7C
 *(.config_BFC2FF7C)

.config_BFC2FFC0
 *(.config_BFC2FFC0)

.config_BFC2FFC4
 *(.config_BFC2FFC4)

.config_BFC2FFC8
 *(.config_BFC2FFC8)

.config_BFC2FFCC
 *(.config_BFC2FFCC)

.config_BFC2FFD0
 *(.config_BFC2FFD0)

.config_BFC2FFD4
 *(.config_BFC2FFD4)

.config_BFC2FFD8
 *(.config_BFC2FFD8)

.config_BFC2FFDC
 *(.config_BFC2FFDC)

.config_BFC2FFE0
 *(.config_BFC2FFE0)

.config_BFC2FFE4
 *(.config_BFC2FFE4)

.config_BFC2FFE8
 *(.config_BFC2FFE8)

.config_BFC2FFEC
 *(.config_BFC2FFEC)

.config_BFC2FFF0
 *(.config_BFC2FFF0)

.config_BFC2FFF4
 *(.config_BFC2FFF4)

.config_BFC2FFF8
 *(.config_BFC2FFF8)

.config_BFC2FFFC
 *(.config_BFC2FFFC)

.config_BFC4FF40
 *(.config_BFC4FF40)

.config_BFC4FF44
 *(.config_BFC4FF44)

.config_BFC4FF48
 *(.config_BFC4FF48)

.config_BFC4FF4C
 *(.config_BFC4FF4C)

.config_BFC4FF50
 *(.config_BFC4FF50)

.config_BFC4FF54
 *(.config_BFC4FF54)

.config_BFC4FF58
 *(.config_BFC4FF58)

.config_BFC4FF5C
 *(.config_BFC4FF5C)

.config_BFC4FF60
 *(.config_BFC4FF60)

.config_BFC4FF64
 *(.config_BFC4FF64)

.config_BFC4FF68
 *(.config_BFC4FF68)

.config_BFC4FF6C
 *(.config_BFC4FF6C)

.config_BFC4FF70
 *(.config_BFC4FF70)

.config_BFC4FF74
 *(.config_BFC4FF74)

.config_BFC4FF78
 *(.config_BFC4FF78)

.config_BFC4FF7C
 *(.config_BFC4FF7C)

.config_BFC4FFC0
 *(.config_BFC4FFC0)

.config_BFC4FFC4
 *(.config_BFC4FFC4)

.config_BFC4FFC8
 *(.config_BFC4FFC8)

.config_BFC4FFCC
 *(.config_BFC4FFCC)

.config_BFC4FFD0
 *(.config_BFC4FFD0)

.config_BFC4FFD4
 *(.config_BFC4FFD4)

.config_BFC4FFD8
 *(.config_BFC4FFD8)

.config_BFC4FFDC
 *(.config_BFC4FFDC)

.config_BFC4FFE0
 *(.config_BFC4FFE0)

.config_BFC4FFE4
 *(.config_BFC4FFE4)

.config_BFC4FFE8
 *(.config_BFC4FFE8)

.config_BFC4FFEC
 *(.config_BFC4FFEC)

.config_BFC4FFF0
 *(.config_BFC4FFF0)

.config_BFC4FFF4
 *(.config_BFC4FFF4)

.config_BFC4FFF8
 *(.config_BFC4FFF8)

.config_BFC4FFFC
 *(.config_BFC4FFFC)

.config_BFC54000
 *(.config_BFC54000)

.config_BFC54004
 *(.config_BFC54004)

.config_BFC54008
 *(.config_BFC54008)

.config_BFC5400C
 *(.config_BFC5400C)

.config_BFC54010
 *(.config_BFC54010)

.config_BFC54020
 *(.config_BFC54020)

.config_BFC54024
 *(.config_BFC54024)

.config_BFC6FF40
 *(.config_BFC6FF40)

.config_BFC6FF44
 *(.config_BFC6FF44)

.config_BFC6FF48
 *(.config_BFC6FF48)

.config_BFC6FF4C
 *(.config_BFC6FF4C)

.config_BFC6FF50
 *(.config_BFC6FF50)

.config_BFC6FF54
 *(.config_BFC6FF54)

.config_BFC6FF58
 *(.config_BFC6FF58)

.config_BFC6FF5C
 *(.config_BFC6FF5C)

.config_BFC6FF60
 *(.config_BFC6FF60)

.config_BFC6FF64
 *(.config_BFC6FF64)

.config_BFC6FF68
 *(.config_BFC6FF68)

.config_BFC6FF6C
 *(.config_BFC6FF6C)

.config_BFC6FF70
 *(.config_BFC6FF70)

.config_BFC6FF74
 *(.config_BFC6FF74)

.config_BFC6FF78
 *(.config_BFC6FF78)

.config_BFC6FF7C
 *(.config_BFC6FF7C)

.config_BFC6FFC0
 *(.config_BFC6FFC0)

.config_BFC6FFC4
 *(.config_BFC6FFC4)

.config_BFC6FFC8
 *(.config_BFC6FFC8)

.config_BFC6FFCC
 *(.config_BFC6FFCC)

.config_BFC6FFD0
 *(.config_BFC6FFD0)

.config_BFC6FFD4
 *(.config_BFC6FFD4)

.config_BFC6FFD8
 *(.config_BFC6FFD8)

.config_BFC6FFDC
 *(.config_BFC6FFDC)

.config_BFC6FFE0
 *(.config_BFC6FFE0)

.config_BFC6FFE4
 *(.config_BFC6FFE4)

.config_BFC6FFE8
 *(.config_BFC6FFE8)

.config_BFC6FFEC
 *(.config_BFC6FFEC)

.config_BFC6FFF0
 *(.config_BFC6FFF0)

.config_BFC6FFF4
 *(.config_BFC6FFF4)

.config_BFC6FFF8
 *(.config_BFC6FFF8)

.config_BFC6FFFC
 *(.config_BFC6FFFC)

.reset          0xbfc00000      0x210
 *(.reset)
 .reset         0xbfc00000       0x18 c:/program files (x86)/microchip/xc32/v1.42/bin/bin/../../lib/gcc/pic32mx/4.8.3/../../../../pic32mx/lib/./proc/32MZ2048ECG144/crt0_mips32r2.o
                0xbfc00000                _reset
 *(.reset.startup)
 .reset.startup
                0xbfc00018      0x1f8 c:/program files (x86)/microchip/xc32/v1.42/bin/bin/../../lib/gcc/pic32mx/4.8.3/../../../../pic32mx/lib/./proc/32MZ2048ECG144/crt0_mips32r2.o

.bev_excpt      0xbfc00380       0x10
 *(.bev_handler)
 .bev_handler   0xbfc00380       0x10 c:/program files (x86)/microchip/xc32/v1.42/bin/bin/../../lib/gcc/pic32mx/4.8.3/../../../../pic32mx/lib/./proc/32MZ2048ECG144/crt0_mips32r2.o

.cache_init     0xbfc004b0      0x19c
 *(.cache_init)
 *(.cache_init.*)
 .cache_init.cache
                0xbfc004b0       0xc0 c:/program files (x86)/microchip/xc32/v1.42/bin/bin/../../lib/gcc/pic32mx/4.8.3/../../../../pic32mx/lib\libpic32.a(pic32_init_cache.o)
 .cache_init.pic32_init_cache
                0xbfc00570       0xdc c:/program files (x86)/microchip/xc32/v1.42/bin/bin/../../lib/gcc/pic32mx/4.8.3/../../../../pic32mx/lib\libpic32.a(pic32_init_cache.o)
                0xbfc00570                __pic32_init_cache

.simple_tlb_refill_excpt
                0x9d000000       0x10
 *(.simple_tlb_refill_vector)
 .simple_tlb_refill_vector
                0x9d000000       0x10 c:/program files (x86)/microchip/xc32/v1.42/bin/bin/../../lib/gcc/pic32mx/4.8.3/../../../../pic32mx/lib/./proc/32MZ2048ECG144/crt0_mips32r2.o

.cache_err_excpt
                0x9d000100       0x10
 *(.cache_err_vector)
 .cache_err_vector
                0x9d000100       0x10 c:/program files (x86)/microchip/xc32/v1.42/bin/bin/../../lib/gcc/pic32mx/4.8.3/../../../../pic32mx/lib/./proc/32MZ2048ECG144/crt0_mips32r2.o

.app_excpt      0x9d000180       0x10
 *(.gen_handler)
 .gen_handler   0x9d000180       0x10 c:/program files (x86)/microchip/xc32/v1.42/bin/bin/../../lib/gcc/pic32mx/4.8.3/../../../../pic32mx/lib/./proc/32MZ2048ECG144/crt0_mips32r2.o

.vectors        0x9d000200       0x68
                0x00000220                __vector_offset_0 = DEFINED (__vector_dispatch_0)?(. - _ebase_address):__vector_offset_default
 *(.vector_0)
                0x00000220                __vector_offset_1 = DEFINED (__vector_dispatch_1)?(. - _ebase_address):__vector_offset_default
 *(.vector_1)
                0x00000220                __vector_offset_2 = DEFINED (__vector_dispatch_2)?(. - _ebase_address):__vector_offset_default
 *(.vector_2)
                0x00000220                __vector_offset_3 = DEFINED (__vector_dispatch_3)?(. - _ebase_address):__vector_offset_default
 *(.vector_3)
                0x00000220                __vector_offset_4 = DEFINED (__vector_dispatch_4)?(. - _ebase_address):__vector_offset_default
 *(.vector_4)
                0x00000220                __vector_offset_5 = DEFINED (__vector_dispatch_5)?(. - _ebase_address):__vector_offset_default
 *(.vector_5)
                0x00000220                __vector_offset_6 = DEFINED (__vector_dispatch_6)?(. - _ebase_address):__vector_offset_default
 *(.vector_6)
                0x00000220                __vector_offset_7 = DEFINED (__vector_dispatch_7)?(. - _ebase_address):__vector_offset_default
 *(.vector_7)
                0x00000220                __vector_offset_8 = DEFINED (__vector_dispatch_8)?(. - _ebase_address):__vector_offset_default
 *(.vector_8)
                0x00000220                __vector_offset_9 = DEFINED (__vector_dispatch_9)?(. - _ebase_address):__vector_offset_default
 *(.vector_9)
                0x00000220                __vector_offset_10 = DEFINED (__vector_dispatch_10)?(. - _ebase_address):__vector_offset_default
 *(.vector_10)
                0x00000220                __vector_offset_11 = DEFINED (__vector_dispatch_11)?(. - _ebase_address):__vector_offset_default
 *(.vector_11)
                0x00000220                __vector_offset_12 = DEFINED (__vector_dispatch_12)?(. - _ebase_address):__vector_offset_default
 *(.vector_12)
                0x00000220                __vector_offset_13 = DEFINED (__vector_dispatch_13)?(. - _ebase_address):__vector_offset_default
 *(.vector_13)
                0x00000220                __vector_offset_14 = DEFINED (__vector_dispatch_14)?(. - _ebase_address):__vector_offset_default
 *(.vector_14)
                0x00000220                __vector_offset_15 = DEFINED (__vector_dispatch_15)?(. - _ebase_address):__vector_offset_default
 *(.vector_15)
                0x00000220                __vector_offset_16 = DEFINED (__vector_dispatch_16)?(. - _ebase_address):__vector_offset_default
 *(.vector_16)
                0x00000220                __vector_offset_17 = DEFINED (__vector_dispatch_17)?(. - _ebase_address):__vector_offset_default
 *(.vector_17)
                0x00000220                __vector_offset_18 = DEFINED (__vector_dispatch_18)?(. - _ebase_address):__vector_offset_default
 *(.vector_18)
                0x00000220                __vector_offset_19 = DEFINED (__vector_dispatch_19)?(. - _ebase_address):__vector_offset_default
 *(.vector_19)
                0x00000220                __vector_offset_20 = DEFINED (__vector_dispatch_20)?(. - _ebase_address):__vector_offset_default
 *(.vector_20)
                0x00000220                __vector_offset_21 = DEFINED (__vector_dispatch_21)?(. - _ebase_address):__vector_offset_default
 *(.vector_21)
                0x00000220                __vector_offset_22 = DEFINED (__vector_dispatch_22)?(. - _ebase_address):__vector_offset_default
 *(.vector_22)
                0x00000220                __vector_offset_23 = DEFINED (__vector_dispatch_23)?(. - _ebase_address):__vector_offset_default
 *(.vector_23)
                0x00000220                __vector_offset_24 = DEFINED (__vector_dispatch_24)?(. - _ebase_address):__vector_offset_default
 *(.vector_24)
                0x00000220                __vector_offset_25 = DEFINED (__vector_dispatch_25)?(. - _ebase_address):__vector_offset_default
 *(.vector_25)
                0x00000220                __vector_offset_26 = DEFINED (__vector_dispatch_26)?(. - _ebase_address):__vector_offset_default
 *(.vector_26)
                0x00000220                __vector_offset_27 = DEFINED (__vector_dispatch_27)?(. - _ebase_address):__vector_offset_default
 *(.vector_27)
                0x00000220                __vector_offset_28 = DEFINED (__vector_dispatch_28)?(. - _ebase_address):__vector_offset_default
 *(.vector_28)
                0x00000220                __vector_offset_29 = DEFINED (__vector_dispatch_29)?(. - _ebase_address):__vector_offset_default
 *(.vector_29)
                0x00000220                __vector_offset_30 = DEFINED (__vector_dispatch_30)?(. - _ebase_address):__vector_offset_default
 *(.vector_30)
                0x00000220                __vector_offset_31 = DEFINED (__vector_dispatch_31)?(. - _ebase_address):__vector_offset_default
 *(.vector_31)
                0x00000200                __vector_offset_32 = DEFINED (__vector_dispatch_32)?(. - _ebase_address):__vector_offset_default
 *(.vector_32)
 .vector_32     0x9d000200        0x8 build/pic32mz_ef_sk_meb2/production/_ext/1951523377/system_interrupt.o
                0x9d000200                __vector_dispatch_32
                0x00000220                __vector_offset_33 = DEFINED (__vector_dispatch_33)?(. - _ebase_address):__vector_offset_default
 *(.vector_33)
                0x00000220                __vector_offset_34 = DEFINED (__vector_dispatch_34)?(. - _ebase_address):__vector_offset_default
 *(.vector_34)
                0x00000220                __vector_offset_35 = DEFINED (__vector_dispatch_35)?(. - _ebase_address):__vector_offset_default
 *(.vector_35)
                0x00000208                __vector_offset_36 = DEFINED (__vector_dispatch_36)?(. - _ebase_address):__vector_offset_default
 *(.vector_36)
 .vector_36     0x9d000208        0x8 build/pic32mz_ef_sk_meb2/production/_ext/1951523377/system_interrupt.o
                0x9d000208                __vector_dispatch_36
                0x00000220                __vector_offset_37 = DEFINED (__vector_dispatch_37)?(. - _ebase_address):__vector_offset_default
 *(.vector_37)
                0x00000220                __vector_offset_38 = DEFINED (__vector_dispatch_38)?(. - _ebase_address):__vector_offset_default
 *(.vector_38)
                0x00000220                __vector_offset_39 = DEFINED (__vector_dispatch_39)?(. - _ebase_address):__vector_offset_default
 *(.vector_39)
                0x00000220                __vector_offset_40 = DEFINED (__vector_dispatch_40)?(. - _ebase_address):__vector_offset_default
 *(.vector_40)
                0x00000220                __vector_offset_41 = DEFINED (__vector_dispatch_41)?(. - _ebase_address):__vector_offset_default
 *(.vector_41)
                0x00000220                __vector_offset_42 = DEFINED (__vector_dispatch_42)?(. - _ebase_address):__vector_offset_default
 *(.vector_42)
                0x00000220                __vector_offset_43 = DEFINED (__vector_dispatch_43)?(. - _ebase_address):__vector_offset_default
 *(.vector_43)
                0x00000220                __vector_offset_44 = DEFINED (__vector_dispatch_44)?(. - _ebase_address):__vector_offset_default
 *(.vector_44)
                0x00000220                __vector_offset_45 = DEFINED (__vector_dispatch_45)?(. - _ebase_address):__vector_offset_default
 *(.vector_45)
                0x00000220                __vector_offset_46 = DEFINED (__vector_dispatch_46)?(. - _ebase_address):__vector_offset_default
 *(.vector_46)
                0x00000220                __vector_offset_47 = DEFINED (__vector_dispatch_47)?(. - _ebase_address):__vector_offset_default
 *(.vector_47)
                0x00000220                __vector_offset_48 = DEFINED (__vector_dispatch_48)?(. - _ebase_address):__vector_offset_default
 *(.vector_48)
                0x00000220                __vector_offset_49 = DEFINED (__vector_dispatch_49)?(. - _ebase_address):__vector_offset_default
 *(.vector_49)
                0x00000220                __vector_offset_50 = DEFINED (__vector_dispatch_50)?(. - _ebase_address):__vector_offset_default
 *(.vector_50)
                0x00000220                __vector_offset_51 = DEFINED (__vector_dispatch_51)?(. - _ebase_address):__vector_offset_default
 *(.vector_51)
                0x00000220                __vector_offset_52 = DEFINED (__vector_dispatch_52)?(. - _ebase_address):__vector_offset_default
 *(.vector_52)
                0x00000220                __vector_offset_53 = DEFINED (__vector_dispatch_53)?(. - _ebase_address):__vector_offset_default
 *(.vector_53)
                0x00000220                __vector_offset_54 = DEFINED (__vector_dispatch_54)?(. - _ebase_address):__vector_offset_default
 *(.vector_54)
                0x00000220                __vector_offset_55 = DEFINED (__vector_dispatch_55)?(. - _ebase_address):__vector_offset_default
 *(.vector_55)
                0x00000220                __vector_offset_56 = DEFINED (__vector_dispatch_56)?(. - _ebase_address):__vector_offset_default
 *(.vector_56)
                0x00000220                __vector_offset_57 = DEFINED (__vector_dispatch_57)?(. - _ebase_address):__vector_offset_default
 *(.vector_57)
                0x00000220                __vector_offset_58 = DEFINED (__vector_dispatch_58)?(. - _ebase_address):__vector_offset_default
 *(.vector_58)
                0x00000220                __vector_offset_59 = DEFINED (__vector_dispatch_59)?(. - _ebase_address):__vector_offset_default
 *(.vector_59)
                0x00000220                __vector_offset_60 = DEFINED (__vector_dispatch_60)?(. - _ebase_address):__vector_offset_default
 *(.vector_60)
                0x00000220                __vector_offset_61 = DEFINED (__vector_dispatch_61)?(. - _ebase_address):__vector_offset_default
 *(.vector_61)
                0x00000220                __vector_offset_62 = DEFINED (__vector_dispatch_62)?(. - _ebase_address):__vector_offset_default
 *(.vector_62)
                0x00000220                __vector_offset_63 = DEFINED (__vector_dispatch_63)?(. - _ebase_address):__vector_offset_default
 *(.vector_63)
                0x00000220                __vector_offset_64 = DEFINED (__vector_dispatch_64)?(. - _ebase_address):__vector_offset_default
 *(.vector_64)
                0x00000220                __vector_offset_65 = DEFINED (__vector_dispatch_65)?(. - _ebase_address):__vector_offset_default
 *(.vector_65)
                0x00000220                __vector_offset_66 = DEFINED (__vector_dispatch_66)?(. - _ebase_address):__vector_offset_default
 *(.vector_66)
                0x00000220                __vector_offset_67 = DEFINED (__vector_dispatch_67)?(. - _ebase_address):__vector_offset_default
 *(.vector_67)
                0x00000220                __vector_offset_68 = DEFINED (__vector_dispatch_68)?(. - _ebase_address):__vector_offset_default
 *(.vector_68)
                0x00000220                __vector_offset_69 = DEFINED (__vector_dispatch_69)?(. - _ebase_address):__vector_offset_default
 *(.vector_69)
                0x00000220                __vector_offset_70 = DEFINED (__vector_dispatch_70)?(. - _ebase_address):__vector_offset_default
 *(.vector_70)
                0x00000220                __vector_offset_71 = DEFINED (__vector_dispatch_71)?(. - _ebase_address):__vector_offset_default
 *(.vector_71)
                0x00000220                __vector_offset_72 = DEFINED (__vector_dispatch_72)?(. - _ebase_address):__vector_offset_default
 *(.vector_72)
                0x00000220                __vector_offset_73 = DEFINED (__vector_dispatch_73)?(. - _ebase_address):__vector_offset_default
 *(.vector_73)
                0x00000220                __vector_offset_74 = DEFINED (__vector_dispatch_74)?(. - _ebase_address):__vector_offset_default
 *(.vector_74)
                0x00000220                __vector_offset_75 = DEFINED (__vector_dispatch_75)?(. - _ebase_address):__vector_offset_default
 *(.vector_75)
                0x00000220                __vector_offset_76 = DEFINED (__vector_dispatch_76)?(. - _ebase_address):__vector_offset_default
 *(.vector_76)
                0x00000220                __vector_offset_77 = DEFINED (__vector_dispatch_77)?(. - _ebase_address):__vector_offset_default
 *(.vector_77)
                0x00000220                __vector_offset_78 = DEFINED (__vector_dispatch_78)?(. - _ebase_address):__vector_offset_default
 *(.vector_78)
                0x00000220                __vector_offset_79 = DEFINED (__vector_dispatch_79)?(. - _ebase_address):__vector_offset_default
 *(.vector_79)
                0x00000220                __vector_offset_80 = DEFINED (__vector_dispatch_80)?(. - _ebase_address):__vector_offset_default
 *(.vector_80)
                0x00000220                __vector_offset_81 = DEFINED (__vector_dispatch_81)?(. - _ebase_address):__vector_offset_default
 *(.vector_81)
                0x00000220                __vector_offset_82 = DEFINED (__vector_dispatch_82)?(. - _ebase_address):__vector_offset_default
 *(.vector_82)
                0x00000220                __vector_offset_83 = DEFINED (__vector_dispatch_83)?(. - _ebase_address):__vector_offset_default
 *(.vector_83)
                0x00000220                __vector_offset_84 = DEFINED (__vector_dispatch_84)?(. - _ebase_address):__vector_offset_default
 *(.vector_84)
                0x00000220                __vector_offset_85 = DEFINED (__vector_dispatch_85)?(. - _ebase_address):__vector_offset_default
 *(.vector_85)
                0x00000220                __vector_offset_86 = DEFINED (__vector_dispatch_86)?(. - _ebase_address):__vector_offset_default
 *(.vector_86)
                0x00000220                __vector_offset_87 = DEFINED (__vector_dispatch_87)?(. - _ebase_address):__vector_offset_default
 *(.vector_87)
                0x00000220                __vector_offset_88 = DEFINED (__vector_dispatch_88)?(. - _ebase_address):__vector_offset_default
 *(.vector_88)
                0x00000220                __vector_offset_89 = DEFINED (__vector_dispatch_89)?(. - _ebase_address):__vector_offset_default
 *(.vector_89)
                0x00000220                __vector_offset_90 = DEFINED (__vector_dispatch_90)?(. - _ebase_address):__vector_offset_default
 *(.vector_90)
                0x00000220                __vector_offset_91 = DEFINED (__vector_dispatch_91)?(. - _ebase_address):__vector_offset_default
 *(.vector_91)
                0x00000220                __vector_offset_92 = DEFINED (__vector_dispatch_92)?(. - _ebase_address):__vector_offset_default
 *(.vector_92)
                0x00000220                __vector_offset_93 = DEFINED (__vector_dispatch_93)?(. - _ebase_address):__vector_offset_default
 *(.vector_93)
                0x00000220                __vector_offset_94 = DEFINED (__vector_dispatch_94)?(. - _ebase_address):__vector_offset_default
 *(.vector_94)
                0x00000220                __vector_offset_95 = DEFINED (__vector_dispatch_95)?(. - _ebase_address):__vector_offset_default
 *(.vector_95)
                0x00000220                __vector_offset_96 = DEFINED (__vector_dispatch_96)?(. - _ebase_address):__vector_offset_default
 *(.vector_96)
                0x00000220                __vector_offset_97 = DEFINED (__vector_dispatch_97)?(. - _ebase_address):__vector_offset_default
 *(.vector_97)
                0x00000220                __vector_offset_98 = DEFINED (__vector_dispatch_98)?(. - _ebase_address):__vector_offset_default
 *(.vector_98)
                0x00000220                __vector_offset_99 = DEFINED (__vector_dispatch_99)?(. - _ebase_address):__vector_offset_default
 *(.vector_99)
                0x00000220                __vector_offset_100 = DEFINED (__vector_dispatch_100)?(. - _ebase_address):__vector_offset_default
 *(.vector_100)
                0x00000220                __vector_offset_101 = DEFINED (__vector_dispatch_101)?(. - _ebase_address):__vector_offset_default
 *(.vector_101)
                0x00000220                __vector_offset_102 = DEFINED (__vector_dispatch_102)?(. - _ebase_address):__vector_offset_default
 *(.vector_102)
                0x00000220                __vector_offset_103 = DEFINED (__vector_dispatch_103)?(. - _ebase_address):__vector_offset_default
 *(.vector_103)
                0x00000220                __vector_offset_104 = DEFINED (__vector_dispatch_104)?(. - _ebase_address):__vector_offset_default
 *(.vector_104)
                0x00000220                __vector_offset_105 = DEFINED (__vector_dispatch_105)?(. - _ebase_address):__vector_offset_default
 *(.vector_105)
                0x00000220                __vector_offset_106 = DEFINED (__vector_dispatch_106)?(. - _ebase_address):__vector_offset_default
 *(.vector_106)
                0x00000220                __vector_offset_107 = DEFINED (__vector_dispatch_107)?(. - _ebase_address):__vector_offset_default
 *(.vector_107)
                0x00000220                __vector_offset_108 = DEFINED (__vector_dispatch_108)?(. - _ebase_address):__vector_offset_default
 *(.vector_108)
                0x00000220                __vector_offset_109 = DEFINED (__vector_dispatch_109)?(. - _ebase_address):__vector_offset_default
 *(.vector_109)
                0x00000220                __vector_offset_110 = DEFINED (__vector_dispatch_110)?(. - _ebase_address):__vector_offset_default
 *(.vector_110)
                0x00000220                __vector_offset_111 = DEFINED (__vector_dispatch_111)?(. - _ebase_address):__vector_offset_default
 *(.vector_111)
                0x00000220                __vector_offset_112 = DEFINED (__vector_dispatch_112)?(. - _ebase_address):__vector_offset_default
 *(.vector_112)
                0x00000220                __vector_offset_113 = DEFINED (__vector_dispatch_113)?(. - _ebase_address):__vector_offset_default
 *(.vector_113)
                0x00000220                __vector_offset_114 = DEFINED (__vector_dispatch_114)?(. - _ebase_address):__vector_offset_default
 *(.vector_114)
                0x00000220                __vector_offset_115 = DEFINED (__vector_dispatch_115)?(. - _ebase_address):__vector_offset_default
 *(.vector_115)
                0x00000220                __vector_offset_116 = DEFINED (__vector_dispatch_116)?(. - _ebase_address):__vector_offset_default
 *(.vector_116)
                0x00000220                __vector_offset_117 = DEFINED (__vector_dispatch_117)?(. - _ebase_address):__vector_offset_default
 *(.vector_117)
                0x00000220                __vector_offset_118 = DEFINED (__vector_dispatch_118)?(. - _ebase_address):__vector_offset_default
 *(.vector_118)
                0x00000220                __vector_offset_119 = DEFINED (__vector_dispatch_119)?(. - _ebase_address):__vector_offset_default
 *(.vector_119)
                0x00000220                __vector_offset_120 = DEFINED (__vector_dispatch_120)?(. - _ebase_address):__vector_offset_default
 *(.vector_120)
                0x00000220                __vector_offset_121 = DEFINED (__vector_dispatch_121)?(. - _ebase_address):__vector_offset_default
 *(.vector_121)
                0x00000220                __vector_offset_122 = DEFINED (__vector_dispatch_122)?(. - _ebase_address):__vector_offset_default
 *(.vector_122)
                0x00000220                __vector_offset_123 = DEFINED (__vector_dispatch_123)?(. - _ebase_address):__vector_offset_default
 *(.vector_123)
                0x00000220                __vector_offset_124 = DEFINED (__vector_dispatch_124)?(. - _ebase_address):__vector_offset_default
 *(.vector_124)
                0x00000220                __vector_offset_125 = DEFINED (__vector_dispatch_125)?(. - _ebase_address):__vector_offset_default
 *(.vector_125)
                0x00000220                __vector_offset_126 = DEFINED (__vector_dispatch_126)?(. - _ebase_address):__vector_offset_default
 *(.vector_126)
                0x00000220                __vector_offset_127 = DEFINED (__vector_dispatch_127)?(. - _ebase_address):__vector_offset_default
 *(.vector_127)
                0x00000220                __vector_offset_128 = DEFINED (__vector_dispatch_128)?(. - _ebase_address):__vector_offset_default
 *(.vector_128)
                0x00000220                __vector_offset_129 = DEFINED (__vector_dispatch_129)?(. - _ebase_address):__vector_offset_default
 *(.vector_129)
                0x00000220                __vector_offset_130 = DEFINED (__vector_dispatch_130)?(. - _ebase_address):__vector_offset_default
 *(.vector_130)
                0x00000220                __vector_offset_131 = DEFINED (__vector_dispatch_131)?(. - _ebase_address):__vector_offset_default
 *(.vector_131)
                0x00000220                __vector_offset_132 = DEFINED (__vector_dispatch_132)?(. - _ebase_address):__vector_offset_default
 *(.vector_132)
                0x00000220                __vector_offset_133 = DEFINED (__vector_dispatch_133)?(. - _ebase_address):__vector_offset_default
 *(.vector_133)
                0x00000210                __vector_offset_134 = DEFINED (__vector_dispatch_134)?(. - _ebase_address):__vector_offset_default
 *(.vector_134)
 .vector_134    0x9d000210        0x8 build/pic32mz_ef_sk_meb2/production/_ext/1951523377/system_interrupt.o
                0x9d000210                __vector_dispatch_134
                0x00000218                __vector_offset_135 = DEFINED (__vector_dispatch_135)?(. - _ebase_address):__vector_offset_default
 *(.vector_135)
 .vector_135    0x9d000218        0x8 build/pic32mz_ef_sk_meb2/production/_ext/713288229/drv_gfx_lcc_generic.o
                0x9d000218                __vector_dispatch_135
                0x00000220                __vector_offset_136 = DEFINED (__vector_dispatch_136)?(. - _ebase_address):__vector_offset_default
 *(.vector_136)
                0x00000220                __vector_offset_137 = DEFINED (__vector_dispatch_137)?(. - _ebase_address):__vector_offset_default
 *(.vector_137)
                0x00000220                __vector_offset_138 = DEFINED (__vector_dispatch_138)?(. - _ebase_address):__vector_offset_default
 *(.vector_138)
                0x00000220                __vector_offset_139 = DEFINED (__vector_dispatch_139)?(. - _ebase_address):__vector_offset_default
 *(.vector_139)
                0x00000220                __vector_offset_140 = DEFINED (__vector_dispatch_140)?(. - _ebase_address):__vector_offset_default
 *(.vector_140)
                0x00000220                __vector_offset_141 = DEFINED (__vector_dispatch_141)?(. - _ebase_address):__vector_offset_default
 *(.vector_141)
                0x00000220                __vector_offset_142 = DEFINED (__vector_dispatch_142)?(. - _ebase_address):__vector_offset_default
 *(.vector_142)
                0x00000220                __vector_offset_143 = DEFINED (__vector_dispatch_143)?(. - _ebase_address):__vector_offset_default
 *(.vector_143)
                0x00000220                __vector_offset_144 = DEFINED (__vector_dispatch_144)?(. - _ebase_address):__vector_offset_default
 *(.vector_144)
                0x00000220                __vector_offset_145 = DEFINED (__vector_dispatch_145)?(. - _ebase_address):__vector_offset_default
 *(.vector_145)
                0x00000220                __vector_offset_146 = DEFINED (__vector_dispatch_146)?(. - _ebase_address):__vector_offset_default
 *(.vector_146)
                0x00000220                __vector_offset_147 = DEFINED (__vector_dispatch_147)?(. - _ebase_address):__vector_offset_default
 *(.vector_147)
                0x00000220                __vector_offset_148 = DEFINED (__vector_dispatch_148)?(. - _ebase_address):__vector_offset_default
 *(.vector_148)
                0x00000220                __vector_offset_149 = DEFINED (__vector_dispatch_149)?(. - _ebase_address):__vector_offset_default
 *(.vector_149)
                0x00000220                __vector_offset_150 = DEFINED (__vector_dispatch_150)?(. - _ebase_address):__vector_offset_default
 *(.vector_150)
                0x00000220                __vector_offset_151 = DEFINED (__vector_dispatch_151)?(. - _ebase_address):__vector_offset_default
 *(.vector_151)
                0x00000220                __vector_offset_152 = DEFINED (__vector_dispatch_152)?(. - _ebase_address):__vector_offset_default
 *(.vector_152)
                0x00000220                __vector_offset_153 = DEFINED (__vector_dispatch_153)?(. - _ebase_address):__vector_offset_default
 *(.vector_153)
                0x00000220                __vector_offset_154 = DEFINED (__vector_dispatch_154)?(. - _ebase_address):__vector_offset_default
 *(.vector_154)
                0x00000220                __vector_offset_155 = DEFINED (__vector_dispatch_155)?(. - _ebase_address):__vector_offset_default
 *(.vector_155)
                0x00000220                __vector_offset_156 = DEFINED (__vector_dispatch_156)?(. - _ebase_address):__vector_offset_default
 *(.vector_156)
                0x00000220                __vector_offset_157 = DEFINED (__vector_dispatch_157)?(. - _ebase_address):__vector_offset_default
 *(.vector_157)
                0x00000220                __vector_offset_158 = DEFINED (__vector_dispatch_158)?(. - _ebase_address):__vector_offset_default
 *(.vector_158)
                0x00000220                __vector_offset_159 = DEFINED (__vector_dispatch_159)?(. - _ebase_address):__vector_offset_default
 *(.vector_159)
                0x00000220                __vector_offset_160 = DEFINED (__vector_dispatch_160)?(. - _ebase_address):__vector_offset_default
 *(.vector_160)
                0x00000220                __vector_offset_161 = DEFINED (__vector_dispatch_161)?(. - _ebase_address):__vector_offset_default
 *(.vector_161)
                0x00000220                __vector_offset_162 = DEFINED (__vector_dispatch_162)?(. - _ebase_address):__vector_offset_default
 *(.vector_162)
                0x00000220                __vector_offset_163 = DEFINED (__vector_dispatch_163)?(. - _ebase_address):__vector_offset_default
 *(.vector_163)
                0x00000220                __vector_offset_164 = DEFINED (__vector_dispatch_164)?(. - _ebase_address):__vector_offset_default
 *(.vector_164)
                0x00000220                __vector_offset_165 = DEFINED (__vector_dispatch_165)?(. - _ebase_address):__vector_offset_default
 *(.vector_165)
                0x00000220                __vector_offset_166 = DEFINED (__vector_dispatch_166)?(. - _ebase_address):__vector_offset_default
 *(.vector_166)
                0x00000220                __vector_offset_167 = DEFINED (__vector_dispatch_167)?(. - _ebase_address):__vector_offset_default
 *(.vector_167)
                0x00000220                __vector_offset_168 = DEFINED (__vector_dispatch_168)?(. - _ebase_address):__vector_offset_default
 *(.vector_168)
                0x00000220                __vector_offset_169 = DEFINED (__vector_dispatch_169)?(. - _ebase_address):__vector_offset_default
 *(.vector_169)
                0x00000220                __vector_offset_170 = DEFINED (__vector_dispatch_170)?(. - _ebase_address):__vector_offset_default
 *(.vector_170)
                0x00000220                __vector_offset_171 = DEFINED (__vector_dispatch_171)?(. - _ebase_address):__vector_offset_default
 *(.vector_171)
                0x00000220                __vector_offset_172 = DEFINED (__vector_dispatch_172)?(. - _ebase_address):__vector_offset_default
 *(.vector_172)
                0x00000220                __vector_offset_173 = DEFINED (__vector_dispatch_173)?(. - _ebase_address):__vector_offset_default
 *(.vector_173)
                0x00000220                __vector_offset_174 = DEFINED (__vector_dispatch_174)?(. - _ebase_address):__vector_offset_default
 *(.vector_174)
                0x00000220                __vector_offset_175 = DEFINED (__vector_dispatch_175)?(. - _ebase_address):__vector_offset_default
 *(.vector_175)
                0x00000220                __vector_offset_176 = DEFINED (__vector_dispatch_176)?(. - _ebase_address):__vector_offset_default
 *(.vector_176)
                0x00000220                __vector_offset_177 = DEFINED (__vector_dispatch_177)?(. - _ebase_address):__vector_offset_default
 *(.vector_177)
                0x00000220                __vector_offset_178 = DEFINED (__vector_dispatch_178)?(. - _ebase_address):__vector_offset_default
 *(.vector_178)
                0x00000220                __vector_offset_179 = DEFINED (__vector_dispatch_179)?(. - _ebase_address):__vector_offset_default
 *(.vector_179)
                0x00000220                __vector_offset_180 = DEFINED (__vector_dispatch_180)?(. - _ebase_address):__vector_offset_default
 *(.vector_180)
                0x00000220                __vector_offset_181 = DEFINED (__vector_dispatch_181)?(. - _ebase_address):__vector_offset_default
 *(.vector_181)
                0x00000220                __vector_offset_182 = DEFINED (__vector_dispatch_182)?(. - _ebase_address):__vector_offset_default
 *(.vector_182)
                0x00000220                __vector_offset_183 = DEFINED (__vector_dispatch_183)?(. - _ebase_address):__vector_offset_default
 *(.vector_183)
                0x00000220                __vector_offset_184 = DEFINED (__vector_dispatch_184)?(. - _ebase_address):__vector_offset_default
 *(.vector_184)
                0x00000220                __vector_offset_185 = DEFINED (__vector_dispatch_185)?(. - _ebase_address):__vector_offset_default
 *(.vector_185)
                0x00000220                __vector_offset_186 = DEFINED (__vector_dispatch_186)?(. - _ebase_address):__vector_offset_default
 *(.vector_186)
                0x00000220                __vector_offset_187 = DEFINED (__vector_dispatch_187)?(. - _ebase_address):__vector_offset_default
 *(.vector_187)
                0x00000220                __vector_offset_188 = DEFINED (__vector_dispatch_188)?(. - _ebase_address):__vector_offset_default
 *(.vector_188)
                0x00000220                __vector_offset_189 = DEFINED (__vector_dispatch_189)?(. - _ebase_address):__vector_offset_default
 *(.vector_189)
                0x00000220                __vector_offset_190 = DEFINED (__vector_dispatch_190)?(. - _ebase_address):__vector_offset_default
 *(.vector_190)
                0x00000220                __vector_offset_191 = DEFINED (__vector_dispatch_191)?(. - _ebase_address):__vector_offset_default
 *(.vector_191)
                0x00000220                __vector_offset_192 = DEFINED (__vector_dispatch_192)?(. - _ebase_address):__vector_offset_default
 *(.vector_192)
                0x00000220                __vector_offset_193 = DEFINED (__vector_dispatch_193)?(. - _ebase_address):__vector_offset_default
 *(.vector_193)
                0x00000220                __vector_offset_194 = DEFINED (__vector_dispatch_194)?(. - _ebase_address):__vector_offset_default
 *(.vector_194)
                0x00000220                __vector_offset_195 = DEFINED (__vector_dispatch_195)?(. - _ebase_address):__vector_offset_default
 *(.vector_195)
                0x00000220                __vector_offset_196 = DEFINED (__vector_dispatch_196)?(. - _ebase_address):__vector_offset_default
 *(.vector_196)
                0x00000220                __vector_offset_197 = DEFINED (__vector_dispatch_197)?(. - _ebase_address):__vector_offset_default
 *(.vector_197)
                0x00000220                __vector_offset_198 = DEFINED (__vector_dispatch_198)?(. - _ebase_address):__vector_offset_default
 *(.vector_198)
                0x00000220                __vector_offset_199 = DEFINED (__vector_dispatch_199)?(. - _ebase_address):__vector_offset_default
 *(.vector_199)
                0x00000220                __vector_offset_200 = DEFINED (__vector_dispatch_200)?(. - _ebase_address):__vector_offset_default
 *(.vector_200)
                0x00000220                __vector_offset_201 = DEFINED (__vector_dispatch_201)?(. - _ebase_address):__vector_offset_default
 *(.vector_201)
                0x00000220                __vector_offset_202 = DEFINED (__vector_dispatch_202)?(. - _ebase_address):__vector_offset_default
 *(.vector_202)
                0x00000220                __vector_offset_203 = DEFINED (__vector_dispatch_203)?(. - _ebase_address):__vector_offset_default
 *(.vector_203)
                0x00000220                __vector_offset_204 = DEFINED (__vector_dispatch_204)?(. - _ebase_address):__vector_offset_default
 *(.vector_204)
                0x00000220                __vector_offset_205 = DEFINED (__vector_dispatch_205)?(. - _ebase_address):__vector_offset_default
 *(.vector_205)
                0x00000220                __vector_offset_206 = DEFINED (__vector_dispatch_206)?(. - _ebase_address):__vector_offset_default
 *(.vector_206)
                0x00000220                __vector_offset_207 = DEFINED (__vector_dispatch_207)?(. - _ebase_address):__vector_offset_default
 *(.vector_207)
                0x00000220                __vector_offset_208 = DEFINED (__vector_dispatch_208)?(. - _ebase_address):__vector_offset_default
 *(.vector_208)
                0x00000220                __vector_offset_209 = DEFINED (__vector_dispatch_209)?(. - _ebase_address):__vector_offset_default
 *(.vector_209)
                0x00000220                __vector_offset_210 = DEFINED (__vector_dispatch_210)?(. - _ebase_address):__vector_offset_default
 *(.vector_210)
                0x00000220                __vector_offset_211 = DEFINED (__vector_dispatch_211)?(. - _ebase_address):__vector_offset_default
 *(.vector_211)
                0x00000220                __vector_offset_212 = DEFINED (__vector_dispatch_212)?(. - _ebase_address):__vector_offset_default
 *(.vector_212)
                0x00000220                __vector_offset_213 = DEFINED (__vector_dispatch_213)?(. - _ebase_address):__vector_offset_default
 *(.vector_213)
                0x00000220                __vector_offset_214 = DEFINED (__vector_dispatch_214)?(. - _ebase_address):__vector_offset_default
 *(.vector_214)
                0x00000220                __vector_offset_215 = DEFINED (__vector_dispatch_215)?(. - _ebase_address):__vector_offset_default
 *(.vector_215)
                0x00000220                __vector_offset_216 = DEFINED (__vector_dispatch_216)?(. - _ebase_address):__vector_offset_default
 *(.vector_216)
                0x00000220                __vector_offset_217 = DEFINED (__vector_dispatch_217)?(. - _ebase_address):__vector_offset_default
 *(.vector_217)
                0x00000220                __vector_offset_218 = DEFINED (__vector_dispatch_218)?(. - _ebase_address):__vector_offset_default
 *(.vector_218)
                0x00000220                __vector_offset_219 = DEFINED (__vector_dispatch_219)?(. - _ebase_address):__vector_offset_default
 *(.vector_219)
                0x00000220                __vector_offset_220 = DEFINED (__vector_dispatch_220)?(. - _ebase_address):__vector_offset_default
 *(.vector_220)
                0x00000220                __vector_offset_221 = DEFINED (__vector_dispatch_221)?(. - _ebase_address):__vector_offset_default
 *(.vector_221)
                0x00000220                __vector_offset_222 = DEFINED (__vector_dispatch_222)?(. - _ebase_address):__vector_offset_default
 *(.vector_222)
                0x00000220                __vector_offset_223 = DEFINED (__vector_dispatch_223)?(. - _ebase_address):__vector_offset_default
 *(.vector_223)
                0x00000220                __vector_offset_224 = DEFINED (__vector_dispatch_224)?(. - _ebase_address):__vector_offset_default
 *(.vector_224)
                0x00000220                __vector_offset_225 = DEFINED (__vector_dispatch_225)?(. - _ebase_address):__vector_offset_default
 *(.vector_225)
                0x00000220                __vector_offset_226 = DEFINED (__vector_dispatch_226)?(. - _ebase_address):__vector_offset_default
 *(.vector_226)
                0x00000220                __vector_offset_227 = DEFINED (__vector_dispatch_227)?(. - _ebase_address):__vector_offset_default
 *(.vector_227)
                0x00000220                __vector_offset_228 = DEFINED (__vector_dispatch_228)?(. - _ebase_address):__vector_offset_default
 *(.vector_228)
                0x00000220                __vector_offset_229 = DEFINED (__vector_dispatch_229)?(. - _ebase_address):__vector_offset_default
 *(.vector_229)
                0x00000220                __vector_offset_230 = DEFINED (__vector_dispatch_230)?(. - _ebase_address):__vector_offset_default
 *(.vector_230)
                0x00000220                __vector_offset_231 = DEFINED (__vector_dispatch_231)?(. - _ebase_address):__vector_offset_default
 *(.vector_231)
                0x00000220                __vector_offset_232 = DEFINED (__vector_dispatch_232)?(. - _ebase_address):__vector_offset_default
 *(.vector_232)
                0x00000220                __vector_offset_233 = DEFINED (__vector_dispatch_233)?(. - _ebase_address):__vector_offset_default
 *(.vector_233)
                0x00000220                __vector_offset_234 = DEFINED (__vector_dispatch_234)?(. - _ebase_address):__vector_offset_default
 *(.vector_234)
                0x00000220                __vector_offset_235 = DEFINED (__vector_dispatch_235)?(. - _ebase_address):__vector_offset_default
 *(.vector_235)
                0x00000220                __vector_offset_236 = DEFINED (__vector_dispatch_236)?(. - _ebase_address):__vector_offset_default
 *(.vector_236)
                0x00000220                __vector_offset_237 = DEFINED (__vector_dispatch_237)?(. - _ebase_address):__vector_offset_default
 *(.vector_237)
                0x00000220                __vector_offset_238 = DEFINED (__vector_dispatch_238)?(. - _ebase_address):__vector_offset_default
 *(.vector_238)
                0x00000220                __vector_offset_239 = DEFINED (__vector_dispatch_239)?(. - _ebase_address):__vector_offset_default
 *(.vector_239)
                0x00000220                __vector_offset_240 = DEFINED (__vector_dispatch_240)?(. - _ebase_address):__vector_offset_default
 *(.vector_240)
                0x00000220                __vector_offset_241 = DEFINED (__vector_dispatch_241)?(. - _ebase_address):__vector_offset_default
 *(.vector_241)
                0x00000220                __vector_offset_242 = DEFINED (__vector_dispatch_242)?(. - _ebase_address):__vector_offset_default
 *(.vector_242)
                0x00000220                __vector_offset_243 = DEFINED (__vector_dispatch_243)?(. - _ebase_address):__vector_offset_default
 *(.vector_243)
                0x00000220                __vector_offset_244 = DEFINED (__vector_dispatch_244)?(. - _ebase_address):__vector_offset_default
 *(.vector_244)
                0x00000220                __vector_offset_245 = DEFINED (__vector_dispatch_245)?(. - _ebase_address):__vector_offset_default
 *(.vector_245)
                0x00000220                __vector_offset_246 = DEFINED (__vector_dispatch_246)?(. - _ebase_address):__vector_offset_default
 *(.vector_246)
                0x00000220                __vector_offset_247 = DEFINED (__vector_dispatch_247)?(. - _ebase_address):__vector_offset_default
 *(.vector_247)
                0x00000220                __vector_offset_248 = DEFINED (__vector_dispatch_248)?(. - _ebase_address):__vector_offset_default
 *(.vector_248)
                0x00000220                __vector_offset_249 = DEFINED (__vector_dispatch_249)?(. - _ebase_address):__vector_offset_default
 *(.vector_249)
                0x00000220                __vector_offset_250 = DEFINED (__vector_dispatch_250)?(. - _ebase_address):__vector_offset_default
 *(.vector_250)
                0x00000220                __vector_offset_251 = DEFINED (__vector_dispatch_251)?(. - _ebase_address):__vector_offset_default
 *(.vector_251)
                0x00000220                __vector_offset_252 = DEFINED (__vector_dispatch_252)?(. - _ebase_address):__vector_offset_default
 *(.vector_252)
                0x00000220                __vector_offset_253 = DEFINED (__vector_dispatch_253)?(. - _ebase_address):__vector_offset_default
 *(.vector_253)
                0x00000220                __vector_offset_254 = DEFINED (__vector_dispatch_254)?(. - _ebase_address):__vector_offset_default
 *(.vector_254)
                0x00000220                __vector_offset_255 = DEFINED (__vector_dispatch_255)?(. - _ebase_address):__vector_offset_default
 *(.vector_255)
                0x00000220                __vector_offset_default = (. - _ebase_address)
 *(.vector_default)
 .vector_default
                0x9d000220       0x48 c:/program files (x86)/microchip/xc32/v1.42/bin/bin/../../lib/gcc/pic32mx/4.8.3/../../../../pic32mx/lib\libpic32.a(defaultinterrupt.o)
                0x9d000220                _DefaultInterrupt

.startup
 *(.startup)

.text           0x9d000268        0x0
 *(.stub .gnu.linkonce.t.*)
 *(.text.*personality*)
 *(.mips16.fn.*)
 *(.mips16.call.*)
 *(.gnu.warning)
                0x9d000268                . = ALIGN (0x4)

.init           0x9d000268        0x0
 *crti.o(.init)
 *crtbegin.o(.init)
 *(EXCLUDE_FILE(*crtn.o *crtend?.o *crtend.o) .init)
 *crtend.o(.init)
 *crtn.o(.init)
                0x9d000268                . = ALIGN (0x4)

.fini           0x9d000268        0x0
 *(.fini)
                0x9d000268                . = ALIGN (0x4)

.preinit_array  0x9d000268        0x0
                0x9d000268                PROVIDE (__preinit_array_start, .)
 *(.preinit_array)
                0x9d000268                PROVIDE (__preinit_array_end, .)
                0x9d000268                . = ALIGN (0x4)

.init_array     0x9d000268        0x0
                0x9d000268                PROVIDE (__init_array_start, .)
 *(SORT(.init_array.*))
 *(.init_array)
                0x9d000268                PROVIDE (__init_array_end, .)
                0x9d000268                . = ALIGN (0x4)

.fini_array     0x9d000268        0x0
                0x9d000268                PROVIDE (__fini_array_start, .)
 *(SORT(.fini_array.*))
 *(.fini_array)
                0x9d000268                PROVIDE (__fini_array_end, .)
                0x9d000268                . = ALIGN (0x4)

.ctors          0x9d000268        0x0
 *crtbegin.o(.ctors)
 *crtbegin?.o(.ctors)
 *(EXCLUDE_FILE(*crtend?.o *crtend.o) .ctors)
 *(SORT(.ctors.*))
 *(.ctors)
                0x9d000268                . = ALIGN (0x4)

.dtors          0x9d000268        0x0
 *crtbegin.o(.dtors)
 *crtbegin?.o(.dtors)
 *(EXCLUDE_FILE(*crtend?.o *crtend.o) .dtors)
 *(SORT(.dtors.*))
 *(.dtors)
                0x9d000268                . = ALIGN (0x4)

.rodata         0x9d000268        0x0
 *(.gnu.linkonce.r.*)
 *(.rodata1)
                0x9d000268                . = ALIGN (0x4)

.sdata2         0x9fc004b0        0x0
 *(.sdata2 .sdata2.* .gnu.linkonce.s2.*)
                0x9fc004b0                . = ALIGN (0x4)

.sbss2          0x9fc004b0        0x0
 *(.sbss2 .sbss2.* .gnu.linkonce.sb2.*)
                0x9fc004b0                . = ALIGN (0x4)

.eh_frame_hdr
 *(.eh_frame_hdr)
                0x9fc004b0                . = ALIGN (0x4)

.eh_frame
 *(.eh_frame)
                0x9fc004b0                . = ALIGN (0x4)

.gcc_except_table
 *(.gcc_except_table .gcc_except_table.*)
                0x9fc004b0                . = ALIGN (0x4)

.dbg_data       0x80000000        0x0
                0x80000000                . = (. + DEFINED (_DEBUGGER)?0x200:0x0)
                0x80000000                . = (. + DEFINED (_DEBUGGER)?0x80:0x0)

.jcr            0x80000000        0x0
 *(.jcr)
                0x80000000                . = ALIGN (0x4)

.eh_frame
 *(.eh_frame)
                0x80000000                . = ALIGN (0x4)

.gcc_except_table
 *(.gcc_except_table .gcc_except_table.*)
                0x80000000                . = ALIGN (0x4)

.persist        0x80000000        0x0
                0x80000000                _persist_begin = .
 *(.persist .persist.*)
 *(.pbss .pbss.*)
                0x80000000                . = ALIGN (0x4)
                0x80000000                _persist_end = .

.data           0x80000000        0x0
 *(.gnu.linkonce.d.*)
 *(.data1)
                0x80000000                . = ALIGN (0x4)
                0x80000000                . = .
                0x80007ff0                _gp = (ALIGN (0x10) + 0x7ff0)

.got            0x80000000        0x0
 *(.got.plt)
 *(.got)
                0x80000000                . = ALIGN (0x4)

.sdata          0x80000000      0x210
                0x80000000                _sdata_begin = .
 *(.sdata .sdata.* .gnu.linkonce.s.*)
 .sdata         0x80000000        0x4 build/pic32mz_ef_sk_meb2/production/_ext/493934858/lodepng.o
                0x80000000                LODEPNG_VERSION_STRING
 .sdata         0x80000004        0x8 build/pic32mz_ef_sk_meb2/production/_ext/1597685232/gfxu_string_utils.o
                0x80000004                drawGlyphRow
 .sdata         0x8000000c        0x8 build/pic32mz_ef_sk_meb2/production/_ext/713288229/drv_gfx_lcc_generic.o
                0x8000000c                DRIVER_NAME
 .sdata         0x80000014      0x1d4 build/pic32mz_ef_sk_meb2/production/_ext/715821942/gfx_assets.o
                0x8000001c                fontList
                0x8000002c                TimesNewRoman12_index_table
                0x800000f0                TimesNewRoman12_lookup_6E
                0x800000f4                TimesNewRoman12_lookup_6B
                0x800000f8                TimesNewRoman12_lookup_67_68
                0x80000100                TimesNewRoman12_lookup_65
                0x80000104                TimesNewRoman12_lookup_63
                0x80000108                TimesNewRoman12_lookup_61
                0x8000010c                TimesNewRoman12_lookup_52
                0x80000110                TimesNewRoman12_lookup_4D
                0x80000114                TimesNewRoman12_lookup_47
                0x80000118                TimesNewRoman12_lookup_2E
                0x8000011c                TimesNewRoman12_lookup_20
                0x80000120                TimesNewRoman18_index_table
                0x800001b4                TimesNewRoman18_lookup_6B
                0x800001bc                TimesNewRoman18_lookup_69
                0x800001c4                TimesNewRoman18_lookup_63
                0x800001cc                TimesNewRoman18_lookup_61
                0x800001d4                TimesNewRoman18_lookup_5F
                0x800001d8                TimesNewRoman18_lookup_58
                0x800001dc                TimesNewRoman18_lookup_51
                0x800001e0                TimesNewRoman18_lookup_46_47
 .sdata         0x800001e8       0x24 c:/program files (x86)/microchip/xc32/v1.42/bin/bin/../../lib/gcc/pic32mx/4.8.3/../../../../pic32mx/lib\libpic32.a(pic32_init_cache.o)
                0x800001e8                __pic32_icache_size
                0x800001ec                __pic32_icache_linesize
                0x800001f0                __pic32_icache_ways
                0x800001f4                __pic32_dcache_size
                0x800001f8                __pic32_dcache_linesize
                0x800001fc                __pic32_dcache_ways
                0x80000200                __pic32_scache_size
                0x80000204                __pic32_scache_linesize
                0x80000208                __pic32_scache_ways
 .sdata         0x8000020c        0x4 c:/program files (x86)/microchip/xc32/v1.42/bin/bin/../../lib/gcc/pic32mx/4.8.3/../../../../pic32mx/lib\libpic32.a(xc32_uart.o)
                0x8000020c                __XC_UART
                0x80000210                . = ALIGN (0x4)
                0x80000210                _sdata_end = .

.lit8
 *(.lit8)

.lit4
 *(.lit4)
                0x80000210                . = ALIGN (0x4)
                0x80000210                _data_end = .
                0x80000210                _bss_begin = .

.sbss           0x80000210      0x104
                0x80000210                _sbss_begin = .
 *(.dynsbss)
 *(.sbss .sbss.* .gnu.linkonce.sb.*)
 .sbss          0x80000210        0x2 build/pic32mz_ef_sk_meb2/production/_ext/1360937237/app.o
                0x80000210                color
 *fill*         0x80000212        0x2 
 .sbss          0x80000214        0x4 build/pic32mz_ef_sk_meb2/production/_ext/1360937237/ov2640.o
                0x80000214                successCount
 .sbss          0x80000218       0x48 build/pic32mz_ef_sk_meb2/production/_ext/1597685232/gfxu_image_jpg_internal.o
 .sbss          0x80000260        0x4 build/pic32mz_ef_sk_meb2/production/_ext/1907747181/libaria.o
                0x80000260                _initialized
 .sbss          0x80000264        0x4 build/pic32mz_ef_sk_meb2/production/_ext/1907747181/libaria_context.o
                0x80000264                _activeContext
 .sbss          0x80000268        0x4 build/pic32mz_ef_sk_meb2/production/_ext/1847583374/gfx_context.o
                0x80000268                _contextActive
 .sbss          0x8000026c        0x8 build/pic32mz_ef_sk_meb2/production/_ext/1847583374/gfx_driver_interface.o
                0x8000026c                GFX_DriverInterfaces
 .sbss          0x80000274        0x2 build/pic32mz_ef_sk_meb2/production/_ext/199634090/drv_tmr_static.o
 *fill*         0x80000276        0x2 
 .sbss          0x80000278       0x28 build/pic32mz_ef_sk_meb2/production/_ext/713288229/drv_gfx_lcc_generic.o
                0x8000027d                allowLineUpdate
                0x8000027e                allowFrameUpdate
                0x80000280                vsyncEnd
                0x80000284                vsyncPulseUp
                0x80000288                vsyncPulseDown
                0x8000028c                vsyncPeriod
                0x80000290                hSyncs
                0x80000294                pixels
                0x80000298                offset
                0x8000029c                line
 .sbss          0x800002a0        0x4 build/pic32mz_ef_sk_meb2/production/_ext/1740298103/libaria_harmony.o
 .sbss          0x800002a4        0xc build/pic32mz_ef_sk_meb2/production/_ext/1951523377/system_exceptions.o
 *(.scommon)
 .scommon       0x800002b0       0x14 build/pic32mz_ef_sk_meb2/production/_ext/1360937237/app.o
                0x800002b0                delayTimer
                0x800002b4                appData
                0x800002b8                delayUsTimer
                0x800002bc                delay_ms
                0x800002c0                delay_us
 .scommon       0x800002c4        0x4 build/pic32mz_ef_sk_meb2/production/_ext/1847583374/gfx_color_blend.o
                0x800002c4                last
 .scommon       0x800002c8       0x30 build/pic32mz_ef_sk_meb2/production/_ext/713288229/drv_gfx_lcc_generic.o
                0x800002c8                DISP_VER_RESOLUTION
                0x800002cc                DISP_VER_FRONT_PORCH
                0x800002d0                DISP_HOR_FRONT_PORCH
                0x800002d4                DISP_HOR_PULSE_WIDTH
                0x800002d8                cntxt
                0x800002dc                DISP_VER_PULSE_WIDTH
                0x800002e0                DISP_HOR_BACK_PORCH
                0x800002e4                HBackPorch
                0x800002e8                VER_BLANK
                0x800002ec                state
                0x800002f0                DISP_VER_BACK_PORCH
                0x800002f4                DISP_HOR_RESOLUTION
 .scommon       0x800002f8        0x4 build/pic32mz_ef_sk_meb2/production/_ext/1740298103/libaria_harmony.o
                0x800002f8                libariaObj
 .scommon       0x800002fc       0x10 build/pic32mz_ef_sk_meb2/production/_ext/1740298103/libaria_init.o
                0x800002fc                ImageWidget1
                0x80000300                LabelWidget1
                0x80000304                RectangleWidget1
                0x80000308                ButtonWidget1
 .scommon       0x8000030c        0x8 build/pic32mz_ef_sk_meb2/production/_ext/924081491/sys_devcon.o
                0x8000030c                sysDevconObj
                0x80000314                _sbss_end = .
                0x80000314                . = ALIGN (0x4)

.bss            0x80000314      0x17c
 *(.dynbss)
 *(COMMON)
 COMMON         0x80000314       0x80 build/pic32mz_ef_sk_meb2/production/_ext/853959373/sys_dma.o
                0x80000314                gSysDMAChannelObj
 COMMON         0x80000394       0x40 build/pic32mz_ef_sk_meb2/production/_ext/1740298103/libaria_init.o
                0x80000394                defaultScheme
 COMMON         0x800003d4       0xb0 build/pic32mz_ef_sk_meb2/production/_ext/1847413222/sys_clk.o
                0x800003d4                clkObject
 COMMON         0x80000484        0xc build/pic32mz_ef_sk_meb2/production/_ext/1951523377/system_init.o
                0x80000484                sysObj
                0x80000490                . = ALIGN ((. != 0x0)?0x4:0x1)
                0x80000490                . = ALIGN (0x4)
                0x80000490                _end = .
                0x80000490                _bss_end = .
                0x00080000                _bmxdudba_address = 0x80000
                0x00080000                _bmxdupba_address = 0x80000

/DISCARD/
 *(.pdr)
 *(.rel.dyn)
 *(.note.GNU-stack)
 *(.note.GNU-stack)
 *(.gnu_debuglink)
 *(.gnu.lto_*)
 *(.discard)

.gptab.sdata
 *(.gptab.data)
 *(.gptab.sdata)

.gptab.sbss
 *(.gptab.bss)
 *(.gptab.sbss)

.mdebug.abi32   0x80000490        0x0
 *(.mdebug.abi32)
 .mdebug.abi32  0x80000490        0x0 build/pic32mz_ef_sk_meb2/production/_ext/1360937237/app.o
 .mdebug.abi32  0x80000490        0x0 build/pic32mz_ef_sk_meb2/production/_ext/1360937237/main.o
 .mdebug.abi32  0x80000490        0x0 build/pic32mz_ef_sk_meb2/production/_ext/1360937237/ov2640.o
 .mdebug.abi32  0x80000490        0x0 build/pic32mz_ef_sk_meb2/production/_ext/1360937237/i2c_master_noint.o
 .mdebug.abi32  0x80000490        0x0 build/pic32mz_ef_sk_meb2/production/_ext/1360937237/i2c_bitbanging.o
 .mdebug.abi32  0x80000490        0x0 build/pic32mz_ef_sk_meb2/production/_ext/426253641/jidctint.o
 .mdebug.abi32  0x80000490        0x0 build/pic32mz_ef_sk_meb2/production/_ext/1597685232/gfxu_image.o
 .mdebug.abi32  0x80000490        0x0 build/pic32mz_ef_sk_meb2/production/_ext/1597685232/gfxu_image_png_external.o
 .mdebug.abi32  0x80000490        0x0 build/pic32mz_ef_sk_meb2/production/_ext/1597685232/gfxu_image_png_internal.o
 .mdebug.abi32  0x80000490        0x0 build/pic32mz_ef_sk_meb2/production/_ext/1597685232/gfxu_image_jpg_internal.o
 .mdebug.abi32  0x80000490        0x0 build/pic32mz_ef_sk_meb2/production/_ext/493934858/lodepng.o
 .mdebug.abi32  0x80000490        0x0 build/pic32mz_ef_sk_meb2/production/_ext/1597685232/gfxu_image_raw_external.o
 .mdebug.abi32  0x80000490        0x0 build/pic32mz_ef_sk_meb2/production/_ext/1597685232/gfxu_image_raw_internal.o
 .mdebug.abi32  0x80000490        0x0 build/pic32mz_ef_sk_meb2/production/_ext/1597685232/gfxu_image_rle_external.o
 .mdebug.abi32  0x80000490        0x0 build/pic32mz_ef_sk_meb2/production/_ext/1597685232/gfxu_image_rle_internal.o
 .mdebug.abi32  0x80000490        0x0 build/pic32mz_ef_sk_meb2/production/_ext/1597685232/gfxu_image_utils.o
 .mdebug.abi32  0x80000490        0x0 build/pic32mz_ef_sk_meb2/production/_ext/1597685232/gfxu_palette.o
 .mdebug.abi32  0x80000490        0x0 build/pic32mz_ef_sk_meb2/production/_ext/1597685232/gfxu_string.o
 .mdebug.abi32  0x80000490        0x0 build/pic32mz_ef_sk_meb2/production/_ext/1597685232/gfxu_string_external.o
 .mdebug.abi32  0x80000490        0x0 build/pic32mz_ef_sk_meb2/production/_ext/1597685232/gfxu_string_internal.o
 .mdebug.abi32  0x80000490        0x0 build/pic32mz_ef_sk_meb2/production/_ext/1597685232/gfxu_string_query.o
 .mdebug.abi32  0x80000490        0x0 build/pic32mz_ef_sk_meb2/production/_ext/1597685232/gfxu_string_utils.o
 .mdebug.abi32  0x80000490        0x0 build/pic32mz_ef_sk_meb2/production/_ext/1907747181/libaria.o
 .mdebug.abi32  0x80000490        0x0 build/pic32mz_ef_sk_meb2/production/_ext/1907747181/libaria_context.o
 .mdebug.abi32  0x80000490        0x0 build/pic32mz_ef_sk_meb2/production/_ext/1907747181/libaria_context_paint.o
 .mdebug.abi32  0x80000490        0x0 build/pic32mz_ef_sk_meb2/production/_ext/1907747181/libaria_draw.o
 .mdebug.abi32  0x80000490        0x0 build/pic32mz_ef_sk_meb2/production/_ext/1907747181/libaria_editwidget.o
 .mdebug.abi32  0x80000490        0x0 build/pic32mz_ef_sk_meb2/production/_ext/1907747181/libaria_event.o
 .mdebug.abi32  0x80000490        0x0 build/pic32mz_ef_sk_meb2/production/_ext/1907747181/libaria_input.o
 .mdebug.abi32  0x80000490        0x0 build/pic32mz_ef_sk_meb2/production/_ext/1907747181/libaria_layer.o
 .mdebug.abi32  0x80000490        0x0 build/pic32mz_ef_sk_meb2/production/_ext/1907747181/libaria_list.o
 .mdebug.abi32  0x80000490        0x0 build/pic32mz_ef_sk_meb2/production/_ext/1907747181/libaria_scheme.o
 .mdebug.abi32  0x80000490        0x0 build/pic32mz_ef_sk_meb2/production/_ext/1907747181/libaria_screen.o
 .mdebug.abi32  0x80000490        0x0 build/pic32mz_ef_sk_meb2/production/_ext/1907747181/libaria_string.o
 .mdebug.abi32  0x80000490        0x0 build/pic32mz_ef_sk_meb2/production/_ext/1907747181/libaria_utils.o
 .mdebug.abi32  0x80000490        0x0 build/pic32mz_ef_sk_meb2/production/_ext/1907747181/libaria_widget.o
 .mdebug.abi32  0x80000490        0x0 build/pic32mz_ef_sk_meb2/production/_ext/1907747181/libaria_widget_skin_classic.o
 .mdebug.abi32  0x80000490        0x0 build/pic32mz_ef_sk_meb2/production/_ext/1907747181/libaria_widget_button.o
 .mdebug.abi32  0x80000490        0x0 build/pic32mz_ef_sk_meb2/production/_ext/1907747181/libaria_widget_button_skin_classic.o
 .mdebug.abi32  0x80000490        0x0 build/pic32mz_ef_sk_meb2/production/_ext/1907747181/libaria_widget_checkbox.o
 .mdebug.abi32  0x80000490        0x0 build/pic32mz_ef_sk_meb2/production/_ext/1907747181/libaria_widget_checkbox_skin_classic.o
 .mdebug.abi32  0x80000490        0x0 build/pic32mz_ef_sk_meb2/production/_ext/1907747181/libaria_widget_circle.o
 .mdebug.abi32  0x80000490        0x0 build/pic32mz_ef_sk_meb2/production/_ext/1907747181/libaria_widget_circle_skin_classic.o
 .mdebug.abi32  0x80000490        0x0 build/pic32mz_ef_sk_meb2/production/_ext/1907747181/libaria_widget_drawsurface.o
 .mdebug.abi32  0x80000490        0x0 build/pic32mz_ef_sk_meb2/production/_ext/1907747181/libaria_widget_drawsurface_skin_classic.o
 .mdebug.abi32  0x80000490        0x0 build/pic32mz_ef_sk_meb2/production/_ext/1907747181/libaria_widget_gradient.o
 .mdebug.abi32  0x80000490        0x0 build/pic32mz_ef_sk_meb2/production/_ext/1907747181/libaria_widget_gradient_skin_classic.o
 .mdebug.abi32  0x80000490        0x0 build/pic32mz_ef_sk_meb2/production/_ext/1907747181/libaria_widget_groupbox.o
 .mdebug.abi32  0x80000490        0x0 build/pic32mz_ef_sk_meb2/production/_ext/1907747181/libaria_widget_groupbox_skin_classic.o
 .mdebug.abi32  0x80000490        0x0 build/pic32mz_ef_sk_meb2/production/_ext/1907747181/libaria_widget_image.o
 .mdebug.abi32  0x80000490        0x0 build/pic32mz_ef_sk_meb2/production/_ext/1907747181/libaria_widget_image_skin_classic.o
 .mdebug.abi32  0x80000490        0x0 build/pic32mz_ef_sk_meb2/production/_ext/1907747181/libaria_widget_imagesequence.o
 .mdebug.abi32  0x80000490        0x0 build/pic32mz_ef_sk_meb2/production/_ext/1907747181/libaria_widget_imagesequence_skin_classic.o
 .mdebug.abi32  0x80000490        0x0 build/pic32mz_ef_sk_meb2/production/_ext/1907747181/libaria_widget_keypad.o
 .mdebug.abi32  0x80000490        0x0 build/pic32mz_ef_sk_meb2/production/_ext/1907747181/libaria_widget_keypad_skin_classic.o
 .mdebug.abi32  0x80000490        0x0 build/pic32mz_ef_sk_meb2/production/_ext/1907747181/libaria_widget_label.o
 .mdebug.abi32  0x80000490        0x0 build/pic32mz_ef_sk_meb2/production/_ext/1907747181/libaria_widget_label_skin_classic.o
 .mdebug.abi32  0x80000490        0x0 build/pic32mz_ef_sk_meb2/production/_ext/1907747181/libaria_widget_line.o
 .mdebug.abi32  0x80000490        0x0 build/pic32mz_ef_sk_meb2/production/_ext/1907747181/libaria_widget_line_skin_classic.o
 .mdebug.abi32  0x80000490        0x0 build/pic32mz_ef_sk_meb2/production/_ext/1907747181/libaria_widget_list.o
 .mdebug.abi32  0x80000490        0x0 build/pic32mz_ef_sk_meb2/production/_ext/1907747181/libaria_widget_list_skin_classic.o
 .mdebug.abi32  0x80000490        0x0 build/pic32mz_ef_sk_meb2/production/_ext/1907747181/libaria_widget_listwheel.o
 .mdebug.abi32  0x80000490        0x0 build/pic32mz_ef_sk_meb2/production/_ext/1907747181/libaria_widget_listwheel_skin_classic.o
 .mdebug.abi32  0x80000490        0x0 build/pic32mz_ef_sk_meb2/production/_ext/1907747181/libaria_widget_progressbar.o
 .mdebug.abi32  0x80000490        0x0 build/pic32mz_ef_sk_meb2/production/_ext/1907747181/libaria_widget_progressbar_skin_classic.o
 .mdebug.abi32  0x80000490        0x0 build/pic32mz_ef_sk_meb2/production/_ext/1907747181/libaria_widget_radiobutton.o
 .mdebug.abi32  0x80000490        0x0 build/pic32mz_ef_sk_meb2/production/_ext/1907747181/libaria_widget_radiobutton_skin_classic.o
 .mdebug.abi32  0x80000490        0x0 build/pic32mz_ef_sk_meb2/production/_ext/1907747181/libaria_radiobutton_group.o
 .mdebug.abi32  0x80000490        0x0 build/pic32mz_ef_sk_meb2/production/_ext/1907747181/libaria_widget_rectangle.o
 .mdebug.abi32  0x80000490        0x0 build/pic32mz_ef_sk_meb2/production/_ext/1907747181/libaria_widget_rectangle_skin_classic.o
 .mdebug.abi32  0x80000490        0x0 build/pic32mz_ef_sk_meb2/production/_ext/1907747181/libaria_widget_scrollbar.o
 .mdebug.abi32  0x80000490        0x0 build/pic32mz_ef_sk_meb2/production/_ext/1907747181/libaria_widget_scrollbar_skin_classic.o
 .mdebug.abi32  0x80000490        0x0 build/pic32mz_ef_sk_meb2/production/_ext/1907747181/libaria_widget_slider.o
 .mdebug.abi32  0x80000490        0x0 build/pic32mz_ef_sk_meb2/production/_ext/1907747181/libaria_widget_slider_skin_classic.o
 .mdebug.abi32  0x80000490        0x0 build/pic32mz_ef_sk_meb2/production/_ext/1907747181/libaria_widget_textfield.o
 .mdebug.abi32  0x80000490        0x0 build/pic32mz_ef_sk_meb2/production/_ext/1907747181/libaria_widget_textfield_skin_classic.o
 .mdebug.abi32  0x80000490        0x0 build/pic32mz_ef_sk_meb2/production/_ext/1907747181/libaria_widget_touchtest.o
 .mdebug.abi32  0x80000490        0x0 build/pic32mz_ef_sk_meb2/production/_ext/1907747181/libaria_widget_touchtest_skin_classic.o
 .mdebug.abi32  0x80000490        0x0 build/pic32mz_ef_sk_meb2/production/_ext/1907747181/libaria_widget_window.o
 .mdebug.abi32  0x80000490        0x0 build/pic32mz_ef_sk_meb2/production/_ext/1907747181/libaria_widget_window_skin_classic.o
 .mdebug.abi32  0x80000490        0x0 build/pic32mz_ef_sk_meb2/production/_ext/1847583374/gfx.o
 .mdebug.abi32  0x80000490        0x0 build/pic32mz_ef_sk_meb2/production/_ext/1847583374/gfx_color.o
 .mdebug.abi32  0x80000490        0x0 build/pic32mz_ef_sk_meb2/production/_ext/1847583374/gfx_context.o
 .mdebug.abi32  0x80000490        0x0 build/pic32mz_ef_sk_meb2/production/_ext/1847583374/gfx_default_impl.o
 .mdebug.abi32  0x80000490        0x0 build/pic32mz_ef_sk_meb2/production/_ext/1847583374/gfx_display.o
 .mdebug.abi32  0x80000490        0x0 build/pic32mz_ef_sk_meb2/production/_ext/1847583374/gfx_driver_interface.o
 .mdebug.abi32  0x80000490        0x0 build/pic32mz_ef_sk_meb2/production/_ext/1847583374/gfx_get.o
 .mdebug.abi32  0x80000490        0x0 build/pic32mz_ef_sk_meb2/production/_ext/1847583374/gfx_interface.o
 .mdebug.abi32  0x80000490        0x0 build/pic32mz_ef_sk_meb2/production/_ext/1847583374/gfx_layer.o
 .mdebug.abi32  0x80000490        0x0 build/pic32mz_ef_sk_meb2/production/_ext/1847583374/gfx_pixel_buffer.o
 .mdebug.abi32  0x80000490        0x0 build/pic32mz_ef_sk_meb2/production/_ext/1847583374/gfx_rect.o
 .mdebug.abi32  0x80000490        0x0 build/pic32mz_ef_sk_meb2/production/_ext/1847583374/gfx_util.o
 .mdebug.abi32  0x80000490        0x0 build/pic32mz_ef_sk_meb2/production/_ext/1847583374/gfx_set.o
 .mdebug.abi32  0x80000490        0x0 build/pic32mz_ef_sk_meb2/production/_ext/1847583374/gfx_color_blend.o
 .mdebug.abi32  0x80000490        0x0 build/pic32mz_ef_sk_meb2/production/_ext/1847583374/gfx_color_convert.o
 .mdebug.abi32  0x80000490        0x0 build/pic32mz_ef_sk_meb2/production/_ext/1847583374/gfx_color_lerp.o
 .mdebug.abi32  0x80000490        0x0 build/pic32mz_ef_sk_meb2/production/_ext/1847583374/gfx_color_value.o
 .mdebug.abi32  0x80000490        0x0 build/pic32mz_ef_sk_meb2/production/_ext/1847583374/gfx_draw_blit.o
 .mdebug.abi32  0x80000490        0x0 build/pic32mz_ef_sk_meb2/production/_ext/1847583374/gfx_draw_circle.o
 .mdebug.abi32  0x80000490        0x0 build/pic32mz_ef_sk_meb2/production/_ext/1847583374/gfx_draw_line.o
 .mdebug.abi32  0x80000490        0x0 build/pic32mz_ef_sk_meb2/production/_ext/1847583374/gfx_draw_pixel.o
 .mdebug.abi32  0x80000490        0x0 build/pic32mz_ef_sk_meb2/production/_ext/1847583374/gfx_draw_rect.o
 .mdebug.abi32  0x80000490        0x0 build/pic32mz_ef_sk_meb2/production/_ext/1847583374/gfx_math.o
 .mdebug.abi32  0x80000490        0x0 build/pic32mz_ef_sk_meb2/production/_ext/853959373/sys_dma.o
 .mdebug.abi32  0x80000490        0x0 build/pic32mz_ef_sk_meb2/production/_ext/1042686532/sys_int_pic32.o
 .mdebug.abi32  0x80000490        0x0 build/pic32mz_ef_sk_meb2/production/_ext/199634090/drv_tmr_static.o
 .mdebug.abi32  0x80000490        0x0 build/pic32mz_ef_sk_meb2/production/_ext/199634090/drv_tmr_mapping.o
 .mdebug.abi32  0x80000490        0x0 build/pic32mz_ef_sk_meb2/production/_ext/713288229/drv_gfx_lcc_generic.o
 .mdebug.abi32  0x80000490        0x0 build/pic32mz_ef_sk_meb2/production/_ext/1740298103/libaria_harmony.o
 .mdebug.abi32  0x80000490        0x0 build/pic32mz_ef_sk_meb2/production/_ext/1740298103/libaria_init.o
 .mdebug.abi32  0x80000490        0x0 build/pic32mz_ef_sk_meb2/production/_ext/1740298103/libaria_events.o
 .mdebug.abi32  0x80000490        0x0 build/pic32mz_ef_sk_meb2/production/_ext/1740298103/libaria_macros.o
 .mdebug.abi32  0x80000490        0x0 build/pic32mz_ef_sk_meb2/production/_ext/477038478/gfx_display_def.o
 .mdebug.abi32  0x80000490        0x0 build/pic32mz_ef_sk_meb2/production/_ext/477038478/gfx_driver_def.o
 .mdebug.abi32  0x80000490        0x0 build/pic32mz_ef_sk_meb2/production/_ext/1847413222/sys_clk.o
 .mdebug.abi32  0x80000490        0x0 build/pic32mz_ef_sk_meb2/production/_ext/1847413222/sys_clk_pic32mz.o
 .mdebug.abi32  0x80000490        0x0 build/pic32mz_ef_sk_meb2/production/_ext/924081491/sys_devcon.o
 .mdebug.abi32  0x80000490        0x0 build/pic32mz_ef_sk_meb2/production/_ext/924081491/sys_devcon_pic32mz.o
 .mdebug.abi32  0x80000490        0x0 build/pic32mz_ef_sk_meb2/production/_ext/50030870/sys_ports_static.o
 .mdebug.abi32  0x80000490        0x0 build/pic32mz_ef_sk_meb2/production/_ext/1465531745/bsp.o
 .mdebug.abi32  0x80000490        0x0 build/pic32mz_ef_sk_meb2/production/_ext/1951523377/system_init.o
 .mdebug.abi32  0x80000490        0x0 build/pic32mz_ef_sk_meb2/production/_ext/1951523377/system_interrupt.o
 .mdebug.abi32  0x80000490        0x0 build/pic32mz_ef_sk_meb2/production/_ext/1951523377/system_exceptions.o
 .mdebug.abi32  0x80000490        0x0 build/pic32mz_ef_sk_meb2/production/_ext/1951523377/system_tasks.o
 .mdebug.abi32  0x80000490        0x0 build/pic32mz_ef_sk_meb2/production/_ext/715821942/gfx_assets.o
 .mdebug.abi32  0x80000490        0x0 c:/program files (x86)/microchip/xc32/v1.42/bin/bin/../../lib/gcc/pic32mx/4.8.3\libgcc.a(floatunsisf.o)
 .mdebug.abi32  0x80000490        0x0 c:/program files (x86)/microchip/xc32/v1.42/bin/bin/../../lib/gcc/pic32mx/4.8.3/../../../../pic32mx/lib\libpic32.a(default-bootstrap-exception-handler.o)
 .mdebug.abi32  0x80000490        0x0 c:/program files (x86)/microchip/xc32/v1.42/bin/bin/../../lib/gcc/pic32mx/4.8.3/../../../../pic32mx/lib\libpic32.a(default-on-reset.o)
 .mdebug.abi32  0x80000490        0x0 c:/program files (x86)/microchip/xc32/v1.42/bin/bin/../../lib/gcc/pic32mx/4.8.3/../../../../pic32mx/lib\libpic32.a(default-on-bootstrap.o)
 .mdebug.abi32  0x80000490        0x0 c:/program files (x86)/microchip/xc32/v1.42/bin/bin/../../lib/gcc/pic32mx/4.8.3/../../../../pic32mx/lib\libpic32.a(defaultinterrupt.o)
 .mdebug.abi32  0x80000490        0x0 c:/program files (x86)/microchip/xc32/v1.42/bin/bin/../../lib/gcc/pic32mx/4.8.3/../../../../pic32mx/lib\libpic32.a(default-cache-err-exception-handler.o)
 .mdebug.abi32  0x80000490        0x0 c:/program files (x86)/microchip/xc32/v1.42/bin/bin/../../lib/gcc/pic32mx/4.8.3/../../../../pic32mx/lib\libpic32.a(default-simple-tlb-refill-exception-handler.o)
 .mdebug.abi32  0x80000490        0x0 c:/program files (x86)/microchip/xc32/v1.42/bin/bin/../../lib/gcc/pic32mx/4.8.3/../../../../pic32mx/lib\libc.a(fclose.o)
 .mdebug.abi32  0x80000490        0x0 c:/program files (x86)/microchip/xc32/v1.42/bin/bin/../../lib/gcc/pic32mx/4.8.3/../../../../pic32mx/lib\libc.a(fflush.o)
 .mdebug.abi32  0x80000490        0x0 c:/program files (x86)/microchip/xc32/v1.42/bin/bin/../../lib/gcc/pic32mx/4.8.3/../../../../pic32mx/lib\libc.a(fopen.o)
 .mdebug.abi32  0x80000490        0x0 c:/program files (x86)/microchip/xc32/v1.42/bin/bin/../../lib/gcc/pic32mx/4.8.3/../../../../pic32mx/lib\libc.a(fread.o)
 .mdebug.abi32  0x80000490        0x0 c:/program files (x86)/microchip/xc32/v1.42/bin/bin/../../lib/gcc/pic32mx/4.8.3/../../../../pic32mx/lib\libc.a(freopen.o)
 .mdebug.abi32  0x80000490        0x0 c:/program files (x86)/microchip/xc32/v1.42/bin/bin/../../lib/gcc/pic32mx/4.8.3/../../../../pic32mx/lib\libc.a(fseek.o)
 .mdebug.abi32  0x80000490        0x0 c:/program files (x86)/microchip/xc32/v1.42/bin/bin/../../lib/gcc/pic32mx/4.8.3/../../../../pic32mx/lib\libc.a(fwrite.o)
 .mdebug.abi32  0x80000490        0x0 c:/program files (x86)/microchip/xc32/v1.42/bin/bin/../../lib/gcc/pic32mx/4.8.3/../../../../pic32mx/lib\libc.a(buf.o)
 .mdebug.abi32  0x80000490        0x0 c:/program files (x86)/microchip/xc32/v1.42/bin/bin/../../lib/gcc/pic32mx/4.8.3/../../../../pic32mx/lib\libc.a(calloc.o)
 .mdebug.abi32  0x80000490        0x0 c:/program files (x86)/microchip/xc32/v1.42/bin/bin/../../lib/gcc/pic32mx/4.8.3/../../../../pic32mx/lib\libc.a(errno.o)
 .mdebug.abi32  0x80000490        0x0 c:/program files (x86)/microchip/xc32/v1.42/bin/bin/../../lib/gcc/pic32mx/4.8.3/../../../../pic32mx/lib\libc.a(malloc.o)
 .mdebug.abi32  0x80000490        0x0 c:/program files (x86)/microchip/xc32/v1.42/bin/bin/../../lib/gcc/pic32mx/4.8.3/../../../../pic32mx/lib\libc.a(tfiles.o)
 .mdebug.abi32  0x80000490        0x0 c:/program files (x86)/microchip/xc32/v1.42/bin/bin/../../lib/gcc/pic32mx/4.8.3/../../../../pic32mx/lib\libc.a(_iob.o)
 .mdebug.abi32  0x80000490        0x0 c:/program files (x86)/microchip/xc32/v1.42/bin/bin/../../lib/gcc/pic32mx/4.8.3/../../../../pic32mx/lib\libc.a(fgetc.o)
 .mdebug.abi32  0x80000490        0x0 c:/program files (x86)/microchip/xc32/v1.42/bin/bin/../../lib/gcc/pic32mx/4.8.3/../../../../pic32mx/lib\libc.a(_fputc_simple.o)
 .mdebug.abi32  0x80000490        0x0 c:/program files (x86)/microchip/xc32/v1.42/bin/bin/../../lib/gcc/pic32mx/4.8.3/../../../../pic32mx/lib\libc.a(filbuf.o)
 .mdebug.abi32  0x80000490        0x0 c:/program files (x86)/microchip/xc32/v1.42/bin/bin/../../lib/gcc/pic32mx/4.8.3/../../../../pic32mx/lib\libc.a(_flsbuf_simple.o)
 .mdebug.abi32  0x80000490        0x0 c:/program files (x86)/microchip/xc32/v1.42/bin/bin/../../lib/gcc/pic32mx/4.8.3/../../../../pic32mx/lib\libpic32.a(sbrk.o)
 .mdebug.abi32  0x80000490        0x0 c:/program files (x86)/microchip/xc32/v1.42/bin/bin/../../lib/gcc/pic32mx/4.8.3/../../../../pic32mx/lib\libpic32.a(read.o)
 .mdebug.abi32  0x80000490        0x0 c:/program files (x86)/microchip/xc32/v1.42/bin/bin/../../lib/gcc/pic32mx/4.8.3/../../../../pic32mx/lib\libpic32.a(write.o)
 .mdebug.abi32  0x80000490        0x0 c:/program files (x86)/microchip/xc32/v1.42/bin/bin/../../lib/gcc/pic32mx/4.8.3/../../../../pic32mx/lib\libpic32.a(lseek.o)
 .mdebug.abi32  0x80000490        0x0 c:/program files (x86)/microchip/xc32/v1.42/bin/bin/../../lib/gcc/pic32mx/4.8.3/../../../../pic32mx/lib\libpic32.a(remove.o)
 .mdebug.abi32  0x80000490        0x0 c:/program files (x86)/microchip/xc32/v1.42/bin/bin/../../lib/gcc/pic32mx/4.8.3/../../../../pic32mx/lib\libpic32.a(close.o)
 .mdebug.abi32  0x80000490        0x0 c:/program files (x86)/microchip/xc32/v1.42/bin/bin/../../lib/gcc/pic32mx/4.8.3/../../../../pic32mx/lib\libpic32.a(open.o)
 .mdebug.abi32  0x80000490        0x0 c:/program files (x86)/microchip/xc32/v1.42/bin/bin/../../lib/gcc/pic32mx/4.8.3/../../../../pic32mx/lib\libpic32.a(xc32_uart.o)
 .mdebug.abi32  0x80000490        0x0 c:/program files (x86)/microchip/xc32/v1.42/bin/bin/../../lib/gcc/pic32mx/4.8.3/../../../../pic32mx/lib\libpic32.a(_mon_putc.o)

.mdebug.abiN32
 *(.mdebug.abiN32)

.mdebug.abi64
 *(.mdebug.abi64)

.mdebug.abiO64
 *(.mdebug.abiO64)

.mdebug.eabi32
 *(.mdebug.eabi32)

.mdebug.eabi64
 *(.mdebug.eabi64)

.gcc_compiled_long32
 *(.gcc_compiled_long32)

.gcc_compiled_long64
 *(.gcc_compiled_long64)

.stab
 *(.stab)

.stabstr
 *(.stabstr)

.stab.excl
 *(.stab.excl)

.stab.exclstr
 *(.stab.exclstr)

.stab.index
 *(.stab.index)

.stab.indexstr
 *(.stab.indexstr)

.comment        0x00000000       0xd1
 *(.comment)
 .comment       0x00000000       0x3c build/pic32mz_ef_sk_meb2/production/_ext/1360937237/app.o
                                 0x3d (size before relaxing)
 .comment       0x00000000       0x3d build/pic32mz_ef_sk_meb2/production/_ext/1360937237/main.o
 .comment       0x00000000       0x3d build/pic32mz_ef_sk_meb2/production/_ext/1360937237/ov2640.o
 .comment       0x00000000       0x3d build/pic32mz_ef_sk_meb2/production/_ext/1360937237/i2c_master_noint.o
 .comment       0x00000000       0x3d build/pic32mz_ef_sk_meb2/production/_ext/1360937237/i2c_bitbanging.o
 .comment       0x00000000       0x3d build/pic32mz_ef_sk_meb2/production/_ext/426253641/jidctint.o
 .comment       0x00000000       0x3d build/pic32mz_ef_sk_meb2/production/_ext/1597685232/gfxu_image.o
 .comment       0x00000000       0x3d build/pic32mz_ef_sk_meb2/production/_ext/1597685232/gfxu_image_png_external.o
 .comment       0x00000000       0x3d build/pic32mz_ef_sk_meb2/production/_ext/1597685232/gfxu_image_png_internal.o
 .comment       0x00000000       0x3d build/pic32mz_ef_sk_meb2/production/_ext/1597685232/gfxu_image_jpg_internal.o
 .comment       0x00000000       0x3d build/pic32mz_ef_sk_meb2/production/_ext/493934858/lodepng.o
 .comment       0x00000000       0x3d build/pic32mz_ef_sk_meb2/production/_ext/1597685232/gfxu_image_raw_external.o
 .comment       0x00000000       0x3d build/pic32mz_ef_sk_meb2/production/_ext/1597685232/gfxu_image_raw_internal.o
 .comment       0x00000000       0x3d build/pic32mz_ef_sk_meb2/production/_ext/1597685232/gfxu_image_rle_external.o
 .comment       0x00000000       0x3d build/pic32mz_ef_sk_meb2/production/_ext/1597685232/gfxu_image_rle_internal.o
 .comment       0x00000000       0x3d build/pic32mz_ef_sk_meb2/production/_ext/1597685232/gfxu_image_utils.o
 .comment       0x00000000       0x3d build/pic32mz_ef_sk_meb2/production/_ext/1597685232/gfxu_palette.o
 .comment       0x00000000       0x3d build/pic32mz_ef_sk_meb2/production/_ext/1597685232/gfxu_string.o
 .comment       0x00000000       0x3d build/pic32mz_ef_sk_meb2/production/_ext/1597685232/gfxu_string_external.o
 .comment       0x00000000       0x3d build/pic32mz_ef_sk_meb2/production/_ext/1597685232/gfxu_string_internal.o
 .comment       0x00000000       0x3d build/pic32mz_ef_sk_meb2/production/_ext/1597685232/gfxu_string_query.o
 .comment       0x00000000       0x3d build/pic32mz_ef_sk_meb2/production/_ext/1597685232/gfxu_string_utils.o
 .comment       0x00000000       0x3d build/pic32mz_ef_sk_meb2/production/_ext/1907747181/libaria.o
 .comment       0x00000000       0x3d build/pic32mz_ef_sk_meb2/production/_ext/1907747181/libaria_context.o
 .comment       0x00000000       0x3d build/pic32mz_ef_sk_meb2/production/_ext/1907747181/libaria_context_paint.o
 .comment       0x00000000       0x3d build/pic32mz_ef_sk_meb2/production/_ext/1907747181/libaria_draw.o
 .comment       0x00000000       0x3d build/pic32mz_ef_sk_meb2/production/_ext/1907747181/libaria_editwidget.o
 .comment       0x00000000       0x3d build/pic32mz_ef_sk_meb2/production/_ext/1907747181/libaria_event.o
 .comment       0x00000000       0x3d build/pic32mz_ef_sk_meb2/production/_ext/1907747181/libaria_input.o
 .comment       0x00000000       0x3d build/pic32mz_ef_sk_meb2/production/_ext/1907747181/libaria_layer.o
 .comment       0x00000000       0x3d build/pic32mz_ef_sk_meb2/production/_ext/1907747181/libaria_list.o
 .comment       0x00000000       0x3d build/pic32mz_ef_sk_meb2/production/_ext/1907747181/libaria_scheme.o
 .comment       0x00000000       0x3d build/pic32mz_ef_sk_meb2/production/_ext/1907747181/libaria_screen.o
 .comment       0x00000000       0x3d build/pic32mz_ef_sk_meb2/production/_ext/1907747181/libaria_string.o
 .comment       0x00000000       0x3d build/pic32mz_ef_sk_meb2/production/_ext/1907747181/libaria_utils.o
 .comment       0x00000000       0x3d build/pic32mz_ef_sk_meb2/production/_ext/1907747181/libaria_widget.o
 .comment       0x00000000       0x3d build/pic32mz_ef_sk_meb2/production/_ext/1907747181/libaria_widget_skin_classic.o
 .comment       0x00000000       0x3d build/pic32mz_ef_sk_meb2/production/_ext/1907747181/libaria_widget_button.o
 .comment       0x00000000       0x3d build/pic32mz_ef_sk_meb2/production/_ext/1907747181/libaria_widget_button_skin_classic.o
 .comment       0x00000000       0x3d build/pic32mz_ef_sk_meb2/production/_ext/1907747181/libaria_widget_checkbox.o
 .comment       0x00000000       0x3d build/pic32mz_ef_sk_meb2/production/_ext/1907747181/libaria_widget_checkbox_skin_classic.o
 .comment       0x00000000       0x3d build/pic32mz_ef_sk_meb2/production/_ext/1907747181/libaria_widget_circle.o
 .comment       0x00000000       0x3d build/pic32mz_ef_sk_meb2/production/_ext/1907747181/libaria_widget_circle_skin_classic.o
 .comment       0x00000000       0x3d build/pic32mz_ef_sk_meb2/production/_ext/1907747181/libaria_widget_drawsurface.o
 .comment       0x00000000       0x3d build/pic32mz_ef_sk_meb2/production/_ext/1907747181/libaria_widget_drawsurface_skin_classic.o
 .comment       0x00000000       0x3d build/pic32mz_ef_sk_meb2/production/_ext/1907747181/libaria_widget_gradient.o
 .comment       0x00000000       0x3d build/pic32mz_ef_sk_meb2/production/_ext/1907747181/libaria_widget_gradient_skin_classic.o
 .comment       0x00000000       0x3d build/pic32mz_ef_sk_meb2/production/_ext/1907747181/libaria_widget_groupbox.o
 .comment       0x00000000       0x3d build/pic32mz_ef_sk_meb2/production/_ext/1907747181/libaria_widget_groupbox_skin_classic.o
 .comment       0x00000000       0x3d build/pic32mz_ef_sk_meb2/production/_ext/1907747181/libaria_widget_image.o
 .comment       0x00000000       0x3d build/pic32mz_ef_sk_meb2/production/_ext/1907747181/libaria_widget_image_skin_classic.o
 .comment       0x00000000       0x3d build/pic32mz_ef_sk_meb2/production/_ext/1907747181/libaria_widget_imagesequence.o
 .comment       0x00000000       0x3d build/pic32mz_ef_sk_meb2/production/_ext/1907747181/libaria_widget_imagesequence_skin_classic.o
 .comment       0x00000000       0x3d build/pic32mz_ef_sk_meb2/production/_ext/1907747181/libaria_widget_keypad.o
 .comment       0x00000000       0x3d build/pic32mz_ef_sk_meb2/production/_ext/1907747181/libaria_widget_keypad_skin_classic.o
 .comment       0x00000000       0x3d build/pic32mz_ef_sk_meb2/production/_ext/1907747181/libaria_widget_label.o
 .comment       0x00000000       0x3d build/pic32mz_ef_sk_meb2/production/_ext/1907747181/libaria_widget_label_skin_classic.o
 .comment       0x00000000       0x3d build/pic32mz_ef_sk_meb2/production/_ext/1907747181/libaria_widget_line.o
 .comment       0x00000000       0x3d build/pic32mz_ef_sk_meb2/production/_ext/1907747181/libaria_widget_line_skin_classic.o
 .comment       0x00000000       0x3d build/pic32mz_ef_sk_meb2/production/_ext/1907747181/libaria_widget_list.o
 .comment       0x00000000       0x3d build/pic32mz_ef_sk_meb2/production/_ext/1907747181/libaria_widget_list_skin_classic.o
 .comment       0x00000000       0x3d build/pic32mz_ef_sk_meb2/production/_ext/1907747181/libaria_widget_listwheel.o
 .comment       0x00000000       0x3d build/pic32mz_ef_sk_meb2/production/_ext/1907747181/libaria_widget_listwheel_skin_classic.o
 .comment       0x00000000       0x3d build/pic32mz_ef_sk_meb2/production/_ext/1907747181/libaria_widget_progressbar.o
 .comment       0x00000000       0x3d build/pic32mz_ef_sk_meb2/production/_ext/1907747181/libaria_widget_progressbar_skin_classic.o
 .comment       0x00000000       0x3d build/pic32mz_ef_sk_meb2/production/_ext/1907747181/libaria_widget_radiobutton.o
 .comment       0x00000000       0x3d build/pic32mz_ef_sk_meb2/production/_ext/1907747181/libaria_widget_radiobutton_skin_classic.o
 .comment       0x00000000       0x3d build/pic32mz_ef_sk_meb2/production/_ext/1907747181/libaria_radiobutton_group.o
 .comment       0x00000000       0x3d build/pic32mz_ef_sk_meb2/production/_ext/1907747181/libaria_widget_rectangle.o
 .comment       0x00000000       0x3d build/pic32mz_ef_sk_meb2/production/_ext/1907747181/libaria_widget_rectangle_skin_classic.o
 .comment       0x00000000       0x3d build/pic32mz_ef_sk_meb2/production/_ext/1907747181/libaria_widget_scrollbar.o
 .comment       0x00000000       0x3d build/pic32mz_ef_sk_meb2/production/_ext/1907747181/libaria_widget_scrollbar_skin_classic.o
 .comment       0x00000000       0x3d build/pic32mz_ef_sk_meb2/production/_ext/1907747181/libaria_widget_slider.o
 .comment       0x00000000       0x3d build/pic32mz_ef_sk_meb2/production/_ext/1907747181/libaria_widget_slider_skin_classic.o
 .comment       0x00000000       0x3d build/pic32mz_ef_sk_meb2/production/_ext/1907747181/libaria_widget_textfield.o
 .comment       0x00000000       0x3d build/pic32mz_ef_sk_meb2/production/_ext/1907747181/libaria_widget_textfield_skin_classic.o
 .comment       0x00000000       0x3d build/pic32mz_ef_sk_meb2/production/_ext/1907747181/libaria_widget_touchtest.o
 .comment       0x00000000       0x3d build/pic32mz_ef_sk_meb2/production/_ext/1907747181/libaria_widget_touchtest_skin_classic.o
 .comment       0x00000000       0x3d build/pic32mz_ef_sk_meb2/production/_ext/1907747181/libaria_widget_window.o
 .comment       0x00000000       0x3d build/pic32mz_ef_sk_meb2/production/_ext/1907747181/libaria_widget_window_skin_classic.o
 .comment       0x00000000       0x3d build/pic32mz_ef_sk_meb2/production/_ext/1847583374/gfx.o
 .comment       0x00000000       0x3d build/pic32mz_ef_sk_meb2/production/_ext/1847583374/gfx_color.o
 .comment       0x00000000       0x3d build/pic32mz_ef_sk_meb2/production/_ext/1847583374/gfx_context.o
 .comment       0x00000000       0x3d build/pic32mz_ef_sk_meb2/production/_ext/1847583374/gfx_default_impl.o
 .comment       0x00000000       0x3d build/pic32mz_ef_sk_meb2/production/_ext/1847583374/gfx_display.o
 .comment       0x00000000       0x3d build/pic32mz_ef_sk_meb2/production/_ext/1847583374/gfx_driver_interface.o
 .comment       0x00000000       0x3d build/pic32mz_ef_sk_meb2/production/_ext/1847583374/gfx_get.o
 .comment       0x00000000       0x3d build/pic32mz_ef_sk_meb2/production/_ext/1847583374/gfx_interface.o
 .comment       0x00000000       0x3d build/pic32mz_ef_sk_meb2/production/_ext/1847583374/gfx_layer.o
 .comment       0x00000000       0x3d build/pic32mz_ef_sk_meb2/production/_ext/1847583374/gfx_pixel_buffer.o
 .comment       0x00000000       0x3d build/pic32mz_ef_sk_meb2/production/_ext/1847583374/gfx_rect.o
 .comment       0x00000000       0x3d build/pic32mz_ef_sk_meb2/production/_ext/1847583374/gfx_util.o
 .comment       0x00000000       0x3d build/pic32mz_ef_sk_meb2/production/_ext/1847583374/gfx_set.o
 .comment       0x00000000       0x3d build/pic32mz_ef_sk_meb2/production/_ext/1847583374/gfx_color_blend.o
 .comment       0x00000000       0x3d build/pic32mz_ef_sk_meb2/production/_ext/1847583374/gfx_color_convert.o
 .comment       0x00000000       0x3d build/pic32mz_ef_sk_meb2/production/_ext/1847583374/gfx_color_lerp.o
 .comment       0x00000000       0x3d build/pic32mz_ef_sk_meb2/production/_ext/1847583374/gfx_color_value.o
 .comment       0x00000000       0x3d build/pic32mz_ef_sk_meb2/production/_ext/1847583374/gfx_draw_blit.o
 .comment       0x00000000       0x3d build/pic32mz_ef_sk_meb2/production/_ext/1847583374/gfx_draw_circle.o
 .comment       0x00000000       0x3d build/pic32mz_ef_sk_meb2/production/_ext/1847583374/gfx_draw_line.o
 .comment       0x00000000       0x3d build/pic32mz_ef_sk_meb2/production/_ext/1847583374/gfx_draw_pixel.o
 .comment       0x00000000       0x3d build/pic32mz_ef_sk_meb2/production/_ext/1847583374/gfx_draw_rect.o
 .comment       0x00000000       0x3d build/pic32mz_ef_sk_meb2/production/_ext/1847583374/gfx_math.o
 .comment       0x00000000       0x3d build/pic32mz_ef_sk_meb2/production/_ext/853959373/sys_dma.o
 .comment       0x00000000       0x3d build/pic32mz_ef_sk_meb2/production/_ext/1042686532/sys_int_pic32.o
 .comment       0x00000000       0x3d build/pic32mz_ef_sk_meb2/production/_ext/199634090/drv_tmr_static.o
 .comment       0x00000000       0x3d build/pic32mz_ef_sk_meb2/production/_ext/199634090/drv_tmr_mapping.o
 .comment       0x00000000       0x3d build/pic32mz_ef_sk_meb2/production/_ext/713288229/drv_gfx_lcc_generic.o
 .comment       0x00000000       0x3d build/pic32mz_ef_sk_meb2/production/_ext/1740298103/libaria_harmony.o
 .comment       0x00000000       0x3d build/pic32mz_ef_sk_meb2/production/_ext/1740298103/libaria_init.o
 .comment       0x00000000       0x3d build/pic32mz_ef_sk_meb2/production/_ext/1740298103/libaria_events.o
 .comment       0x00000000       0x3d build/pic32mz_ef_sk_meb2/production/_ext/1740298103/libaria_macros.o
 .comment       0x00000000       0x3d build/pic32mz_ef_sk_meb2/production/_ext/477038478/gfx_display_def.o
 .comment       0x00000000       0x3d build/pic32mz_ef_sk_meb2/production/_ext/477038478/gfx_driver_def.o
 .comment       0x00000000       0x3d build/pic32mz_ef_sk_meb2/production/_ext/1847413222/sys_clk.o
 .comment       0x00000000       0x3d build/pic32mz_ef_sk_meb2/production/_ext/1847413222/sys_clk_pic32mz.o
 .comment       0x00000000       0x3d build/pic32mz_ef_sk_meb2/production/_ext/924081491/sys_devcon.o
 .comment       0x00000000       0x3d build/pic32mz_ef_sk_meb2/production/_ext/924081491/sys_devcon_pic32mz.o
 .comment       0x00000000       0x3d build/pic32mz_ef_sk_meb2/production/_ext/50030870/sys_ports_static.o
 .comment       0x00000000       0x3d build/pic32mz_ef_sk_meb2/production/_ext/1465531745/bsp.o
 .comment       0x00000000       0x3d build/pic32mz_ef_sk_meb2/production/_ext/1951523377/system_init.o
 .comment       0x00000000       0x3d build/pic32mz_ef_sk_meb2/production/_ext/1951523377/system_interrupt.o
 .comment       0x00000000       0x3d build/pic32mz_ef_sk_meb2/production/_ext/1951523377/system_exceptions.o
 .comment       0x00000000       0x3d build/pic32mz_ef_sk_meb2/production/_ext/1951523377/system_tasks.o
 .comment       0x00000000       0x3d build/pic32mz_ef_sk_meb2/production/_ext/715821942/gfx_assets.o
 .comment       0x00000000       0x3d c:/program files (x86)/microchip/xc32/v1.42/bin/bin/../../lib/gcc/pic32mx/4.8.3\libgcc.a(floatunsisf.o)
 .comment       0x0000003c       0x18 c:/program files (x86)/microchip/xc32/v1.42/bin/bin/../../lib/gcc/pic32mx/4.8.3/../../../../pic32mx/lib\libpic32.a(memset.o)
                                 0x19 (size before relaxing)
 .comment       0x00000054       0x19 c:/program files (x86)/microchip/xc32/v1.42/bin/bin/../../lib/gcc/pic32mx/4.8.3/../../../../pic32mx/lib\libpic32.a(strcpy.o)
                                 0x1a (size before relaxing)
 .comment       0x0000006d       0x19 c:/program files (x86)/microchip/xc32/v1.42/bin/bin/../../lib/gcc/pic32mx/4.8.3/../../../../pic32mx/lib\libpic32.a(strlen.o)
                                 0x1a (size before relaxing)
 .comment       0x00000000       0x3d c:/program files (x86)/microchip/xc32/v1.42/bin/bin/../../lib/gcc/pic32mx/4.8.3/../../../../pic32mx/lib\libpic32.a(default-bootstrap-exception-handler.o)
 .comment       0x00000000       0x3d c:/program files (x86)/microchip/xc32/v1.42/bin/bin/../../lib/gcc/pic32mx/4.8.3/../../../../pic32mx/lib\libpic32.a(default-on-reset.o)
 .comment       0x00000000       0x3d c:/program files (x86)/microchip/xc32/v1.42/bin/bin/../../lib/gcc/pic32mx/4.8.3/../../../../pic32mx/lib\libpic32.a(default-on-bootstrap.o)
 .comment       0x00000000       0x3d c:/program files (x86)/microchip/xc32/v1.42/bin/bin/../../lib/gcc/pic32mx/4.8.3/../../../../pic32mx/lib\libpic32.a(defaultinterrupt.o)
 .comment       0x00000000       0x3d c:/program files (x86)/microchip/xc32/v1.42/bin/bin/../../lib/gcc/pic32mx/4.8.3/../../../../pic32mx/lib\libpic32.a(default-cache-err-exception-handler.o)
 .comment       0x00000000       0x3d c:/program files (x86)/microchip/xc32/v1.42/bin/bin/../../lib/gcc/pic32mx/4.8.3/../../../../pic32mx/lib\libpic32.a(default-simple-tlb-refill-exception-handler.o)
 .comment       0x00000000       0x3d c:/program files (x86)/microchip/xc32/v1.42/bin/bin/../../lib/gcc/pic32mx/4.8.3/../../../../pic32mx/lib\libc.a(fclose.o)
 .comment       0x00000000       0x3d c:/program files (x86)/microchip/xc32/v1.42/bin/bin/../../lib/gcc/pic32mx/4.8.3/../../../../pic32mx/lib\libc.a(fflush.o)
 .comment       0x00000000       0x3d c:/program files (x86)/microchip/xc32/v1.42/bin/bin/../../lib/gcc/pic32mx/4.8.3/../../../../pic32mx/lib\libc.a(fopen.o)
 .comment       0x00000000       0x3d c:/program files (x86)/microchip/xc32/v1.42/bin/bin/../../lib/gcc/pic32mx/4.8.3/../../../../pic32mx/lib\libc.a(fread.o)
 .comment       0x00000000       0x3d c:/program files (x86)/microchip/xc32/v1.42/bin/bin/../../lib/gcc/pic32mx/4.8.3/../../../../pic32mx/lib\libc.a(freopen.o)
 .comment       0x00000000       0x3d c:/program files (x86)/microchip/xc32/v1.42/bin/bin/../../lib/gcc/pic32mx/4.8.3/../../../../pic32mx/lib\libc.a(fseek.o)
 .comment       0x00000000       0x3d c:/program files (x86)/microchip/xc32/v1.42/bin/bin/../../lib/gcc/pic32mx/4.8.3/../../../../pic32mx/lib\libc.a(fwrite.o)
 .comment       0x00000000       0x3d c:/program files (x86)/microchip/xc32/v1.42/bin/bin/../../lib/gcc/pic32mx/4.8.3/../../../../pic32mx/lib\libc.a(buf.o)
 .comment       0x00000000       0x3d c:/program files (x86)/microchip/xc32/v1.42/bin/bin/../../lib/gcc/pic32mx/4.8.3/../../../../pic32mx/lib\libc.a(calloc.o)
 .comment       0x00000000       0x3d c:/program files (x86)/microchip/xc32/v1.42/bin/bin/../../lib/gcc/pic32mx/4.8.3/../../../../pic32mx/lib\libc.a(errno.o)
 .comment       0x00000000       0x3d c:/program files (x86)/microchip/xc32/v1.42/bin/bin/../../lib/gcc/pic32mx/4.8.3/../../../../pic32mx/lib\libc.a(malloc.o)
 .comment       0x00000000       0x3d c:/program files (x86)/microchip/xc32/v1.42/bin/bin/../../lib/gcc/pic32mx/4.8.3/../../../../pic32mx/lib\libc.a(tfiles.o)
 .comment       0x00000000       0x3d c:/program files (x86)/microchip/xc32/v1.42/bin/bin/../../lib/gcc/pic32mx/4.8.3/../../../../pic32mx/lib\libc.a(_iob.o)
 .comment       0x00000000       0x3d c:/program files (x86)/microchip/xc32/v1.42/bin/bin/../../lib/gcc/pic32mx/4.8.3/../../../../pic32mx/lib\libc.a(fgetc.o)
 .comment       0x00000000       0x3d c:/program files (x86)/microchip/xc32/v1.42/bin/bin/../../lib/gcc/pic32mx/4.8.3/../../../../pic32mx/lib\libc.a(_fputc_simple.o)
 .comment       0x00000000       0x3d c:/program files (x86)/microchip/xc32/v1.42/bin/bin/../../lib/gcc/pic32mx/4.8.3/../../../../pic32mx/lib\libc.a(filbuf.o)
 .comment       0x00000000       0x3d c:/program files (x86)/microchip/xc32/v1.42/bin/bin/../../lib/gcc/pic32mx/4.8.3/../../../../pic32mx/lib\libc.a(_flsbuf_simple.o)
 .comment       0x00000086       0x4b c:/program files (x86)/microchip/xc32/v1.42/bin/bin/../../lib/gcc/pic32mx/4.8.3/../../../../pic32mx/lib\libpic32.a(sbrk.o)
                                 0x88 (size before relaxing)
 .comment       0x00000000       0x3d c:/program files (x86)/microchip/xc32/v1.42/bin/bin/../../lib/gcc/pic32mx/4.8.3/../../../../pic32mx/lib\libpic32.a(read.o)
 .comment       0x00000000       0x3d c:/program files (x86)/microchip/xc32/v1.42/bin/bin/../../lib/gcc/pic32mx/4.8.3/../../../../pic32mx/lib\libpic32.a(write.o)
 .comment       0x00000000       0x3d c:/program files (x86)/microchip/xc32/v1.42/bin/bin/../../lib/gcc/pic32mx/4.8.3/../../../../pic32mx/lib\libpic32.a(lseek.o)
 .comment       0x00000000       0x3d c:/program files (x86)/microchip/xc32/v1.42/bin/bin/../../lib/gcc/pic32mx/4.8.3/../../../../pic32mx/lib\libpic32.a(remove.o)
 .comment       0x00000000       0x3d c:/program files (x86)/microchip/xc32/v1.42/bin/bin/../../lib/gcc/pic32mx/4.8.3/../../../../pic32mx/lib\libpic32.a(close.o)
 .comment       0x00000000       0x3d c:/program files (x86)/microchip/xc32/v1.42/bin/bin/../../lib/gcc/pic32mx/4.8.3/../../../../pic32mx/lib\libpic32.a(open.o)
 .comment       0x00000000       0x3d c:/program files (x86)/microchip/xc32/v1.42/bin/bin/../../lib/gcc/pic32mx/4.8.3/../../../../pic32mx/lib\libpic32.a(xc32_uart.o)
 .comment       0x00000000       0x3d c:/program files (x86)/microchip/xc32/v1.42/bin/bin/../../lib/gcc/pic32mx/4.8.3/../../../../pic32mx/lib\libpic32.a(_mon_putc.o)

.debug
 *(.debug)

.line
 *(.line)

.debug_srcinfo
 *(.debug_srcinfo)

.debug_sfnames
 *(.debug_sfnames)

.debug_aranges  0x00000000     0x3ef8
 *(.debug_aranges)
 .debug_aranges
                0x00000000       0x38 build/pic32mz_ef_sk_meb2/production/_ext/1360937237/app.o
 .debug_aranges
                0x00000038       0x20 build/pic32mz_ef_sk_meb2/production/_ext/1360937237/main.o
 .debug_aranges
                0x00000058       0x28 build/pic32mz_ef_sk_meb2/production/_ext/1360937237/ov2640.o
 .debug_aranges
                0x00000080       0x50 build/pic32mz_ef_sk_meb2/production/_ext/1360937237/i2c_master_noint.o
 .debug_aranges
                0x000000d0       0x60 build/pic32mz_ef_sk_meb2/production/_ext/1360937237/i2c_bitbanging.o
 .debug_aranges
                0x00000130       0x20 build/pic32mz_ef_sk_meb2/production/_ext/426253641/jidctint.o
 .debug_aranges
                0x00000150       0x20 build/pic32mz_ef_sk_meb2/production/_ext/1597685232/gfxu_image.o
 .debug_aranges
                0x00000170       0x30 build/pic32mz_ef_sk_meb2/production/_ext/1597685232/gfxu_image_png_external.o
 .debug_aranges
                0x000001a0       0x20 build/pic32mz_ef_sk_meb2/production/_ext/1597685232/gfxu_image_png_internal.o
 .debug_aranges
                0x000001c0       0x68 build/pic32mz_ef_sk_meb2/production/_ext/1597685232/gfxu_image_jpg_internal.o
 .debug_aranges
                0x00000228      0x430 build/pic32mz_ef_sk_meb2/production/_ext/493934858/lodepng.o
 .debug_aranges
                0x00000658       0x38 build/pic32mz_ef_sk_meb2/production/_ext/1597685232/gfxu_image_raw_external.o
 .debug_aranges
                0x00000690       0x20 build/pic32mz_ef_sk_meb2/production/_ext/1597685232/gfxu_image_raw_internal.o
 .debug_aranges
                0x000006b0       0x40 build/pic32mz_ef_sk_meb2/production/_ext/1597685232/gfxu_image_rle_external.o
 .debug_aranges
                0x000006f0       0x20 build/pic32mz_ef_sk_meb2/production/_ext/1597685232/gfxu_image_rle_internal.o
 .debug_aranges
                0x00000710       0x80 build/pic32mz_ef_sk_meb2/production/_ext/1597685232/gfxu_image_utils.o
 .debug_aranges
                0x00000790       0x20 build/pic32mz_ef_sk_meb2/production/_ext/1597685232/gfxu_palette.o
 .debug_aranges
                0x000007b0       0x28 build/pic32mz_ef_sk_meb2/production/_ext/1597685232/gfxu_string.o
 .debug_aranges
                0x000007d8       0x48 build/pic32mz_ef_sk_meb2/production/_ext/1597685232/gfxu_string_external.o
 .debug_aranges
                0x00000820       0x28 build/pic32mz_ef_sk_meb2/production/_ext/1597685232/gfxu_string_internal.o
 .debug_aranges
                0x00000848       0x68 build/pic32mz_ef_sk_meb2/production/_ext/1597685232/gfxu_string_query.o
 .debug_aranges
                0x000008b0       0x98 build/pic32mz_ef_sk_meb2/production/_ext/1597685232/gfxu_string_utils.o
 .debug_aranges
                0x00000948       0x30 build/pic32mz_ef_sk_meb2/production/_ext/1907747181/libaria.o
 .debug_aranges
                0x00000978       0xf8 build/pic32mz_ef_sk_meb2/production/_ext/1907747181/libaria_context.o
 .debug_aranges
                0x00000a70       0x28 build/pic32mz_ef_sk_meb2/production/_ext/1907747181/libaria_context_paint.o
 .debug_aranges
                0x00000a98       0x38 build/pic32mz_ef_sk_meb2/production/_ext/1907747181/libaria_draw.o
 .debug_aranges
                0x00000ad0       0x98 build/pic32mz_ef_sk_meb2/production/_ext/1907747181/libaria_editwidget.o
 .debug_aranges
                0x00000b68       0x40 build/pic32mz_ef_sk_meb2/production/_ext/1907747181/libaria_event.o
 .debug_aranges
                0x00000ba8       0x60 build/pic32mz_ef_sk_meb2/production/_ext/1907747181/libaria_input.o
 .debug_aranges
                0x00000c08       0xa0 build/pic32mz_ef_sk_meb2/production/_ext/1907747181/libaria_layer.o
 .debug_aranges
                0x00000ca8       0x80 build/pic32mz_ef_sk_meb2/production/_ext/1907747181/libaria_list.o
 .debug_aranges
                0x00000d28       0x20 build/pic32mz_ef_sk_meb2/production/_ext/1907747181/libaria_scheme.o
 .debug_aranges
                0x00000d48       0x80 build/pic32mz_ef_sk_meb2/production/_ext/1907747181/libaria_screen.o
 .debug_aranges
                0x00000dc8      0x108 build/pic32mz_ef_sk_meb2/production/_ext/1907747181/libaria_string.o
 .debug_aranges
                0x00000ed0       0xa8 build/pic32mz_ef_sk_meb2/production/_ext/1907747181/libaria_utils.o
 .debug_aranges
                0x00000f78      0x228 build/pic32mz_ef_sk_meb2/production/_ext/1907747181/libaria_widget.o
 .debug_aranges
                0x000011a0       0x30 build/pic32mz_ef_sk_meb2/production/_ext/1907747181/libaria_widget_skin_classic.o
 .debug_aranges
                0x000011d0      0x108 build/pic32mz_ef_sk_meb2/production/_ext/1907747181/libaria_widget_button.o
 .debug_aranges
                0x000012d8       0x50 build/pic32mz_ef_sk_meb2/production/_ext/1907747181/libaria_widget_button_skin_classic.o
 .debug_aranges
                0x00001328       0xe8 build/pic32mz_ef_sk_meb2/production/_ext/1907747181/libaria_widget_checkbox.o
 .debug_aranges
                0x00001410       0x58 build/pic32mz_ef_sk_meb2/production/_ext/1907747181/libaria_widget_checkbox_skin_classic.o
 .debug_aranges
                0x00001468       0x50 build/pic32mz_ef_sk_meb2/production/_ext/1907747181/libaria_widget_circle.o
 .debug_aranges
                0x000014b8       0x38 build/pic32mz_ef_sk_meb2/production/_ext/1907747181/libaria_widget_circle_skin_classic.o
 .debug_aranges
                0x000014f0       0x40 build/pic32mz_ef_sk_meb2/production/_ext/1907747181/libaria_widget_drawsurface.o
 .debug_aranges
                0x00001530       0x38 build/pic32mz_ef_sk_meb2/production/_ext/1907747181/libaria_widget_drawsurface_skin_classic.o
 .debug_aranges
                0x00001568       0x40 build/pic32mz_ef_sk_meb2/production/_ext/1907747181/libaria_widget_gradient.o
 .debug_aranges
                0x000015a8       0x30 build/pic32mz_ef_sk_meb2/production/_ext/1907747181/libaria_widget_gradient_skin_classic.o
 .debug_aranges
                0x000015d8       0x50 build/pic32mz_ef_sk_meb2/production/_ext/1907747181/libaria_widget_groupbox.o
 .debug_aranges
                0x00001628       0x48 build/pic32mz_ef_sk_meb2/production/_ext/1907747181/libaria_widget_groupbox_skin_classic.o
 .debug_aranges
                0x00001670       0x60 build/pic32mz_ef_sk_meb2/production/_ext/1907747181/libaria_widget_image.o
 .debug_aranges
                0x000016d0       0x40 build/pic32mz_ef_sk_meb2/production/_ext/1907747181/libaria_widget_image_skin_classic.o
 .debug_aranges
                0x00001710       0xe0 build/pic32mz_ef_sk_meb2/production/_ext/1907747181/libaria_widget_imagesequence.o
 .debug_aranges
                0x000017f0       0x40 build/pic32mz_ef_sk_meb2/production/_ext/1907747181/libaria_widget_imagesequence_skin_classic.o
 .debug_aranges
                0x00001830       0xf0 build/pic32mz_ef_sk_meb2/production/_ext/1907747181/libaria_widget_keypad.o
 .debug_aranges
                0x00001920       0x30 build/pic32mz_ef_sk_meb2/production/_ext/1907747181/libaria_widget_keypad_skin_classic.o
 .debug_aranges
                0x00001950       0x60 build/pic32mz_ef_sk_meb2/production/_ext/1907747181/libaria_widget_label.o
 .debug_aranges
                0x000019b0       0x40 build/pic32mz_ef_sk_meb2/production/_ext/1907747181/libaria_widget_label_skin_classic.o
 .debug_aranges
                0x000019f0       0x50 build/pic32mz_ef_sk_meb2/production/_ext/1907747181/libaria_widget_line.o
 .debug_aranges
                0x00001a40       0x38 build/pic32mz_ef_sk_meb2/production/_ext/1907747181/libaria_widget_line_skin_classic.o
 .debug_aranges
                0x00001a78      0x170 build/pic32mz_ef_sk_meb2/production/_ext/1907747181/libaria_widget_list.o
 .debug_aranges
                0x00001be8       0x58 build/pic32mz_ef_sk_meb2/production/_ext/1907747181/libaria_widget_list_skin_classic.o
 .debug_aranges
                0x00001c40       0xf0 build/pic32mz_ef_sk_meb2/production/_ext/1907747181/libaria_widget_listwheel.o
 .debug_aranges
                0x00001d30       0x58 build/pic32mz_ef_sk_meb2/production/_ext/1907747181/libaria_widget_listwheel_skin_classic.o
 .debug_aranges
                0x00001d88       0x60 build/pic32mz_ef_sk_meb2/production/_ext/1907747181/libaria_widget_progressbar.o
 .debug_aranges
                0x00001de8       0x38 build/pic32mz_ef_sk_meb2/production/_ext/1907747181/libaria_widget_progressbar_skin_classic.o
 .debug_aranges
                0x00001e20      0x100 build/pic32mz_ef_sk_meb2/production/_ext/1907747181/libaria_widget_radiobutton.o
 .debug_aranges
                0x00001f20       0x58 build/pic32mz_ef_sk_meb2/production/_ext/1907747181/libaria_widget_radiobutton_skin_classic.o
 .debug_aranges
                0x00001f78       0x40 build/pic32mz_ef_sk_meb2/production/_ext/1907747181/libaria_radiobutton_group.o
 .debug_aranges
                0x00001fb8       0x40 build/pic32mz_ef_sk_meb2/production/_ext/1907747181/libaria_widget_rectangle.o
 .debug_aranges
                0x00001ff8       0x38 build/pic32mz_ef_sk_meb2/production/_ext/1907747181/libaria_widget_rectangle_skin_classic.o
 .debug_aranges
                0x00002030      0x108 build/pic32mz_ef_sk_meb2/production/_ext/1907747181/libaria_widget_scrollbar.o
 .debug_aranges
                0x00002138       0x40 build/pic32mz_ef_sk_meb2/production/_ext/1907747181/libaria_widget_scrollbar_skin_classic.o
 .debug_aranges
                0x00002178       0xe8 build/pic32mz_ef_sk_meb2/production/_ext/1907747181/libaria_widget_slider.o
 .debug_aranges
                0x00002260       0x38 build/pic32mz_ef_sk_meb2/production/_ext/1907747181/libaria_widget_slider_skin_classic.o
 .debug_aranges
                0x00002298       0xf8 build/pic32mz_ef_sk_meb2/production/_ext/1907747181/libaria_widget_textfield.o
 .debug_aranges
                0x00002390       0x48 build/pic32mz_ef_sk_meb2/production/_ext/1907747181/libaria_widget_textfield_skin_classic.o
 .debug_aranges
                0x000023d8       0x68 build/pic32mz_ef_sk_meb2/production/_ext/1907747181/libaria_widget_touchtest.o
 .debug_aranges
                0x00002440       0x38 build/pic32mz_ef_sk_meb2/production/_ext/1907747181/libaria_widget_touchtest_skin_classic.o
 .debug_aranges
                0x00002478       0x60 build/pic32mz_ef_sk_meb2/production/_ext/1907747181/libaria_widget_window.o
 .debug_aranges
                0x000024d8       0x58 build/pic32mz_ef_sk_meb2/production/_ext/1907747181/libaria_widget_window_skin_classic.o
 .debug_aranges
                0x00002530       0x88 build/pic32mz_ef_sk_meb2/production/_ext/1847583374/gfx.o
 .debug_aranges
                0x000025b8       0x40 build/pic32mz_ef_sk_meb2/production/_ext/1847583374/gfx_color.o
 .debug_aranges
                0x000025f8       0x30 build/pic32mz_ef_sk_meb2/production/_ext/1847583374/gfx_context.o
 .debug_aranges
                0x00002628      0x2b8 build/pic32mz_ef_sk_meb2/production/_ext/1847583374/gfx_default_impl.o
 .debug_aranges
                0x000028e0       0x20 build/pic32mz_ef_sk_meb2/production/_ext/1847583374/gfx_display.o
 .debug_aranges
                0x00002900       0x30 build/pic32mz_ef_sk_meb2/production/_ext/1847583374/gfx_driver_interface.o
 .debug_aranges
                0x00002930      0x160 build/pic32mz_ef_sk_meb2/production/_ext/1847583374/gfx_get.o
 .debug_aranges
                0x00002a90       0x18 build/pic32mz_ef_sk_meb2/production/_ext/1847583374/gfx_interface.o
 .debug_aranges
                0x00002aa8       0x40 build/pic32mz_ef_sk_meb2/production/_ext/1847583374/gfx_layer.o
 .debug_aranges
                0x00002ae8       0xc0 build/pic32mz_ef_sk_meb2/production/_ext/1847583374/gfx_pixel_buffer.o
 .debug_aranges
                0x00002ba8       0x38 build/pic32mz_ef_sk_meb2/production/_ext/1847583374/gfx_rect.o
 .debug_aranges
                0x00002be0       0x60 build/pic32mz_ef_sk_meb2/production/_ext/1847583374/gfx_util.o
 .debug_aranges
                0x00002c40      0x138 build/pic32mz_ef_sk_meb2/production/_ext/1847583374/gfx_set.o
 .debug_aranges
                0x00002d78       0x68 build/pic32mz_ef_sk_meb2/production/_ext/1847583374/gfx_color_blend.o
 .debug_aranges
                0x00002de0      0x208 build/pic32mz_ef_sk_meb2/production/_ext/1847583374/gfx_color_convert.o
 .debug_aranges
                0x00002fe8       0x58 build/pic32mz_ef_sk_meb2/production/_ext/1847583374/gfx_color_lerp.o
 .debug_aranges
                0x00003040       0x20 build/pic32mz_ef_sk_meb2/production/_ext/1847583374/gfx_color_value.o
 .debug_aranges
                0x00003060       0x20 build/pic32mz_ef_sk_meb2/production/_ext/1847583374/gfx_draw_blit.o
 .debug_aranges
                0x00003080       0x20 build/pic32mz_ef_sk_meb2/production/_ext/1847583374/gfx_draw_circle.o
 .debug_aranges
                0x000030a0       0x50 build/pic32mz_ef_sk_meb2/production/_ext/1847583374/gfx_draw_line.o
 .debug_aranges
                0x000030f0       0x28 build/pic32mz_ef_sk_meb2/production/_ext/1847583374/gfx_draw_pixel.o
 .debug_aranges
                0x00003118       0x60 build/pic32mz_ef_sk_meb2/production/_ext/1847583374/gfx_draw_rect.o
 .debug_aranges
                0x00003178       0x78 build/pic32mz_ef_sk_meb2/production/_ext/1847583374/gfx_math.o
 .debug_aranges
                0x000031f0       0xe8 build/pic32mz_ef_sk_meb2/production/_ext/853959373/sys_dma.o
 .debug_aranges
                0x000032d8       0x48 build/pic32mz_ef_sk_meb2/production/_ext/1042686532/sys_int_pic32.o
 .debug_aranges
                0x00003320      0x188 build/pic32mz_ef_sk_meb2/production/_ext/199634090/drv_tmr_static.o
 .debug_aranges
                0x000034a8       0xe8 build/pic32mz_ef_sk_meb2/production/_ext/199634090/drv_tmr_mapping.o
 .debug_aranges
                0x00003590       0x68 build/pic32mz_ef_sk_meb2/production/_ext/713288229/drv_gfx_lcc_generic.o
 .debug_aranges
                0x000035f8       0x28 build/pic32mz_ef_sk_meb2/production/_ext/1740298103/libaria_harmony.o
 .debug_aranges
                0x00003620       0x28 build/pic32mz_ef_sk_meb2/production/_ext/1740298103/libaria_init.o
 .debug_aranges
                0x00003648       0x18 build/pic32mz_ef_sk_meb2/production/_ext/1740298103/libaria_events.o
 .debug_aranges
                0x00003660       0x18 build/pic32mz_ef_sk_meb2/production/_ext/1740298103/libaria_macros.o
 .debug_aranges
                0x00003678       0x18 build/pic32mz_ef_sk_meb2/production/_ext/477038478/gfx_display_def.o
 .debug_aranges
                0x00003690       0x20 build/pic32mz_ef_sk_meb2/production/_ext/477038478/gfx_driver_def.o
 .debug_aranges
                0x000036b0       0x88 build/pic32mz_ef_sk_meb2/production/_ext/1847413222/sys_clk.o
 .debug_aranges
                0x00003738       0x88 build/pic32mz_ef_sk_meb2/production/_ext/1847413222/sys_clk_pic32mz.o
 .debug_aranges
                0x000037c0       0x78 build/pic32mz_ef_sk_meb2/production/_ext/924081491/sys_devcon.o
 .debug_aranges
                0x00003838       0xc8 build/pic32mz_ef_sk_meb2/production/_ext/924081491/sys_devcon_pic32mz.o
 .debug_aranges
                0x00003900      0x108 build/pic32mz_ef_sk_meb2/production/_ext/50030870/sys_ports_static.o
 .debug_aranges
                0x00003a08       0x68 build/pic32mz_ef_sk_meb2/production/_ext/1465531745/bsp.o
 .debug_aranges
                0x00003a70       0x20 build/pic32mz_ef_sk_meb2/production/_ext/1951523377/system_init.o
 .debug_aranges
                0x00003a90       0x30 build/pic32mz_ef_sk_meb2/production/_ext/1951523377/system_interrupt.o
 .debug_aranges
                0x00003ac0       0x20 build/pic32mz_ef_sk_meb2/production/_ext/1951523377/system_exceptions.o
 .debug_aranges
                0x00003ae0       0x20 build/pic32mz_ef_sk_meb2/production/_ext/1951523377/system_tasks.o
 .debug_aranges
                0x00003b00       0x18 build/pic32mz_ef_sk_meb2/production/_ext/715821942/gfx_assets.o
 .debug_aranges
                0x00003b18       0x20 c:/program files (x86)/microchip/xc32/v1.42/bin/bin/../../lib/gcc/pic32mx/4.8.3\libgcc.a(floatunsisf.o)
 .debug_aranges
                0x00003b38       0x20 c:/program files (x86)/microchip/xc32/v1.42/bin/bin/../../lib/gcc/pic32mx/4.8.3/../../../../pic32mx/lib\libpic32.a(default-bootstrap-exception-handler.o)
 .debug_aranges
                0x00003b58       0x20 c:/program files (x86)/microchip/xc32/v1.42/bin/bin/../../lib/gcc/pic32mx/4.8.3/../../../../pic32mx/lib\libpic32.a(default-on-reset.o)
 .debug_aranges
                0x00003b78       0x20 c:/program files (x86)/microchip/xc32/v1.42/bin/bin/../../lib/gcc/pic32mx/4.8.3/../../../../pic32mx/lib\libpic32.a(default-on-bootstrap.o)
 .debug_aranges
                0x00003b98       0x20 c:/program files (x86)/microchip/xc32/v1.42/bin/bin/../../lib/gcc/pic32mx/4.8.3/../../../../pic32mx/lib\libpic32.a(defaultinterrupt.o)
 .debug_aranges
                0x00003bb8       0x20 c:/program files (x86)/microchip/xc32/v1.42/bin/bin/../../lib/gcc/pic32mx/4.8.3/../../../../pic32mx/lib\libpic32.a(default-cache-err-exception-handler.o)
 .debug_aranges
                0x00003bd8       0x20 c:/program files (x86)/microchip/xc32/v1.42/bin/bin/../../lib/gcc/pic32mx/4.8.3/../../../../pic32mx/lib\libpic32.a(default-simple-tlb-refill-exception-handler.o)
 .debug_aranges
                0x00003bf8       0x20 c:/program files (x86)/microchip/xc32/v1.42/bin/bin/../../lib/gcc/pic32mx/4.8.3/../../../../pic32mx/lib\libc.a(fclose.o)
 .debug_aranges
                0x00003c18       0x20 c:/program files (x86)/microchip/xc32/v1.42/bin/bin/../../lib/gcc/pic32mx/4.8.3/../../../../pic32mx/lib\libc.a(fflush.o)
 .debug_aranges
                0x00003c38       0x20 c:/program files (x86)/microchip/xc32/v1.42/bin/bin/../../lib/gcc/pic32mx/4.8.3/../../../../pic32mx/lib\libc.a(fopen.o)
 .debug_aranges
                0x00003c58       0x20 c:/program files (x86)/microchip/xc32/v1.42/bin/bin/../../lib/gcc/pic32mx/4.8.3/../../../../pic32mx/lib\libc.a(fread.o)
 .debug_aranges
                0x00003c78       0x20 c:/program files (x86)/microchip/xc32/v1.42/bin/bin/../../lib/gcc/pic32mx/4.8.3/../../../../pic32mx/lib\libc.a(freopen.o)
 .debug_aranges
                0x00003c98       0x28 c:/program files (x86)/microchip/xc32/v1.42/bin/bin/../../lib/gcc/pic32mx/4.8.3/../../../../pic32mx/lib\libc.a(fseek.o)
 .debug_aranges
                0x00003cc0       0x20 c:/program files (x86)/microchip/xc32/v1.42/bin/bin/../../lib/gcc/pic32mx/4.8.3/../../../../pic32mx/lib\libc.a(fwrite.o)
 .debug_aranges
                0x00003ce0       0x28 c:/program files (x86)/microchip/xc32/v1.42/bin/bin/../../lib/gcc/pic32mx/4.8.3/../../../../pic32mx/lib\libc.a(buf.o)
 .debug_aranges
                0x00003d08       0x20 c:/program files (x86)/microchip/xc32/v1.42/bin/bin/../../lib/gcc/pic32mx/4.8.3/../../../../pic32mx/lib\libc.a(calloc.o)
 .debug_aranges
                0x00003d28       0x30 c:/program files (x86)/microchip/xc32/v1.42/bin/bin/../../lib/gcc/pic32mx/4.8.3/../../../../pic32mx/lib\libc.a(malloc.o)
 .debug_aranges
                0x00003d58       0x20 c:/program files (x86)/microchip/xc32/v1.42/bin/bin/../../lib/gcc/pic32mx/4.8.3/../../../../pic32mx/lib\libc.a(fgetc.o)
 .debug_aranges
                0x00003d78       0x20 c:/program files (x86)/microchip/xc32/v1.42/bin/bin/../../lib/gcc/pic32mx/4.8.3/../../../../pic32mx/lib\libc.a(_fputc_simple.o)
 .debug_aranges
                0x00003d98       0x20 c:/program files (x86)/microchip/xc32/v1.42/bin/bin/../../lib/gcc/pic32mx/4.8.3/../../../../pic32mx/lib\libc.a(filbuf.o)
 .debug_aranges
                0x00003db8       0x20 c:/program files (x86)/microchip/xc32/v1.42/bin/bin/../../lib/gcc/pic32mx/4.8.3/../../../../pic32mx/lib\libc.a(_flsbuf_simple.o)
 .debug_aranges
                0x00003dd8       0x40 c:/program files (x86)/microchip/xc32/v1.42/bin/bin/../../lib/gcc/pic32mx/4.8.3/../../../../pic32mx/lib\libpic32.a(sbrk.o)
 .debug_aranges
                0x00003e18       0x20 c:/program files (x86)/microchip/xc32/v1.42/bin/bin/../../lib/gcc/pic32mx/4.8.3/../../../../pic32mx/lib\libpic32.a(read.o)
 .debug_aranges
                0x00003e38       0x20 c:/program files (x86)/microchip/xc32/v1.42/bin/bin/../../lib/gcc/pic32mx/4.8.3/../../../../pic32mx/lib\libpic32.a(write.o)
 .debug_aranges
                0x00003e58       0x20 c:/program files (x86)/microchip/xc32/v1.42/bin/bin/../../lib/gcc/pic32mx/4.8.3/../../../../pic32mx/lib\libpic32.a(lseek.o)
 .debug_aranges
                0x00003e78       0x20 c:/program files (x86)/microchip/xc32/v1.42/bin/bin/../../lib/gcc/pic32mx/4.8.3/../../../../pic32mx/lib\libpic32.a(remove.o)
 .debug_aranges
                0x00003e98       0x20 c:/program files (x86)/microchip/xc32/v1.42/bin/bin/../../lib/gcc/pic32mx/4.8.3/../../../../pic32mx/lib\libpic32.a(close.o)
 .debug_aranges
                0x00003eb8       0x20 c:/program files (x86)/microchip/xc32/v1.42/bin/bin/../../lib/gcc/pic32mx/4.8.3/../../../../pic32mx/lib\libpic32.a(open.o)
 .debug_aranges
                0x00003ed8       0x20 c:/program files (x86)/microchip/xc32/v1.42/bin/bin/../../lib/gcc/pic32mx/4.8.3/../../../../pic32mx/lib\libpic32.a(_mon_putc.o)

.debug_pubnames
 *(.debug_pubnames)

.debug_info     0x00000000   0x144f44
 *(.debug_info .gnu.linkonce.wi.*)
 .debug_info    0x00000000     0x14a2 build/pic32mz_ef_sk_meb2/production/_ext/1360937237/app.o
 .debug_info    0x000014a2      0x1b7 build/pic32mz_ef_sk_meb2/production/_ext/1360937237/main.o
 .debug_info    0x00001659     0x1358 build/pic32mz_ef_sk_meb2/production/_ext/1360937237/ov2640.o
 .debug_info    0x000029b1     0x16da build/pic32mz_ef_sk_meb2/production/_ext/1360937237/i2c_master_noint.o
 .debug_info    0x0000408b     0x1c7d build/pic32mz_ef_sk_meb2/production/_ext/1360937237/i2c_bitbanging.o
 .debug_info    0x00005d08      0x4e0 build/pic32mz_ef_sk_meb2/production/_ext/426253641/jidctint.o
 .debug_info    0x000061e8     0x12d4 build/pic32mz_ef_sk_meb2/production/_ext/1597685232/gfxu_image.o
 .debug_info    0x000074bc     0x189e build/pic32mz_ef_sk_meb2/production/_ext/1597685232/gfxu_image_png_external.o
 .debug_info    0x00008d5a      0xeac build/pic32mz_ef_sk_meb2/production/_ext/1597685232/gfxu_image_png_internal.o
 .debug_info    0x00009c06     0x4946 build/pic32mz_ef_sk_meb2/production/_ext/1597685232/gfxu_image_jpg_internal.o
 .debug_info    0x0000e54c     0xe422 build/pic32mz_ef_sk_meb2/production/_ext/493934858/lodepng.o
 .debug_info    0x0001c96e     0x1b3b build/pic32mz_ef_sk_meb2/production/_ext/1597685232/gfxu_image_raw_external.o
 .debug_info    0x0001e4a9     0x12ae build/pic32mz_ef_sk_meb2/production/_ext/1597685232/gfxu_image_raw_internal.o
 .debug_info    0x0001f757     0x1d14 build/pic32mz_ef_sk_meb2/production/_ext/1597685232/gfxu_image_rle_external.o
 .debug_info    0x0002146b     0x1575 build/pic32mz_ef_sk_meb2/production/_ext/1597685232/gfxu_image_rle_internal.o
 .debug_info    0x000229e0     0x102c build/pic32mz_ef_sk_meb2/production/_ext/1597685232/gfxu_image_utils.o
 .debug_info    0x00023a0c      0xd0b build/pic32mz_ef_sk_meb2/production/_ext/1597685232/gfxu_palette.o
 .debug_info    0x00024717     0x1289 build/pic32mz_ef_sk_meb2/production/_ext/1597685232/gfxu_string.o
 .debug_info    0x000259a0     0x19cd build/pic32mz_ef_sk_meb2/production/_ext/1597685232/gfxu_string_external.o
 .debug_info    0x0002736d      0xe83 build/pic32mz_ef_sk_meb2/production/_ext/1597685232/gfxu_string_internal.o
 .debug_info    0x000281f0     0x17a0 build/pic32mz_ef_sk_meb2/production/_ext/1597685232/gfxu_string_query.o
 .debug_info    0x00029990     0x1dc0 build/pic32mz_ef_sk_meb2/production/_ext/1597685232/gfxu_string_utils.o
 .debug_info    0x0002b750     0x273e build/pic32mz_ef_sk_meb2/production/_ext/1907747181/libaria.o
 .debug_info    0x0002de8e     0x3552 build/pic32mz_ef_sk_meb2/production/_ext/1907747181/libaria_context.o
 .debug_info    0x000313e0     0x2f7b build/pic32mz_ef_sk_meb2/production/_ext/1907747181/libaria_context_paint.o
 .debug_info    0x0003435b      0xf0e build/pic32mz_ef_sk_meb2/production/_ext/1907747181/libaria_draw.o
 .debug_info    0x00035269     0x214d build/pic32mz_ef_sk_meb2/production/_ext/1907747181/libaria_editwidget.o
 .debug_info    0x000373b6     0x251b build/pic32mz_ef_sk_meb2/production/_ext/1907747181/libaria_event.o
 .debug_info    0x000398d1     0x2703 build/pic32mz_ef_sk_meb2/production/_ext/1907747181/libaria_input.o
 .debug_info    0x0003bfd4     0x345b build/pic32mz_ef_sk_meb2/production/_ext/1907747181/libaria_layer.o
 .debug_info    0x0003f42f     0x2881 build/pic32mz_ef_sk_meb2/production/_ext/1907747181/libaria_list.o
 .debug_info    0x00041cb0      0xaba build/pic32mz_ef_sk_meb2/production/_ext/1907747181/libaria_scheme.o
 .debug_info    0x0004276a     0x315e build/pic32mz_ef_sk_meb2/production/_ext/1907747181/libaria_screen.o
 .debug_info    0x000458c8     0x378e build/pic32mz_ef_sk_meb2/production/_ext/1907747181/libaria_string.o
 .debug_info    0x00049056     0x360f build/pic32mz_ef_sk_meb2/production/_ext/1907747181/libaria_utils.o
 .debug_info    0x0004c665     0x3fe3 build/pic32mz_ef_sk_meb2/production/_ext/1907747181/libaria_widget.o
 .debug_info    0x00050648     0x296f build/pic32mz_ef_sk_meb2/production/_ext/1907747181/libaria_widget_skin_classic.o
 .debug_info    0x00052fb7     0x363c build/pic32mz_ef_sk_meb2/production/_ext/1907747181/libaria_widget_button.o
 .debug_info    0x000565f3     0x341d build/pic32mz_ef_sk_meb2/production/_ext/1907747181/libaria_widget_button_skin_classic.o
 .debug_info    0x00059a10     0x347c build/pic32mz_ef_sk_meb2/production/_ext/1907747181/libaria_widget_checkbox.o
 .debug_info    0x0005ce8c     0x3559 build/pic32mz_ef_sk_meb2/production/_ext/1907747181/libaria_widget_checkbox_skin_classic.o
 .debug_info    0x000603e5     0x261d build/pic32mz_ef_sk_meb2/production/_ext/1907747181/libaria_widget_circle.o
 .debug_info    0x00062a02     0x2b4d build/pic32mz_ef_sk_meb2/production/_ext/1907747181/libaria_widget_circle_skin_classic.o
 .debug_info    0x0006554f     0x25ba build/pic32mz_ef_sk_meb2/production/_ext/1907747181/libaria_widget_drawsurface.o
 .debug_info    0x00067b09     0x2ad8 build/pic32mz_ef_sk_meb2/production/_ext/1907747181/libaria_widget_drawsurface_skin_classic.o
 .debug_info    0x0006a5e1     0x260d build/pic32mz_ef_sk_meb2/production/_ext/1907747181/libaria_widget_gradient.o
 .debug_info    0x0006cbee     0x2af8 build/pic32mz_ef_sk_meb2/production/_ext/1907747181/libaria_widget_gradient_skin_classic.o
 .debug_info    0x0006f6e6     0x2798 build/pic32mz_ef_sk_meb2/production/_ext/1907747181/libaria_widget_groupbox.o
 .debug_info    0x00071e7e     0x30ce build/pic32mz_ef_sk_meb2/production/_ext/1907747181/libaria_widget_groupbox_skin_classic.o
 .debug_info    0x00074f4c     0x2979 build/pic32mz_ef_sk_meb2/production/_ext/1907747181/libaria_widget_image.o
 .debug_info    0x000778c5     0x304c build/pic32mz_ef_sk_meb2/production/_ext/1907747181/libaria_widget_image_skin_classic.o
 .debug_info    0x0007a911     0x3152 build/pic32mz_ef_sk_meb2/production/_ext/1907747181/libaria_widget_imagesequence.o
 .debug_info    0x0007da63     0x311e build/pic32mz_ef_sk_meb2/production/_ext/1907747181/libaria_widget_imagesequence_skin_classic.o
 .debug_info    0x00080b81     0x40ab build/pic32mz_ef_sk_meb2/production/_ext/1907747181/libaria_widget_keypad.o
 .debug_info    0x00084c2c     0x2c5b build/pic32mz_ef_sk_meb2/production/_ext/1907747181/libaria_widget_keypad_skin_classic.o
 .debug_info    0x00087887     0x2875 build/pic32mz_ef_sk_meb2/production/_ext/1907747181/libaria_widget_label.o
 .debug_info    0x0008a0fc     0x2e04 build/pic32mz_ef_sk_meb2/production/_ext/1907747181/libaria_widget_label_skin_classic.o
 .debug_info    0x0008cf00     0x262e build/pic32mz_ef_sk_meb2/production/_ext/1907747181/libaria_widget_line.o
 .debug_info    0x0008f52e     0x2b50 build/pic32mz_ef_sk_meb2/production/_ext/1907747181/libaria_widget_line_skin_classic.o
 .debug_info    0x0009207e     0x4968 build/pic32mz_ef_sk_meb2/production/_ext/1907747181/libaria_widget_list.o
 .debug_info    0x000969e6     0x39ef build/pic32mz_ef_sk_meb2/production/_ext/1907747181/libaria_widget_list_skin_classic.o
 .debug_info    0x0009a3d5     0x36a9 build/pic32mz_ef_sk_meb2/production/_ext/1907747181/libaria_widget_listwheel.o
 .debug_info    0x0009da7e     0x372e build/pic32mz_ef_sk_meb2/production/_ext/1907747181/libaria_widget_listwheel_skin_classic.o
 .debug_info    0x000a11ac     0x2837 build/pic32mz_ef_sk_meb2/production/_ext/1907747181/libaria_widget_progressbar.o
 .debug_info    0x000a39e3     0x2c8a build/pic32mz_ef_sk_meb2/production/_ext/1907747181/libaria_widget_progressbar_skin_classic.o
 .debug_info    0x000a666d     0x36f9 build/pic32mz_ef_sk_meb2/production/_ext/1907747181/libaria_widget_radiobutton.o
 .debug_info    0x000a9d66     0x3b98 build/pic32mz_ef_sk_meb2/production/_ext/1907747181/libaria_widget_radiobutton_skin_classic.o
 .debug_info    0x000ad8fe     0x2ca0 build/pic32mz_ef_sk_meb2/production/_ext/1907747181/libaria_radiobutton_group.o
 .debug_info    0x000b059e     0x2543 build/pic32mz_ef_sk_meb2/production/_ext/1907747181/libaria_widget_rectangle.o
 .debug_info    0x000b2ae1     0x2aeb build/pic32mz_ef_sk_meb2/production/_ext/1907747181/libaria_widget_rectangle_skin_classic.o
 .debug_info    0x000b55cc     0x381f build/pic32mz_ef_sk_meb2/production/_ext/1907747181/libaria_widget_scrollbar.o
 .debug_info    0x000b8deb     0x33c6 build/pic32mz_ef_sk_meb2/production/_ext/1907747181/libaria_widget_scrollbar_skin_classic.o
 .debug_info    0x000bc1b1     0x324b build/pic32mz_ef_sk_meb2/production/_ext/1907747181/libaria_widget_slider.o
 .debug_info    0x000bf3fc     0x2e81 build/pic32mz_ef_sk_meb2/production/_ext/1907747181/libaria_widget_slider_skin_classic.o
 .debug_info    0x000c227d     0x345a build/pic32mz_ef_sk_meb2/production/_ext/1907747181/libaria_widget_textfield.o
 .debug_info    0x000c56d7     0x307e build/pic32mz_ef_sk_meb2/production/_ext/1907747181/libaria_widget_textfield_skin_classic.o
 .debug_info    0x000c8755     0x2a46 build/pic32mz_ef_sk_meb2/production/_ext/1907747181/libaria_widget_touchtest.o
 .debug_info    0x000cb19b     0x2d79 build/pic32mz_ef_sk_meb2/production/_ext/1907747181/libaria_widget_touchtest_skin_classic.o
 .debug_info    0x000cdf14     0x2a38 build/pic32mz_ef_sk_meb2/production/_ext/1907747181/libaria_widget_window.o
 .debug_info    0x000d094c     0x345e build/pic32mz_ef_sk_meb2/production/_ext/1907747181/libaria_widget_window_skin_classic.o
 .debug_info    0x000d3daa     0x35fb build/pic32mz_ef_sk_meb2/production/_ext/1847583374/gfx.o
 .debug_info    0x000d73a5      0x760 build/pic32mz_ef_sk_meb2/production/_ext/1847583374/gfx_color.o
 .debug_info    0x000d7b05     0x27e2 build/pic32mz_ef_sk_meb2/production/_ext/1847583374/gfx_context.o
 .debug_info    0x000da2e7     0x4403 build/pic32mz_ef_sk_meb2/production/_ext/1847583374/gfx_default_impl.o
 .debug_info    0x000de6ea      0x953 build/pic32mz_ef_sk_meb2/production/_ext/1847583374/gfx_display.o
 .debug_info    0x000df03d     0x2980 build/pic32mz_ef_sk_meb2/production/_ext/1847583374/gfx_driver_interface.o
 .debug_info    0x000e19bd     0x3cc8 build/pic32mz_ef_sk_meb2/production/_ext/1847583374/gfx_get.o
 .debug_info    0x000e5685      0x785 build/pic32mz_ef_sk_meb2/production/_ext/1847583374/gfx_interface.o
 .debug_info    0x000e5e0a     0x285a build/pic32mz_ef_sk_meb2/production/_ext/1847583374/gfx_layer.o
 .debug_info    0x000e8664     0x1902 build/pic32mz_ef_sk_meb2/production/_ext/1847583374/gfx_pixel_buffer.o
 .debug_info    0x000e9f66      0x56c build/pic32mz_ef_sk_meb2/production/_ext/1847583374/gfx_rect.o
 .debug_info    0x000ea4d2      0x8bb build/pic32mz_ef_sk_meb2/production/_ext/1847583374/gfx_util.o
 .debug_info    0x000ead8d     0x391c build/pic32mz_ef_sk_meb2/production/_ext/1847583374/gfx_set.o
 .debug_info    0x000ee6a9      0xe9a build/pic32mz_ef_sk_meb2/production/_ext/1847583374/gfx_color_blend.o
 .debug_info    0x000ef543     0x3d42 build/pic32mz_ef_sk_meb2/production/_ext/1847583374/gfx_color_convert.o
 .debug_info    0x000f3285      0xf14 build/pic32mz_ef_sk_meb2/production/_ext/1847583374/gfx_color_lerp.o
 .debug_info    0x000f4199      0x846 build/pic32mz_ef_sk_meb2/production/_ext/1847583374/gfx_color_value.o
 .debug_info    0x000f49df     0x2c19 build/pic32mz_ef_sk_meb2/production/_ext/1847583374/gfx_draw_blit.o
 .debug_info    0x000f75f8     0x2870 build/pic32mz_ef_sk_meb2/production/_ext/1847583374/gfx_draw_circle.o
 .debug_info    0x000f9e68     0x2bfa build/pic32mz_ef_sk_meb2/production/_ext/1847583374/gfx_draw_line.o
 .debug_info    0x000fca62     0x2985 build/pic32mz_ef_sk_meb2/production/_ext/1847583374/gfx_draw_pixel.o
 .debug_info    0x000ff3e7     0x2e85 build/pic32mz_ef_sk_meb2/production/_ext/1847583374/gfx_draw_rect.o
 .debug_info    0x0010226c      0x70e build/pic32mz_ef_sk_meb2/production/_ext/1847583374/gfx_math.o
 .debug_info    0x0010297a     0x8a80 build/pic32mz_ef_sk_meb2/production/_ext/853959373/sys_dma.o
 .debug_info    0x0010b3fa     0x21a2 build/pic32mz_ef_sk_meb2/production/_ext/1042686532/sys_int_pic32.o
 .debug_info    0x0010d59c     0x6af1 build/pic32mz_ef_sk_meb2/production/_ext/199634090/drv_tmr_static.o
 .debug_info    0x0011408d     0x1e32 build/pic32mz_ef_sk_meb2/production/_ext/199634090/drv_tmr_mapping.o
 .debug_info    0x00115ebf     0x9f20 build/pic32mz_ef_sk_meb2/production/_ext/713288229/drv_gfx_lcc_generic.o
 .debug_info    0x0011fddf     0x2dc5 build/pic32mz_ef_sk_meb2/production/_ext/1740298103/libaria_harmony.o
 .debug_info    0x00122ba4     0x348f build/pic32mz_ef_sk_meb2/production/_ext/1740298103/libaria_init.o
 .debug_info    0x00126033      0xb4b build/pic32mz_ef_sk_meb2/production/_ext/1740298103/libaria_events.o
 .debug_info    0x00126b7e      0xb4b build/pic32mz_ef_sk_meb2/production/_ext/1740298103/libaria_macros.o
 .debug_info    0x001276c9      0x910 build/pic32mz_ef_sk_meb2/production/_ext/477038478/gfx_display_def.o
 .debug_info    0x00127fd9     0x2877 build/pic32mz_ef_sk_meb2/production/_ext/477038478/gfx_driver_def.o
 .debug_info    0x0012a850     0x314f build/pic32mz_ef_sk_meb2/production/_ext/1847413222/sys_clk.o
 .debug_info    0x0012d99f     0x355d build/pic32mz_ef_sk_meb2/production/_ext/1847413222/sys_clk_pic32mz.o
 .debug_info    0x00130efc     0x171e build/pic32mz_ef_sk_meb2/production/_ext/924081491/sys_devcon.o
 .debug_info    0x0013261a     0x141f build/pic32mz_ef_sk_meb2/production/_ext/924081491/sys_devcon_pic32mz.o
 .debug_info    0x00133a39     0x5de1 build/pic32mz_ef_sk_meb2/production/_ext/50030870/sys_ports_static.o
 .debug_info    0x0013981a     0x1370 build/pic32mz_ef_sk_meb2/production/_ext/1465531745/bsp.o
 .debug_info    0x0013ab8a     0x3be2 build/pic32mz_ef_sk_meb2/production/_ext/1951523377/system_init.o
 .debug_info    0x0013e76c     0x2339 build/pic32mz_ef_sk_meb2/production/_ext/1951523377/system_interrupt.o
 .debug_info    0x00140aa5      0xc9e build/pic32mz_ef_sk_meb2/production/_ext/1951523377/system_exceptions.o
 .debug_info    0x00141743      0xc80 build/pic32mz_ef_sk_meb2/production/_ext/1951523377/system_tasks.o
 .debug_info    0x001423c3     0x12ff build/pic32mz_ef_sk_meb2/production/_ext/715821942/gfx_assets.o
 .debug_info    0x001436c2      0x131 c:/program files (x86)/microchip/xc32/v1.42/bin/bin/../../lib/gcc/pic32mx/4.8.3\libgcc.a(floatunsisf.o)
 .debug_info    0x001437f3       0xf5 c:/program files (x86)/microchip/xc32/v1.42/bin/bin/../../lib/gcc/pic32mx/4.8.3/../../../../pic32mx/lib\libpic32.a(default-bootstrap-exception-handler.o)
 .debug_info    0x001438e8       0xcf c:/program files (x86)/microchip/xc32/v1.42/bin/bin/../../lib/gcc/pic32mx/4.8.3/../../../../pic32mx/lib\libpic32.a(default-on-reset.o)
 .debug_info    0x001439b7       0xd7 c:/program files (x86)/microchip/xc32/v1.42/bin/bin/../../lib/gcc/pic32mx/4.8.3/../../../../pic32mx/lib\libpic32.a(default-on-bootstrap.o)
 .debug_info    0x00143a8e       0xe9 c:/program files (x86)/microchip/xc32/v1.42/bin/bin/../../lib/gcc/pic32mx/4.8.3/../../../../pic32mx/lib\libpic32.a(defaultinterrupt.o)
 .debug_info    0x00143b77       0xf5 c:/program files (x86)/microchip/xc32/v1.42/bin/bin/../../lib/gcc/pic32mx/4.8.3/../../../../pic32mx/lib\libpic32.a(default-cache-err-exception-handler.o)
 .debug_info    0x00143c6c      0x105 c:/program files (x86)/microchip/xc32/v1.42/bin/bin/../../lib/gcc/pic32mx/4.8.3/../../../../pic32mx/lib\libpic32.a(default-simple-tlb-refill-exception-handler.o)
 .debug_info    0x00143d71       0xc8 c:/program files (x86)/microchip/xc32/v1.42/bin/bin/../../lib/gcc/pic32mx/4.8.3/../../../../pic32mx/lib\libc.a(fclose.o)
 .debug_info    0x00143e39       0xc8 c:/program files (x86)/microchip/xc32/v1.42/bin/bin/../../lib/gcc/pic32mx/4.8.3/../../../../pic32mx/lib\libc.a(fflush.o)
 .debug_info    0x00143f01       0xc6 c:/program files (x86)/microchip/xc32/v1.42/bin/bin/../../lib/gcc/pic32mx/4.8.3/../../../../pic32mx/lib\libc.a(fopen.o)
 .debug_info    0x00143fc7       0xc6 c:/program files (x86)/microchip/xc32/v1.42/bin/bin/../../lib/gcc/pic32mx/4.8.3/../../../../pic32mx/lib\libc.a(fread.o)
 .debug_info    0x0014408d       0xca c:/program files (x86)/microchip/xc32/v1.42/bin/bin/../../lib/gcc/pic32mx/4.8.3/../../../../pic32mx/lib\libc.a(freopen.o)
 .debug_info    0x00144157       0xe6 c:/program files (x86)/microchip/xc32/v1.42/bin/bin/../../lib/gcc/pic32mx/4.8.3/../../../../pic32mx/lib\libc.a(fseek.o)
 .debug_info    0x0014423d       0xc8 c:/program files (x86)/microchip/xc32/v1.42/bin/bin/../../lib/gcc/pic32mx/4.8.3/../../../../pic32mx/lib\libc.a(fwrite.o)
 .debug_info    0x00144305       0xee c:/program files (x86)/microchip/xc32/v1.42/bin/bin/../../lib/gcc/pic32mx/4.8.3/../../../../pic32mx/lib\libc.a(buf.o)
 .debug_info    0x001443f3       0xc8 c:/program files (x86)/microchip/xc32/v1.42/bin/bin/../../lib/gcc/pic32mx/4.8.3/../../../../pic32mx/lib\libc.a(calloc.o)
 .debug_info    0x001444bb       0xf9 c:/program files (x86)/microchip/xc32/v1.42/bin/bin/../../lib/gcc/pic32mx/4.8.3/../../../../pic32mx/lib\libc.a(malloc.o)
 .debug_info    0x001445b4       0xc6 c:/program files (x86)/microchip/xc32/v1.42/bin/bin/../../lib/gcc/pic32mx/4.8.3/../../../../pic32mx/lib\libc.a(fgetc.o)
 .debug_info    0x0014467a       0xc6 c:/program files (x86)/microchip/xc32/v1.42/bin/bin/../../lib/gcc/pic32mx/4.8.3/../../../../pic32mx/lib\libc.a(_fputc_simple.o)
 .debug_info    0x00144740       0xc9 c:/program files (x86)/microchip/xc32/v1.42/bin/bin/../../lib/gcc/pic32mx/4.8.3/../../../../pic32mx/lib\libc.a(filbuf.o)
 .debug_info    0x00144809       0xc9 c:/program files (x86)/microchip/xc32/v1.42/bin/bin/../../lib/gcc/pic32mx/4.8.3/../../../../pic32mx/lib\libc.a(_flsbuf_simple.o)
 .debug_info    0x001448d2      0x12c c:/program files (x86)/microchip/xc32/v1.42/bin/bin/../../lib/gcc/pic32mx/4.8.3/../../../../pic32mx/lib\libpic32.a(sbrk.o)
 .debug_info    0x001449fe       0xbe c:/program files (x86)/microchip/xc32/v1.42/bin/bin/../../lib/gcc/pic32mx/4.8.3/../../../../pic32mx/lib\libpic32.a(read.o)
 .debug_info    0x00144abc       0xc0 c:/program files (x86)/microchip/xc32/v1.42/bin/bin/../../lib/gcc/pic32mx/4.8.3/../../../../pic32mx/lib\libpic32.a(write.o)
 .debug_info    0x00144b7c       0xc0 c:/program files (x86)/microchip/xc32/v1.42/bin/bin/../../lib/gcc/pic32mx/4.8.3/../../../../pic32mx/lib\libpic32.a(lseek.o)
 .debug_info    0x00144c3c       0xc2 c:/program files (x86)/microchip/xc32/v1.42/bin/bin/../../lib/gcc/pic32mx/4.8.3/../../../../pic32mx/lib\libpic32.a(remove.o)
 .debug_info    0x00144cfe       0xc0 c:/program files (x86)/microchip/xc32/v1.42/bin/bin/../../lib/gcc/pic32mx/4.8.3/../../../../pic32mx/lib\libpic32.a(close.o)
 .debug_info    0x00144dbe       0xbe c:/program files (x86)/microchip/xc32/v1.42/bin/bin/../../lib/gcc/pic32mx/4.8.3/../../../../pic32mx/lib\libpic32.a(open.o)
 .debug_info    0x00144e7c       0xc8 c:/program files (x86)/microchip/xc32/v1.42/bin/bin/../../lib/gcc/pic32mx/4.8.3/../../../../pic32mx/lib\libpic32.a(_mon_putc.o)

.debug_abbrev   0x00000000    0x13a8a
 *(.debug_abbrev)
 .debug_abbrev  0x00000000      0x26c build/pic32mz_ef_sk_meb2/production/_ext/1360937237/app.o
 .debug_abbrev  0x0000026c       0x93 build/pic32mz_ef_sk_meb2/production/_ext/1360937237/main.o
 .debug_abbrev  0x000002ff      0x276 build/pic32mz_ef_sk_meb2/production/_ext/1360937237/ov2640.o
 .debug_abbrev  0x00000575      0x233 build/pic32mz_ef_sk_meb2/production/_ext/1360937237/i2c_master_noint.o
 .debug_abbrev  0x000007a8      0x27c build/pic32mz_ef_sk_meb2/production/_ext/1360937237/i2c_bitbanging.o
 .debug_abbrev  0x00000a24       0xb1 build/pic32mz_ef_sk_meb2/production/_ext/426253641/jidctint.o
 .debug_abbrev  0x00000ad5      0x1b0 build/pic32mz_ef_sk_meb2/production/_ext/1597685232/gfxu_image.o
 .debug_abbrev  0x00000c85      0x284 build/pic32mz_ef_sk_meb2/production/_ext/1597685232/gfxu_image_png_external.o
 .debug_abbrev  0x00000f09      0x1eb build/pic32mz_ef_sk_meb2/production/_ext/1597685232/gfxu_image_png_internal.o
 .debug_abbrev  0x000010f4      0x43c build/pic32mz_ef_sk_meb2/production/_ext/1597685232/gfxu_image_jpg_internal.o
 .debug_abbrev  0x00001530      0x54d build/pic32mz_ef_sk_meb2/production/_ext/493934858/lodepng.o
 .debug_abbrev  0x00001a7d      0x2ab build/pic32mz_ef_sk_meb2/production/_ext/1597685232/gfxu_image_raw_external.o
 .debug_abbrev  0x00001d28      0x234 build/pic32mz_ef_sk_meb2/production/_ext/1597685232/gfxu_image_raw_internal.o
 .debug_abbrev  0x00001f5c      0x2de build/pic32mz_ef_sk_meb2/production/_ext/1597685232/gfxu_image_rle_external.o
 .debug_abbrev  0x0000223a      0x248 build/pic32mz_ef_sk_meb2/production/_ext/1597685232/gfxu_image_rle_internal.o
 .debug_abbrev  0x00002482      0x1e3 build/pic32mz_ef_sk_meb2/production/_ext/1597685232/gfxu_image_utils.o
 .debug_abbrev  0x00002665      0x139 build/pic32mz_ef_sk_meb2/production/_ext/1597685232/gfxu_palette.o
 .debug_abbrev  0x0000279e      0x1c6 build/pic32mz_ef_sk_meb2/production/_ext/1597685232/gfxu_string.o
 .debug_abbrev  0x00002964      0x318 build/pic32mz_ef_sk_meb2/production/_ext/1597685232/gfxu_string_external.o
 .debug_abbrev  0x00002c7c      0x1c0 build/pic32mz_ef_sk_meb2/production/_ext/1597685232/gfxu_string_internal.o
 .debug_abbrev  0x00002e3c      0x256 build/pic32mz_ef_sk_meb2/production/_ext/1597685232/gfxu_string_query.o
 .debug_abbrev  0x00003092      0x303 build/pic32mz_ef_sk_meb2/production/_ext/1597685232/gfxu_string_utils.o
 .debug_abbrev  0x00003395      0x219 build/pic32mz_ef_sk_meb2/production/_ext/1907747181/libaria.o
 .debug_abbrev  0x000035ae      0x3dd build/pic32mz_ef_sk_meb2/production/_ext/1907747181/libaria_context.o
 .debug_abbrev  0x0000398b      0x281 build/pic32mz_ef_sk_meb2/production/_ext/1907747181/libaria_context_paint.o
 .debug_abbrev  0x00003c0c      0x177 build/pic32mz_ef_sk_meb2/production/_ext/1907747181/libaria_draw.o
 .debug_abbrev  0x00003d83      0x286 build/pic32mz_ef_sk_meb2/production/_ext/1907747181/libaria_editwidget.o
 .debug_abbrev  0x00004009      0x280 build/pic32mz_ef_sk_meb2/production/_ext/1907747181/libaria_event.o
 .debug_abbrev  0x00004289      0x258 build/pic32mz_ef_sk_meb2/production/_ext/1907747181/libaria_input.o
 .debug_abbrev  0x000044e1      0x2c4 build/pic32mz_ef_sk_meb2/production/_ext/1907747181/libaria_layer.o
 .debug_abbrev  0x000047a5      0x28c build/pic32mz_ef_sk_meb2/production/_ext/1907747181/libaria_list.o
 .debug_abbrev  0x00004a31      0x14e build/pic32mz_ef_sk_meb2/production/_ext/1907747181/libaria_scheme.o
 .debug_abbrev  0x00004b7f      0x2a4 build/pic32mz_ef_sk_meb2/production/_ext/1907747181/libaria_screen.o
 .debug_abbrev  0x00004e23      0x414 build/pic32mz_ef_sk_meb2/production/_ext/1907747181/libaria_string.o
 .debug_abbrev  0x00005237      0x3a7 build/pic32mz_ef_sk_meb2/production/_ext/1907747181/libaria_utils.o
 .debug_abbrev  0x000055de      0x3a9 build/pic32mz_ef_sk_meb2/production/_ext/1907747181/libaria_widget.o
 .debug_abbrev  0x00005987      0x256 build/pic32mz_ef_sk_meb2/production/_ext/1907747181/libaria_widget_skin_classic.o
 .debug_abbrev  0x00005bdd      0x362 build/pic32mz_ef_sk_meb2/production/_ext/1907747181/libaria_widget_button.o
 .debug_abbrev  0x00005f3f      0x2ef build/pic32mz_ef_sk_meb2/production/_ext/1907747181/libaria_widget_button_skin_classic.o
 .debug_abbrev  0x0000622e      0x334 build/pic32mz_ef_sk_meb2/production/_ext/1907747181/libaria_widget_checkbox.o
 .debug_abbrev  0x00006562      0x329 build/pic32mz_ef_sk_meb2/production/_ext/1907747181/libaria_widget_checkbox_skin_classic.o
 .debug_abbrev  0x0000688b      0x23e build/pic32mz_ef_sk_meb2/production/_ext/1907747181/libaria_widget_circle.o
 .debug_abbrev  0x00006ac9      0x258 build/pic32mz_ef_sk_meb2/production/_ext/1907747181/libaria_widget_circle_skin_classic.o
 .debug_abbrev  0x00006d21      0x23e build/pic32mz_ef_sk_meb2/production/_ext/1907747181/libaria_widget_drawsurface.o
 .debug_abbrev  0x00006f5f      0x261 build/pic32mz_ef_sk_meb2/production/_ext/1907747181/libaria_widget_drawsurface_skin_classic.o
 .debug_abbrev  0x000071c0      0x23e build/pic32mz_ef_sk_meb2/production/_ext/1907747181/libaria_widget_gradient.o
 .debug_abbrev  0x000073fe      0x254 build/pic32mz_ef_sk_meb2/production/_ext/1907747181/libaria_widget_gradient_skin_classic.o
 .debug_abbrev  0x00007652      0x282 build/pic32mz_ef_sk_meb2/production/_ext/1907747181/libaria_widget_groupbox.o
 .debug_abbrev  0x000078d4      0x2b7 build/pic32mz_ef_sk_meb2/production/_ext/1907747181/libaria_widget_groupbox_skin_classic.o
 .debug_abbrev  0x00007b8b      0x265 build/pic32mz_ef_sk_meb2/production/_ext/1907747181/libaria_widget_image.o
 .debug_abbrev  0x00007df0      0x287 build/pic32mz_ef_sk_meb2/production/_ext/1907747181/libaria_widget_image_skin_classic.o
 .debug_abbrev  0x00008077      0x2b5 build/pic32mz_ef_sk_meb2/production/_ext/1907747181/libaria_widget_imagesequence.o
 .debug_abbrev  0x0000832c      0x278 build/pic32mz_ef_sk_meb2/production/_ext/1907747181/libaria_widget_imagesequence_skin_classic.o
 .debug_abbrev  0x000085a4      0x34a build/pic32mz_ef_sk_meb2/production/_ext/1907747181/libaria_widget_keypad.o
 .debug_abbrev  0x000088ee      0x269 build/pic32mz_ef_sk_meb2/production/_ext/1907747181/libaria_widget_keypad_skin_classic.o
 .debug_abbrev  0x00008b57      0x29c build/pic32mz_ef_sk_meb2/production/_ext/1907747181/libaria_widget_label.o
 .debug_abbrev  0x00008df3      0x263 build/pic32mz_ef_sk_meb2/production/_ext/1907747181/libaria_widget_label_skin_classic.o
 .debug_abbrev  0x00009056      0x25c build/pic32mz_ef_sk_meb2/production/_ext/1907747181/libaria_widget_line.o
 .debug_abbrev  0x000092b2      0x258 build/pic32mz_ef_sk_meb2/production/_ext/1907747181/libaria_widget_line_skin_classic.o
 .debug_abbrev  0x0000950a      0x3f3 build/pic32mz_ef_sk_meb2/production/_ext/1907747181/libaria_widget_list.o
 .debug_abbrev  0x000098fd      0x32f build/pic32mz_ef_sk_meb2/production/_ext/1907747181/libaria_widget_list_skin_classic.o
 .debug_abbrev  0x00009c2c      0x378 build/pic32mz_ef_sk_meb2/production/_ext/1907747181/libaria_widget_listwheel.o
 .debug_abbrev  0x00009fa4      0x3aa build/pic32mz_ef_sk_meb2/production/_ext/1907747181/libaria_widget_listwheel_skin_classic.o
 .debug_abbrev  0x0000a34e      0x23e build/pic32mz_ef_sk_meb2/production/_ext/1907747181/libaria_widget_progressbar.o
 .debug_abbrev  0x0000a58c      0x269 build/pic32mz_ef_sk_meb2/production/_ext/1907747181/libaria_widget_progressbar_skin_classic.o
 .debug_abbrev  0x0000a7f5      0x321 build/pic32mz_ef_sk_meb2/production/_ext/1907747181/libaria_widget_radiobutton.o
 .debug_abbrev  0x0000ab16      0x364 build/pic32mz_ef_sk_meb2/production/_ext/1907747181/libaria_widget_radiobutton_skin_classic.o
 .debug_abbrev  0x0000ae7a      0x26d build/pic32mz_ef_sk_meb2/production/_ext/1907747181/libaria_radiobutton_group.o
 .debug_abbrev  0x0000b0e7      0x24d build/pic32mz_ef_sk_meb2/production/_ext/1907747181/libaria_widget_rectangle.o
 .debug_abbrev  0x0000b334      0x245 build/pic32mz_ef_sk_meb2/production/_ext/1907747181/libaria_widget_rectangle_skin_classic.o
 .debug_abbrev  0x0000b579      0x32e build/pic32mz_ef_sk_meb2/production/_ext/1907747181/libaria_widget_scrollbar.o
 .debug_abbrev  0x0000b8a7      0x296 build/pic32mz_ef_sk_meb2/production/_ext/1907747181/libaria_widget_scrollbar_skin_classic.o
 .debug_abbrev  0x0000bb3d      0x30a build/pic32mz_ef_sk_meb2/production/_ext/1907747181/libaria_widget_slider.o
 .debug_abbrev  0x0000be47      0x269 build/pic32mz_ef_sk_meb2/production/_ext/1907747181/libaria_widget_slider_skin_classic.o
 .debug_abbrev  0x0000c0b0      0x35f build/pic32mz_ef_sk_meb2/production/_ext/1907747181/libaria_widget_textfield.o
 .debug_abbrev  0x0000c40f      0x290 build/pic32mz_ef_sk_meb2/production/_ext/1907747181/libaria_widget_textfield_skin_classic.o
 .debug_abbrev  0x0000c69f      0x280 build/pic32mz_ef_sk_meb2/production/_ext/1907747181/libaria_widget_touchtest.o
 .debug_abbrev  0x0000c91f      0x28b build/pic32mz_ef_sk_meb2/production/_ext/1907747181/libaria_widget_touchtest_skin_classic.o
 .debug_abbrev  0x0000cbaa      0x29a build/pic32mz_ef_sk_meb2/production/_ext/1907747181/libaria_widget_window.o
 .debug_abbrev  0x0000ce44      0x2ef build/pic32mz_ef_sk_meb2/production/_ext/1907747181/libaria_widget_window_skin_classic.o
 .debug_abbrev  0x0000d133      0x328 build/pic32mz_ef_sk_meb2/production/_ext/1847583374/gfx.o
 .debug_abbrev  0x0000d45b       0xd9 build/pic32mz_ef_sk_meb2/production/_ext/1847583374/gfx_color.o
 .debug_abbrev  0x0000d534      0x1a4 build/pic32mz_ef_sk_meb2/production/_ext/1847583374/gfx_context.o
 .debug_abbrev  0x0000d6d8      0x3aa build/pic32mz_ef_sk_meb2/production/_ext/1847583374/gfx_default_impl.o
 .debug_abbrev  0x0000da82      0x125 build/pic32mz_ef_sk_meb2/production/_ext/1847583374/gfx_display.o
 .debug_abbrev  0x0000dba7      0x192 build/pic32mz_ef_sk_meb2/production/_ext/1847583374/gfx_driver_interface.o
 .debug_abbrev  0x0000dd39      0x284 build/pic32mz_ef_sk_meb2/production/_ext/1847583374/gfx_get.o
 .debug_abbrev  0x0000dfbd       0x9f build/pic32mz_ef_sk_meb2/production/_ext/1847583374/gfx_interface.o
 .debug_abbrev  0x0000e05c      0x20c build/pic32mz_ef_sk_meb2/production/_ext/1847583374/gfx_layer.o
 .debug_abbrev  0x0000e268      0x2ce build/pic32mz_ef_sk_meb2/production/_ext/1847583374/gfx_pixel_buffer.o
 .debug_abbrev  0x0000e536      0x12d build/pic32mz_ef_sk_meb2/production/_ext/1847583374/gfx_rect.o
 .debug_abbrev  0x0000e663      0x175 build/pic32mz_ef_sk_meb2/production/_ext/1847583374/gfx_util.o
 .debug_abbrev  0x0000e7d8      0x23c build/pic32mz_ef_sk_meb2/production/_ext/1847583374/gfx_set.o
 .debug_abbrev  0x0000ea14      0x29e build/pic32mz_ef_sk_meb2/production/_ext/1847583374/gfx_color_blend.o
 .debug_abbrev  0x0000ecb2      0x295 build/pic32mz_ef_sk_meb2/production/_ext/1847583374/gfx_color_convert.o
 .debug_abbrev  0x0000ef47      0x1c9 build/pic32mz_ef_sk_meb2/production/_ext/1847583374/gfx_color_lerp.o
 .debug_abbrev  0x0000f110      0x111 build/pic32mz_ef_sk_meb2/production/_ext/1847583374/gfx_color_value.o
 .debug_abbrev  0x0000f221      0x2a8 build/pic32mz_ef_sk_meb2/production/_ext/1847583374/gfx_draw_blit.o
 .debug_abbrev  0x0000f4c9      0x1d0 build/pic32mz_ef_sk_meb2/production/_ext/1847583374/gfx_draw_circle.o
 .debug_abbrev  0x0000f699      0x275 build/pic32mz_ef_sk_meb2/production/_ext/1847583374/gfx_draw_line.o
 .debug_abbrev  0x0000f90e      0x223 build/pic32mz_ef_sk_meb2/production/_ext/1847583374/gfx_draw_pixel.o
 .debug_abbrev  0x0000fb31      0x265 build/pic32mz_ef_sk_meb2/production/_ext/1847583374/gfx_draw_rect.o
 .debug_abbrev  0x0000fd96       0xd2 build/pic32mz_ef_sk_meb2/production/_ext/1847583374/gfx_math.o
 .debug_abbrev  0x0000fe68      0x407 build/pic32mz_ef_sk_meb2/production/_ext/853959373/sys_dma.o
 .debug_abbrev  0x0001026f      0x212 build/pic32mz_ef_sk_meb2/production/_ext/1042686532/sys_int_pic32.o
 .debug_abbrev  0x00010481      0x43c build/pic32mz_ef_sk_meb2/production/_ext/199634090/drv_tmr_static.o
 .debug_abbrev  0x000108bd      0x2e5 build/pic32mz_ef_sk_meb2/production/_ext/199634090/drv_tmr_mapping.o
 .debug_abbrev  0x00010ba2      0x4c7 build/pic32mz_ef_sk_meb2/production/_ext/713288229/drv_gfx_lcc_generic.o
 .debug_abbrev  0x00011069      0x257 build/pic32mz_ef_sk_meb2/production/_ext/1740298103/libaria_harmony.o
 .debug_abbrev  0x000112c0      0x2ae build/pic32mz_ef_sk_meb2/production/_ext/1740298103/libaria_init.o
 .debug_abbrev  0x0001156e      0x10e build/pic32mz_ef_sk_meb2/production/_ext/1740298103/libaria_events.o
 .debug_abbrev  0x0001167c      0x10e build/pic32mz_ef_sk_meb2/production/_ext/1740298103/libaria_macros.o
 .debug_abbrev  0x0001178a       0xda build/pic32mz_ef_sk_meb2/production/_ext/477038478/gfx_display_def.o
 .debug_abbrev  0x00011864      0x179 build/pic32mz_ef_sk_meb2/production/_ext/477038478/gfx_driver_def.o
 .debug_abbrev  0x000119dd      0x3b4 build/pic32mz_ef_sk_meb2/production/_ext/1847413222/sys_clk.o
 .debug_abbrev  0x00011d91      0x3fa build/pic32mz_ef_sk_meb2/production/_ext/1847413222/sys_clk_pic32mz.o
 .debug_abbrev  0x0001218b      0x2bb build/pic32mz_ef_sk_meb2/production/_ext/924081491/sys_devcon.o
 .debug_abbrev  0x00012446      0x290 build/pic32mz_ef_sk_meb2/production/_ext/924081491/sys_devcon_pic32mz.o
 .debug_abbrev  0x000126d6      0x2c9 build/pic32mz_ef_sk_meb2/production/_ext/50030870/sys_ports_static.o
 .debug_abbrev  0x0001299f      0x26a build/pic32mz_ef_sk_meb2/production/_ext/1465531745/bsp.o
 .debug_abbrev  0x00012c09      0x2f9 build/pic32mz_ef_sk_meb2/production/_ext/1951523377/system_init.o
 .debug_abbrev  0x00012f02      0x226 build/pic32mz_ef_sk_meb2/production/_ext/1951523377/system_interrupt.o
 .debug_abbrev  0x00013128      0x151 build/pic32mz_ef_sk_meb2/production/_ext/1951523377/system_exceptions.o
 .debug_abbrev  0x00013279      0x16f build/pic32mz_ef_sk_meb2/production/_ext/1951523377/system_tasks.o
 .debug_abbrev  0x000133e8      0x161 build/pic32mz_ef_sk_meb2/production/_ext/715821942/gfx_assets.o
 .debug_abbrev  0x00013549       0x62 c:/program files (x86)/microchip/xc32/v1.42/bin/bin/../../lib/gcc/pic32mx/4.8.3\libgcc.a(floatunsisf.o)
 .debug_abbrev  0x000135ab       0x28 c:/program files (x86)/microchip/xc32/v1.42/bin/bin/../../lib/gcc/pic32mx/4.8.3/../../../../pic32mx/lib\libpic32.a(default-bootstrap-exception-handler.o)
 .debug_abbrev  0x000135d3       0x28 c:/program files (x86)/microchip/xc32/v1.42/bin/bin/../../lib/gcc/pic32mx/4.8.3/../../../../pic32mx/lib\libpic32.a(default-on-reset.o)
 .debug_abbrev  0x000135fb       0x28 c:/program files (x86)/microchip/xc32/v1.42/bin/bin/../../lib/gcc/pic32mx/4.8.3/../../../../pic32mx/lib\libpic32.a(default-on-bootstrap.o)
 .debug_abbrev  0x00013623       0x28 c:/program files (x86)/microchip/xc32/v1.42/bin/bin/../../lib/gcc/pic32mx/4.8.3/../../../../pic32mx/lib\libpic32.a(defaultinterrupt.o)
 .debug_abbrev  0x0001364b       0x28 c:/program files (x86)/microchip/xc32/v1.42/bin/bin/../../lib/gcc/pic32mx/4.8.3/../../../../pic32mx/lib\libpic32.a(default-cache-err-exception-handler.o)
 .debug_abbrev  0x00013673       0x28 c:/program files (x86)/microchip/xc32/v1.42/bin/bin/../../lib/gcc/pic32mx/4.8.3/../../../../pic32mx/lib\libpic32.a(default-simple-tlb-refill-exception-handler.o)
 .debug_abbrev  0x0001369b       0x28 c:/program files (x86)/microchip/xc32/v1.42/bin/bin/../../lib/gcc/pic32mx/4.8.3/../../../../pic32mx/lib\libc.a(fclose.o)
 .debug_abbrev  0x000136c3       0x28 c:/program files (x86)/microchip/xc32/v1.42/bin/bin/../../lib/gcc/pic32mx/4.8.3/../../../../pic32mx/lib\libc.a(fflush.o)
 .debug_abbrev  0x000136eb       0x28 c:/program files (x86)/microchip/xc32/v1.42/bin/bin/../../lib/gcc/pic32mx/4.8.3/../../../../pic32mx/lib\libc.a(fopen.o)
 .debug_abbrev  0x00013713       0x28 c:/program files (x86)/microchip/xc32/v1.42/bin/bin/../../lib/gcc/pic32mx/4.8.3/../../../../pic32mx/lib\libc.a(fread.o)
 .debug_abbrev  0x0001373b       0x28 c:/program files (x86)/microchip/xc32/v1.42/bin/bin/../../lib/gcc/pic32mx/4.8.3/../../../../pic32mx/lib\libc.a(freopen.o)
 .debug_abbrev  0x00013763       0x35 c:/program files (x86)/microchip/xc32/v1.42/bin/bin/../../lib/gcc/pic32mx/4.8.3/../../../../pic32mx/lib\libc.a(fseek.o)
 .debug_abbrev  0x00013798       0x28 c:/program files (x86)/microchip/xc32/v1.42/bin/bin/../../lib/gcc/pic32mx/4.8.3/../../../../pic32mx/lib\libc.a(fwrite.o)
 .debug_abbrev  0x000137c0       0x4f c:/program files (x86)/microchip/xc32/v1.42/bin/bin/../../lib/gcc/pic32mx/4.8.3/../../../../pic32mx/lib\libc.a(buf.o)
 .debug_abbrev  0x0001380f       0x28 c:/program files (x86)/microchip/xc32/v1.42/bin/bin/../../lib/gcc/pic32mx/4.8.3/../../../../pic32mx/lib\libc.a(calloc.o)
 .debug_abbrev  0x00013837       0x47 c:/program files (x86)/microchip/xc32/v1.42/bin/bin/../../lib/gcc/pic32mx/4.8.3/../../../../pic32mx/lib\libc.a(malloc.o)
 .debug_abbrev  0x0001387e       0x28 c:/program files (x86)/microchip/xc32/v1.42/bin/bin/../../lib/gcc/pic32mx/4.8.3/../../../../pic32mx/lib\libc.a(fgetc.o)
 .debug_abbrev  0x000138a6       0x28 c:/program files (x86)/microchip/xc32/v1.42/bin/bin/../../lib/gcc/pic32mx/4.8.3/../../../../pic32mx/lib\libc.a(_fputc_simple.o)
 .debug_abbrev  0x000138ce       0x28 c:/program files (x86)/microchip/xc32/v1.42/bin/bin/../../lib/gcc/pic32mx/4.8.3/../../../../pic32mx/lib\libc.a(filbuf.o)
 .debug_abbrev  0x000138f6       0x28 c:/program files (x86)/microchip/xc32/v1.42/bin/bin/../../lib/gcc/pic32mx/4.8.3/../../../../pic32mx/lib\libc.a(_flsbuf_simple.o)
 .debug_abbrev  0x0001391e       0x54 c:/program files (x86)/microchip/xc32/v1.42/bin/bin/../../lib/gcc/pic32mx/4.8.3/../../../../pic32mx/lib\libpic32.a(sbrk.o)
 .debug_abbrev  0x00013972       0x28 c:/program files (x86)/microchip/xc32/v1.42/bin/bin/../../lib/gcc/pic32mx/4.8.3/../../../../pic32mx/lib\libpic32.a(read.o)
 .debug_abbrev  0x0001399a       0x28 c:/program files (x86)/microchip/xc32/v1.42/bin/bin/../../lib/gcc/pic32mx/4.8.3/../../../../pic32mx/lib\libpic32.a(write.o)
 .debug_abbrev  0x000139c2       0x28 c:/program files (x86)/microchip/xc32/v1.42/bin/bin/../../lib/gcc/pic32mx/4.8.3/../../../../pic32mx/lib\libpic32.a(lseek.o)
 .debug_abbrev  0x000139ea       0x28 c:/program files (x86)/microchip/xc32/v1.42/bin/bin/../../lib/gcc/pic32mx/4.8.3/../../../../pic32mx/lib\libpic32.a(remove.o)
 .debug_abbrev  0x00013a12       0x28 c:/program files (x86)/microchip/xc32/v1.42/bin/bin/../../lib/gcc/pic32mx/4.8.3/../../../../pic32mx/lib\libpic32.a(close.o)
 .debug_abbrev  0x00013a3a       0x28 c:/program files (x86)/microchip/xc32/v1.42/bin/bin/../../lib/gcc/pic32mx/4.8.3/../../../../pic32mx/lib\libpic32.a(open.o)
 .debug_abbrev  0x00013a62       0x28 c:/program files (x86)/microchip/xc32/v1.42/bin/bin/../../lib/gcc/pic32mx/4.8.3/../../../../pic32mx/lib\libpic32.a(_mon_putc.o)

.debug_line     0x00000000    0x246a2
 *(.debug_line)
 .debug_line    0x00000000      0x3ad build/pic32mz_ef_sk_meb2/production/_ext/1360937237/app.o
 .debug_line    0x000003ad       0xc4 build/pic32mz_ef_sk_meb2/production/_ext/1360937237/main.o
 .debug_line    0x00000471      0x2f2 build/pic32mz_ef_sk_meb2/production/_ext/1360937237/ov2640.o
 .debug_line    0x00000763      0x345 build/pic32mz_ef_sk_meb2/production/_ext/1360937237/i2c_master_noint.o
 .debug_line    0x00000aa8      0x440 build/pic32mz_ef_sk_meb2/production/_ext/1360937237/i2c_bitbanging.o
 .debug_line    0x00000ee8      0x1d9 build/pic32mz_ef_sk_meb2/production/_ext/426253641/jidctint.o
 .debug_line    0x000010c1      0x25b build/pic32mz_ef_sk_meb2/production/_ext/1597685232/gfxu_image.o
 .debug_line    0x0000131c      0x30c build/pic32mz_ef_sk_meb2/production/_ext/1597685232/gfxu_image_png_external.o
 .debug_line    0x00001628      0x316 build/pic32mz_ef_sk_meb2/production/_ext/1597685232/gfxu_image_png_internal.o
 .debug_line    0x0000193e      0x68d build/pic32mz_ef_sk_meb2/production/_ext/1597685232/gfxu_image_jpg_internal.o
 .debug_line    0x00001fcb     0x200b build/pic32mz_ef_sk_meb2/production/_ext/493934858/lodepng.o
 .debug_line    0x00003fd6      0x365 build/pic32mz_ef_sk_meb2/production/_ext/1597685232/gfxu_image_raw_external.o
 .debug_line    0x0000433b      0x279 build/pic32mz_ef_sk_meb2/production/_ext/1597685232/gfxu_image_raw_internal.o
 .debug_line    0x000045b4      0x3a6 build/pic32mz_ef_sk_meb2/production/_ext/1597685232/gfxu_image_rle_external.o
 .debug_line    0x0000495a      0x2ad build/pic32mz_ef_sk_meb2/production/_ext/1597685232/gfxu_image_rle_internal.o
 .debug_line    0x00004c07      0x2b5 build/pic32mz_ef_sk_meb2/production/_ext/1597685232/gfxu_image_utils.o
 .debug_line    0x00004ebc      0x221 build/pic32mz_ef_sk_meb2/production/_ext/1597685232/gfxu_palette.o
 .debug_line    0x000050dd      0x280 build/pic32mz_ef_sk_meb2/production/_ext/1597685232/gfxu_string.o
 .debug_line    0x0000535d      0x38d build/pic32mz_ef_sk_meb2/production/_ext/1597685232/gfxu_string_external.o
 .debug_line    0x000056ea      0x242 build/pic32mz_ef_sk_meb2/production/_ext/1597685232/gfxu_string_internal.o
 .debug_line    0x0000592c      0x374 build/pic32mz_ef_sk_meb2/production/_ext/1597685232/gfxu_string_query.o
 .debug_line    0x00005ca0      0x473 build/pic32mz_ef_sk_meb2/production/_ext/1597685232/gfxu_string_utils.o
 .debug_line    0x00006113      0x36b build/pic32mz_ef_sk_meb2/production/_ext/1907747181/libaria.o
 .debug_line    0x0000647e      0x617 build/pic32mz_ef_sk_meb2/production/_ext/1907747181/libaria_context.o
 .debug_line    0x00006a95      0x407 build/pic32mz_ef_sk_meb2/production/_ext/1907747181/libaria_context_paint.o
 .debug_line    0x00006e9c      0x268 build/pic32mz_ef_sk_meb2/production/_ext/1907747181/libaria_draw.o
 .debug_line    0x00007104      0x439 build/pic32mz_ef_sk_meb2/production/_ext/1907747181/libaria_editwidget.o
 .debug_line    0x0000753d      0x382 build/pic32mz_ef_sk_meb2/production/_ext/1907747181/libaria_event.o
 .debug_line    0x000078bf      0x40c build/pic32mz_ef_sk_meb2/production/_ext/1907747181/libaria_input.o
 .debug_line    0x00007ccb      0x518 build/pic32mz_ef_sk_meb2/production/_ext/1907747181/libaria_layer.o
 .debug_line    0x000081e3      0x4b2 build/pic32mz_ef_sk_meb2/production/_ext/1907747181/libaria_list.o
 .debug_line    0x00008695      0x1f2 build/pic32mz_ef_sk_meb2/production/_ext/1907747181/libaria_scheme.o
 .debug_line    0x00008887      0x4ca build/pic32mz_ef_sk_meb2/production/_ext/1907747181/libaria_screen.o
 .debug_line    0x00008d51      0x701 build/pic32mz_ef_sk_meb2/production/_ext/1907747181/libaria_string.o
 .debug_line    0x00009452      0x5bd build/pic32mz_ef_sk_meb2/production/_ext/1907747181/libaria_utils.o
 .debug_line    0x00009a0f      0x939 build/pic32mz_ef_sk_meb2/production/_ext/1907747181/libaria_widget.o
 .debug_line    0x0000a348      0x3d9 build/pic32mz_ef_sk_meb2/production/_ext/1907747181/libaria_widget_skin_classic.o
 .debug_line    0x0000a721      0x61c build/pic32mz_ef_sk_meb2/production/_ext/1907747181/libaria_widget_button.o
 .debug_line    0x0000ad3d      0x4f4 build/pic32mz_ef_sk_meb2/production/_ext/1907747181/libaria_widget_button_skin_classic.o
 .debug_line    0x0000b231      0x590 build/pic32mz_ef_sk_meb2/production/_ext/1907747181/libaria_widget_checkbox.o
 .debug_line    0x0000b7c1      0x530 build/pic32mz_ef_sk_meb2/production/_ext/1907747181/libaria_widget_checkbox_skin_classic.o
 .debug_line    0x0000bcf1      0x3d4 build/pic32mz_ef_sk_meb2/production/_ext/1907747181/libaria_widget_circle.o
 .debug_line    0x0000c0c5      0x42b build/pic32mz_ef_sk_meb2/production/_ext/1907747181/libaria_widget_circle_skin_classic.o
 .debug_line    0x0000c4f0      0x3ad build/pic32mz_ef_sk_meb2/production/_ext/1907747181/libaria_widget_drawsurface.o
 .debug_line    0x0000c89d      0x438 build/pic32mz_ef_sk_meb2/production/_ext/1907747181/libaria_widget_drawsurface_skin_classic.o
 .debug_line    0x0000ccd5      0x3a8 build/pic32mz_ef_sk_meb2/production/_ext/1907747181/libaria_widget_gradient.o
 .debug_line    0x0000d07d      0x41d build/pic32mz_ef_sk_meb2/production/_ext/1907747181/libaria_widget_gradient_skin_classic.o
 .debug_line    0x0000d49a      0x3ce build/pic32mz_ef_sk_meb2/production/_ext/1907747181/libaria_widget_groupbox.o
 .debug_line    0x0000d868      0x4b0 build/pic32mz_ef_sk_meb2/production/_ext/1907747181/libaria_widget_groupbox_skin_classic.o
 .debug_line    0x0000dd18      0x413 build/pic32mz_ef_sk_meb2/production/_ext/1907747181/libaria_widget_image.o
 .debug_line    0x0000e12b      0x48e build/pic32mz_ef_sk_meb2/production/_ext/1907747181/libaria_widget_image_skin_classic.o
 .debug_line    0x0000e5b9      0x5d7 build/pic32mz_ef_sk_meb2/production/_ext/1907747181/libaria_widget_imagesequence.o
 .debug_line    0x0000eb90      0x499 build/pic32mz_ef_sk_meb2/production/_ext/1907747181/libaria_widget_imagesequence_skin_classic.o
 .debug_line    0x0000f029      0x62c build/pic32mz_ef_sk_meb2/production/_ext/1907747181/libaria_widget_keypad.o
 .debug_line    0x0000f655      0x414 build/pic32mz_ef_sk_meb2/production/_ext/1907747181/libaria_widget_keypad_skin_classic.o
 .debug_line    0x0000fa69      0x3f2 build/pic32mz_ef_sk_meb2/production/_ext/1907747181/libaria_widget_label.o
 .debug_line    0x0000fe5b      0x45b build/pic32mz_ef_sk_meb2/production/_ext/1907747181/libaria_widget_label_skin_classic.o
 .debug_line    0x000102b6      0x3cf build/pic32mz_ef_sk_meb2/production/_ext/1907747181/libaria_widget_line.o
 .debug_line    0x00010685      0x42a build/pic32mz_ef_sk_meb2/production/_ext/1907747181/libaria_widget_line_skin_classic.o
 .debug_line    0x00010aaf      0x82d build/pic32mz_ef_sk_meb2/production/_ext/1907747181/libaria_widget_list.o
 .debug_line    0x000112dc      0x543 build/pic32mz_ef_sk_meb2/production/_ext/1907747181/libaria_widget_list_skin_classic.o
 .debug_line    0x0001181f      0x608 build/pic32mz_ef_sk_meb2/production/_ext/1907747181/libaria_widget_listwheel.o
 .debug_line    0x00011e27      0x541 build/pic32mz_ef_sk_meb2/production/_ext/1907747181/libaria_widget_listwheel_skin_classic.o
 .debug_line    0x00012368      0x405 build/pic32mz_ef_sk_meb2/production/_ext/1907747181/libaria_widget_progressbar.o
 .debug_line    0x0001276d      0x46a build/pic32mz_ef_sk_meb2/production/_ext/1907747181/libaria_widget_progressbar_skin_classic.o
 .debug_line    0x00012bd7      0x5fc build/pic32mz_ef_sk_meb2/production/_ext/1907747181/libaria_widget_radiobutton.o
 .debug_line    0x000131d3      0x594 build/pic32mz_ef_sk_meb2/production/_ext/1907747181/libaria_widget_radiobutton_skin_classic.o
 .debug_line    0x00013767      0x40a build/pic32mz_ef_sk_meb2/production/_ext/1907747181/libaria_radiobutton_group.o
 .debug_line    0x00013b71      0x3aa build/pic32mz_ef_sk_meb2/production/_ext/1907747181/libaria_widget_rectangle.o
 .debug_line    0x00013f1b      0x44b build/pic32mz_ef_sk_meb2/production/_ext/1907747181/libaria_widget_rectangle_skin_classic.o
 .debug_line    0x00014366      0x677 build/pic32mz_ef_sk_meb2/production/_ext/1907747181/libaria_widget_scrollbar.o
 .debug_line    0x000149dd      0x49e build/pic32mz_ef_sk_meb2/production/_ext/1907747181/libaria_widget_scrollbar_skin_classic.o
 .debug_line    0x00014e7b      0x5dd build/pic32mz_ef_sk_meb2/production/_ext/1907747181/libaria_widget_slider.o
 .debug_line    0x00015458      0x42c build/pic32mz_ef_sk_meb2/production/_ext/1907747181/libaria_widget_slider_skin_classic.o
 .debug_line    0x00015884      0x5ad build/pic32mz_ef_sk_meb2/production/_ext/1907747181/libaria_widget_textfield.o
 .debug_line    0x00015e31      0x496 build/pic32mz_ef_sk_meb2/production/_ext/1907747181/libaria_widget_textfield_skin_classic.o
 .debug_line    0x000162c7      0x440 build/pic32mz_ef_sk_meb2/production/_ext/1907747181/libaria_widget_touchtest.o
 .debug_line    0x00016707      0x460 build/pic32mz_ef_sk_meb2/production/_ext/1907747181/libaria_widget_touchtest_skin_classic.o
 .debug_line    0x00016b67      0x424 build/pic32mz_ef_sk_meb2/production/_ext/1907747181/libaria_widget_window.o
 .debug_line    0x00016f8b      0x522 build/pic32mz_ef_sk_meb2/production/_ext/1907747181/libaria_widget_window_skin_classic.o
 .debug_line    0x000174ad      0x459 build/pic32mz_ef_sk_meb2/production/_ext/1847583374/gfx.o
 .debug_line    0x00017906      0x1bb build/pic32mz_ef_sk_meb2/production/_ext/1847583374/gfx_color.o
 .debug_line    0x00017ac1      0x245 build/pic32mz_ef_sk_meb2/production/_ext/1847583374/gfx_context.o
 .debug_line    0x00017d06      0x993 build/pic32mz_ef_sk_meb2/production/_ext/1847583374/gfx_default_impl.o
 .debug_line    0x00018699      0x181 build/pic32mz_ef_sk_meb2/production/_ext/1847583374/gfx_display.o
 .debug_line    0x0001881a      0x26f build/pic32mz_ef_sk_meb2/production/_ext/1847583374/gfx_driver_interface.o
 .debug_line    0x00018a89      0x596 build/pic32mz_ef_sk_meb2/production/_ext/1847583374/gfx_get.o
 .debug_line    0x0001901f      0x1ae build/pic32mz_ef_sk_meb2/production/_ext/1847583374/gfx_interface.o
 .debug_line    0x000191cd      0x27d build/pic32mz_ef_sk_meb2/production/_ext/1847583374/gfx_layer.o
 .debug_line    0x0001944a      0x452 build/pic32mz_ef_sk_meb2/production/_ext/1847583374/gfx_pixel_buffer.o
 .debug_line    0x0001989c      0x1bf build/pic32mz_ef_sk_meb2/production/_ext/1847583374/gfx_rect.o
 .debug_line    0x00019a5b      0x23a build/pic32mz_ef_sk_meb2/production/_ext/1847583374/gfx_util.o
 .debug_line    0x00019c95      0x50a build/pic32mz_ef_sk_meb2/production/_ext/1847583374/gfx_set.o
 .debug_line    0x0001a19f      0x2ae build/pic32mz_ef_sk_meb2/production/_ext/1847583374/gfx_color_blend.o
 .debug_line    0x0001a44d      0x6fb build/pic32mz_ef_sk_meb2/production/_ext/1847583374/gfx_color_convert.o
 .debug_line    0x0001ab48      0x269 build/pic32mz_ef_sk_meb2/production/_ext/1847583374/gfx_color_lerp.o
 .debug_line    0x0001adb1      0x178 build/pic32mz_ef_sk_meb2/production/_ext/1847583374/gfx_color_value.o
 .debug_line    0x0001af29      0x281 build/pic32mz_ef_sk_meb2/production/_ext/1847583374/gfx_draw_blit.o
 .debug_line    0x0001b1aa      0x246 build/pic32mz_ef_sk_meb2/production/_ext/1847583374/gfx_draw_circle.o
 .debug_line    0x0001b3f0      0x2ed build/pic32mz_ef_sk_meb2/production/_ext/1847583374/gfx_draw_line.o
 .debug_line    0x0001b6dd      0x26f build/pic32mz_ef_sk_meb2/production/_ext/1847583374/gfx_draw_pixel.o
 .debug_line    0x0001b94c      0x33c build/pic32mz_ef_sk_meb2/production/_ext/1847583374/gfx_draw_rect.o
 .debug_line    0x0001bc88      0x1ff build/pic32mz_ef_sk_meb2/production/_ext/1847583374/gfx_math.o
 .debug_line    0x0001be87      0xd89 build/pic32mz_ef_sk_meb2/production/_ext/853959373/sys_dma.o
 .debug_line    0x0001cc10      0x35c build/pic32mz_ef_sk_meb2/production/_ext/1042686532/sys_int_pic32.o
 .debug_line    0x0001cf6c      0xaab build/pic32mz_ef_sk_meb2/production/_ext/199634090/drv_tmr_static.o
 .debug_line    0x0001da17      0x5ab build/pic32mz_ef_sk_meb2/production/_ext/199634090/drv_tmr_mapping.o
 .debug_line    0x0001dfc2      0xa85 build/pic32mz_ef_sk_meb2/production/_ext/713288229/drv_gfx_lcc_generic.o
 .debug_line    0x0001ea47      0x45e build/pic32mz_ef_sk_meb2/production/_ext/1740298103/libaria_harmony.o
 .debug_line    0x0001eea5      0x516 build/pic32mz_ef_sk_meb2/production/_ext/1740298103/libaria_init.o
 .debug_line    0x0001f3bb      0x128 build/pic32mz_ef_sk_meb2/production/_ext/1740298103/libaria_events.o
 .debug_line    0x0001f4e3      0x128 build/pic32mz_ef_sk_meb2/production/_ext/1740298103/libaria_macros.o
 .debug_line    0x0001f60b      0x1b7 build/pic32mz_ef_sk_meb2/production/_ext/477038478/gfx_display_def.o
 .debug_line    0x0001f7c2      0x287 build/pic32mz_ef_sk_meb2/production/_ext/477038478/gfx_driver_def.o
 .debug_line    0x0001fa49      0x714 build/pic32mz_ef_sk_meb2/production/_ext/1847413222/sys_clk.o
 .debug_line    0x0002015d      0x91e build/pic32mz_ef_sk_meb2/production/_ext/1847413222/sys_clk_pic32mz.o
 .debug_line    0x00020a7b      0x679 build/pic32mz_ef_sk_meb2/production/_ext/924081491/sys_devcon.o
 .debug_line    0x000210f4      0x5b0 build/pic32mz_ef_sk_meb2/production/_ext/924081491/sys_devcon_pic32mz.o
 .debug_line    0x000216a4      0x9b9 build/pic32mz_ef_sk_meb2/production/_ext/50030870/sys_ports_static.o
 .debug_line    0x0002205d      0x364 build/pic32mz_ef_sk_meb2/production/_ext/1465531745/bsp.o
 .debug_line    0x000223c1      0x73a build/pic32mz_ef_sk_meb2/production/_ext/1951523377/system_init.o
 .debug_line    0x00022afb      0x485 build/pic32mz_ef_sk_meb2/production/_ext/1951523377/system_interrupt.o
 .debug_line    0x00022f80      0x1fa build/pic32mz_ef_sk_meb2/production/_ext/1951523377/system_exceptions.o
 .debug_line    0x0002317a      0x30d build/pic32mz_ef_sk_meb2/production/_ext/1951523377/system_tasks.o
 .debug_line    0x00023487      0x235 build/pic32mz_ef_sk_meb2/production/_ext/715821942/gfx_assets.o
 .debug_line    0x000236bc       0x9c c:/program files (x86)/microchip/xc32/v1.42/bin/bin/../../lib/gcc/pic32mx/4.8.3\libgcc.a(floatunsisf.o)
 .debug_line    0x00023758       0xa9 c:/program files (x86)/microchip/xc32/v1.42/bin/bin/../../lib/gcc/pic32mx/4.8.3/../../../../pic32mx/lib\libpic32.a(default-bootstrap-exception-handler.o)
 .debug_line    0x00023801       0x96 c:/program files (x86)/microchip/xc32/v1.42/bin/bin/../../lib/gcc/pic32mx/4.8.3/../../../../pic32mx/lib\libpic32.a(default-on-reset.o)
 .debug_line    0x00023897       0x9a c:/program files (x86)/microchip/xc32/v1.42/bin/bin/../../lib/gcc/pic32mx/4.8.3/../../../../pic32mx/lib\libpic32.a(default-on-bootstrap.o)
 .debug_line    0x00023931       0xa8 c:/program files (x86)/microchip/xc32/v1.42/bin/bin/../../lib/gcc/pic32mx/4.8.3/../../../../pic32mx/lib\libpic32.a(defaultinterrupt.o)
 .debug_line    0x000239d9       0xa9 c:/program files (x86)/microchip/xc32/v1.42/bin/bin/../../lib/gcc/pic32mx/4.8.3/../../../../pic32mx/lib\libpic32.a(default-cache-err-exception-handler.o)
 .debug_line    0x00023a82       0xb1 c:/program files (x86)/microchip/xc32/v1.42/bin/bin/../../lib/gcc/pic32mx/4.8.3/../../../../pic32mx/lib\libpic32.a(default-simple-tlb-refill-exception-handler.o)
 .debug_line    0x00023b33       0x82 c:/program files (x86)/microchip/xc32/v1.42/bin/bin/../../lib/gcc/pic32mx/4.8.3/../../../../pic32mx/lib\libc.a(fclose.o)
 .debug_line    0x00023bb5       0x82 c:/program files (x86)/microchip/xc32/v1.42/bin/bin/../../lib/gcc/pic32mx/4.8.3/../../../../pic32mx/lib\libc.a(fflush.o)
 .debug_line    0x00023c37       0x81 c:/program files (x86)/microchip/xc32/v1.42/bin/bin/../../lib/gcc/pic32mx/4.8.3/../../../../pic32mx/lib\libc.a(fopen.o)
 .debug_line    0x00023cb8       0x81 c:/program files (x86)/microchip/xc32/v1.42/bin/bin/../../lib/gcc/pic32mx/4.8.3/../../../../pic32mx/lib\libc.a(fread.o)
 .debug_line    0x00023d39       0x83 c:/program files (x86)/microchip/xc32/v1.42/bin/bin/../../lib/gcc/pic32mx/4.8.3/../../../../pic32mx/lib\libc.a(freopen.o)
 .debug_line    0x00023dbc       0x81 c:/program files (x86)/microchip/xc32/v1.42/bin/bin/../../lib/gcc/pic32mx/4.8.3/../../../../pic32mx/lib\libc.a(fseek.o)
 .debug_line    0x00023e3d       0x82 c:/program files (x86)/microchip/xc32/v1.42/bin/bin/../../lib/gcc/pic32mx/4.8.3/../../../../pic32mx/lib\libc.a(fwrite.o)
 .debug_line    0x00023ebf       0x7f c:/program files (x86)/microchip/xc32/v1.42/bin/bin/../../lib/gcc/pic32mx/4.8.3/../../../../pic32mx/lib\libc.a(buf.o)
 .debug_line    0x00023f3e       0x82 c:/program files (x86)/microchip/xc32/v1.42/bin/bin/../../lib/gcc/pic32mx/4.8.3/../../../../pic32mx/lib\libc.a(calloc.o)
 .debug_line    0x00023fc0        0x0 c:/program files (x86)/microchip/xc32/v1.42/bin/bin/../../lib/gcc/pic32mx/4.8.3/../../../../pic32mx/lib\libc.a(errno.o)
 .debug_line    0x00023fc0       0x82 c:/program files (x86)/microchip/xc32/v1.42/bin/bin/../../lib/gcc/pic32mx/4.8.3/../../../../pic32mx/lib\libc.a(malloc.o)
 .debug_line    0x00024042        0x0 c:/program files (x86)/microchip/xc32/v1.42/bin/bin/../../lib/gcc/pic32mx/4.8.3/../../../../pic32mx/lib\libc.a(tfiles.o)
 .debug_line    0x00024042        0x0 c:/program files (x86)/microchip/xc32/v1.42/bin/bin/../../lib/gcc/pic32mx/4.8.3/../../../../pic32mx/lib\libc.a(_iob.o)
 .debug_line    0x00024042       0x81 c:/program files (x86)/microchip/xc32/v1.42/bin/bin/../../lib/gcc/pic32mx/4.8.3/../../../../pic32mx/lib\libc.a(fgetc.o)
 .debug_line    0x000240c3       0x81 c:/program files (x86)/microchip/xc32/v1.42/bin/bin/../../lib/gcc/pic32mx/4.8.3/../../../../pic32mx/lib\libc.a(_fputc_simple.o)
 .debug_line    0x00024144       0x82 c:/program files (x86)/microchip/xc32/v1.42/bin/bin/../../lib/gcc/pic32mx/4.8.3/../../../../pic32mx/lib\libc.a(filbuf.o)
 .debug_line    0x000241c6       0x82 c:/program files (x86)/microchip/xc32/v1.42/bin/bin/../../lib/gcc/pic32mx/4.8.3/../../../../pic32mx/lib\libc.a(_flsbuf_simple.o)
 .debug_line    0x00024248       0x8a c:/program files (x86)/microchip/xc32/v1.42/bin/bin/../../lib/gcc/pic32mx/4.8.3/../../../../pic32mx/lib\libpic32.a(sbrk.o)
 .debug_line    0x000242d2       0x8a c:/program files (x86)/microchip/xc32/v1.42/bin/bin/../../lib/gcc/pic32mx/4.8.3/../../../../pic32mx/lib\libpic32.a(read.o)
 .debug_line    0x0002435c       0x8b c:/program files (x86)/microchip/xc32/v1.42/bin/bin/../../lib/gcc/pic32mx/4.8.3/../../../../pic32mx/lib\libpic32.a(write.o)
 .debug_line    0x000243e7       0x8b c:/program files (x86)/microchip/xc32/v1.42/bin/bin/../../lib/gcc/pic32mx/4.8.3/../../../../pic32mx/lib\libpic32.a(lseek.o)
 .debug_line    0x00024472       0x8c c:/program files (x86)/microchip/xc32/v1.42/bin/bin/../../lib/gcc/pic32mx/4.8.3/../../../../pic32mx/lib\libpic32.a(remove.o)
 .debug_line    0x000244fe       0x8b c:/program files (x86)/microchip/xc32/v1.42/bin/bin/../../lib/gcc/pic32mx/4.8.3/../../../../pic32mx/lib\libpic32.a(close.o)
 .debug_line    0x00024589       0x8a c:/program files (x86)/microchip/xc32/v1.42/bin/bin/../../lib/gcc/pic32mx/4.8.3/../../../../pic32mx/lib\libpic32.a(open.o)
 .debug_line    0x00024613        0x0 c:/program files (x86)/microchip/xc32/v1.42/bin/bin/../../lib/gcc/pic32mx/4.8.3/../../../../pic32mx/lib\libpic32.a(xc32_uart.o)
 .debug_line    0x00024613       0x8f c:/program files (x86)/microchip/xc32/v1.42/bin/bin/../../lib/gcc/pic32mx/4.8.3/../../../../pic32mx/lib\libpic32.a(_mon_putc.o)

.debug_frame    0x00000000     0x99e0
 *(.debug_frame)
 .debug_frame   0x00000000       0x60 build/pic32mz_ef_sk_meb2/production/_ext/1360937237/app.o
 .debug_frame   0x00000060       0x28 build/pic32mz_ef_sk_meb2/production/_ext/1360937237/main.o
 .debug_frame   0x00000088       0x40 build/pic32mz_ef_sk_meb2/production/_ext/1360937237/ov2640.o
 .debug_frame   0x000000c8       0x80 build/pic32mz_ef_sk_meb2/production/_ext/1360937237/i2c_master_noint.o
 .debug_frame   0x00000148       0xd8 build/pic32mz_ef_sk_meb2/production/_ext/1360937237/i2c_bitbanging.o
 .debug_frame   0x00000220       0x2c build/pic32mz_ef_sk_meb2/production/_ext/426253641/jidctint.o
 .debug_frame   0x0000024c       0x28 build/pic32mz_ef_sk_meb2/production/_ext/1597685232/gfxu_image.o
 .debug_frame   0x00000274       0x64 build/pic32mz_ef_sk_meb2/production/_ext/1597685232/gfxu_image_png_external.o
 .debug_frame   0x000002d8       0x34 build/pic32mz_ef_sk_meb2/production/_ext/1597685232/gfxu_image_png_internal.o
 .debug_frame   0x0000030c      0x138 build/pic32mz_ef_sk_meb2/production/_ext/1597685232/gfxu_image_jpg_internal.o
 .debug_frame   0x00000444      0xdec build/pic32mz_ef_sk_meb2/production/_ext/493934858/lodepng.o
 .debug_frame   0x00001230       0x74 build/pic32mz_ef_sk_meb2/production/_ext/1597685232/gfxu_image_raw_external.o
 .debug_frame   0x000012a4       0x30 build/pic32mz_ef_sk_meb2/production/_ext/1597685232/gfxu_image_raw_internal.o
 .debug_frame   0x000012d4       0x90 build/pic32mz_ef_sk_meb2/production/_ext/1597685232/gfxu_image_rle_external.o
 .debug_frame   0x00001364       0x3c build/pic32mz_ef_sk_meb2/production/_ext/1597685232/gfxu_image_rle_internal.o
 .debug_frame   0x000013a0      0x10c build/pic32mz_ef_sk_meb2/production/_ext/1597685232/gfxu_image_utils.o
 .debug_frame   0x000014ac       0x20 build/pic32mz_ef_sk_meb2/production/_ext/1597685232/gfxu_palette.o
 .debug_frame   0x000014cc       0x58 build/pic32mz_ef_sk_meb2/production/_ext/1597685232/gfxu_string.o
 .debug_frame   0x00001524       0x94 build/pic32mz_ef_sk_meb2/production/_ext/1597685232/gfxu_string_external.o
 .debug_frame   0x000015b8       0x64 build/pic32mz_ef_sk_meb2/production/_ext/1597685232/gfxu_string_internal.o
 .debug_frame   0x0000161c      0x188 build/pic32mz_ef_sk_meb2/production/_ext/1597685232/gfxu_string_query.o
 .debug_frame   0x000017a4      0x1a8 build/pic32mz_ef_sk_meb2/production/_ext/1597685232/gfxu_string_utils.o
 .debug_frame   0x0000194c       0x58 build/pic32mz_ef_sk_meb2/production/_ext/1907747181/libaria.o
 .debug_frame   0x000019a4      0x260 build/pic32mz_ef_sk_meb2/production/_ext/1907747181/libaria_context.o
 .debug_frame   0x00001c04       0x48 build/pic32mz_ef_sk_meb2/production/_ext/1907747181/libaria_context_paint.o
 .debug_frame   0x00001c4c       0x8c build/pic32mz_ef_sk_meb2/production/_ext/1907747181/libaria_draw.o
 .debug_frame   0x00001cd8      0x15c build/pic32mz_ef_sk_meb2/production/_ext/1907747181/libaria_editwidget.o
 .debug_frame   0x00001e34       0x90 build/pic32mz_ef_sk_meb2/production/_ext/1907747181/libaria_event.o
 .debug_frame   0x00001ec4      0x104 build/pic32mz_ef_sk_meb2/production/_ext/1907747181/libaria_input.o
 .debug_frame   0x00001fc8      0x17c build/pic32mz_ef_sk_meb2/production/_ext/1907747181/libaria_layer.o
 .debug_frame   0x00002144      0x150 build/pic32mz_ef_sk_meb2/production/_ext/1907747181/libaria_list.o
 .debug_frame   0x00002294       0x34 build/pic32mz_ef_sk_meb2/production/_ext/1907747181/libaria_scheme.o
 .debug_frame   0x000022c8      0x134 build/pic32mz_ef_sk_meb2/production/_ext/1907747181/libaria_screen.o
 .debug_frame   0x000023fc      0x328 build/pic32mz_ef_sk_meb2/production/_ext/1907747181/libaria_string.o
 .debug_frame   0x00002724      0x1c8 build/pic32mz_ef_sk_meb2/production/_ext/1907747181/libaria_utils.o
 .debug_frame   0x000028ec      0x614 build/pic32mz_ef_sk_meb2/production/_ext/1907747181/libaria_widget.o
 .debug_frame   0x00002f00       0x58 build/pic32mz_ef_sk_meb2/production/_ext/1907747181/libaria_widget_skin_classic.o
 .debug_frame   0x00002f58      0x298 build/pic32mz_ef_sk_meb2/production/_ext/1907747181/libaria_widget_button.o
 .debug_frame   0x000031f0       0xc8 build/pic32mz_ef_sk_meb2/production/_ext/1907747181/libaria_widget_button_skin_classic.o
 .debug_frame   0x000032b8      0x240 build/pic32mz_ef_sk_meb2/production/_ext/1907747181/libaria_widget_checkbox.o
 .debug_frame   0x000034f8       0xe4 build/pic32mz_ef_sk_meb2/production/_ext/1907747181/libaria_widget_checkbox_skin_classic.o
 .debug_frame   0x000035dc       0xb4 build/pic32mz_ef_sk_meb2/production/_ext/1907747181/libaria_widget_circle.o
 .debug_frame   0x00003690       0x70 build/pic32mz_ef_sk_meb2/production/_ext/1907747181/libaria_widget_circle_skin_classic.o
 .debug_frame   0x00003700       0x88 build/pic32mz_ef_sk_meb2/production/_ext/1907747181/libaria_widget_drawsurface.o
 .debug_frame   0x00003788       0x70 build/pic32mz_ef_sk_meb2/production/_ext/1907747181/libaria_widget_drawsurface_skin_classic.o
 .debug_frame   0x000037f8       0x8c build/pic32mz_ef_sk_meb2/production/_ext/1907747181/libaria_widget_gradient.o
 .debug_frame   0x00003884       0x5c build/pic32mz_ef_sk_meb2/production/_ext/1907747181/libaria_widget_gradient_skin_classic.o
 .debug_frame   0x000038e0       0xc0 build/pic32mz_ef_sk_meb2/production/_ext/1907747181/libaria_widget_groupbox.o
 .debug_frame   0x000039a0       0xb0 build/pic32mz_ef_sk_meb2/production/_ext/1907747181/libaria_widget_groupbox_skin_classic.o
 .debug_frame   0x00003a50       0xdc build/pic32mz_ef_sk_meb2/production/_ext/1907747181/libaria_widget_image.o
 .debug_frame   0x00003b2c       0x98 build/pic32mz_ef_sk_meb2/production/_ext/1907747181/libaria_widget_image_skin_classic.o
 .debug_frame   0x00003bc4      0x228 build/pic32mz_ef_sk_meb2/production/_ext/1907747181/libaria_widget_imagesequence.o
 .debug_frame   0x00003dec       0x94 build/pic32mz_ef_sk_meb2/production/_ext/1907747181/libaria_widget_imagesequence_skin_classic.o
 .debug_frame   0x00003e80      0x328 build/pic32mz_ef_sk_meb2/production/_ext/1907747181/libaria_widget_keypad.o
 .debug_frame   0x000041a8       0x5c build/pic32mz_ef_sk_meb2/production/_ext/1907747181/libaria_widget_keypad_skin_classic.o
 .debug_frame   0x00004204       0xe8 build/pic32mz_ef_sk_meb2/production/_ext/1907747181/libaria_widget_label.o
 .debug_frame   0x000042ec       0x8c build/pic32mz_ef_sk_meb2/production/_ext/1907747181/libaria_widget_label_skin_classic.o
 .debug_frame   0x00004378       0xa8 build/pic32mz_ef_sk_meb2/production/_ext/1907747181/libaria_widget_line.o
 .debug_frame   0x00004420       0x70 build/pic32mz_ef_sk_meb2/production/_ext/1907747181/libaria_widget_line_skin_classic.o
 .debug_frame   0x00004490      0x4a0 build/pic32mz_ef_sk_meb2/production/_ext/1907747181/libaria_widget_list.o
 .debug_frame   0x00004930       0xdc build/pic32mz_ef_sk_meb2/production/_ext/1907747181/libaria_widget_list_skin_classic.o
 .debug_frame   0x00004a0c      0x2a4 build/pic32mz_ef_sk_meb2/production/_ext/1907747181/libaria_widget_listwheel.o
 .debug_frame   0x00004cb0       0xe0 build/pic32mz_ef_sk_meb2/production/_ext/1907747181/libaria_widget_listwheel_skin_classic.o
 .debug_frame   0x00004d90       0xd4 build/pic32mz_ef_sk_meb2/production/_ext/1907747181/libaria_widget_progressbar.o
 .debug_frame   0x00004e64       0x78 build/pic32mz_ef_sk_meb2/production/_ext/1907747181/libaria_widget_progressbar_skin_classic.o
 .debug_frame   0x00004edc      0x294 build/pic32mz_ef_sk_meb2/production/_ext/1907747181/libaria_widget_radiobutton.o
 .debug_frame   0x00005170       0xec build/pic32mz_ef_sk_meb2/production/_ext/1907747181/libaria_widget_radiobutton_skin_classic.o
 .debug_frame   0x0000525c       0x98 build/pic32mz_ef_sk_meb2/production/_ext/1907747181/libaria_radiobutton_group.o
 .debug_frame   0x000052f4       0x8c build/pic32mz_ef_sk_meb2/production/_ext/1907747181/libaria_widget_rectangle.o
 .debug_frame   0x00005380       0x70 build/pic32mz_ef_sk_meb2/production/_ext/1907747181/libaria_widget_rectangle_skin_classic.o
 .debug_frame   0x000053f0      0x2b0 build/pic32mz_ef_sk_meb2/production/_ext/1907747181/libaria_widget_scrollbar.o
 .debug_frame   0x000056a0       0x98 build/pic32mz_ef_sk_meb2/production/_ext/1907747181/libaria_widget_scrollbar_skin_classic.o
 .debug_frame   0x00005738      0x258 build/pic32mz_ef_sk_meb2/production/_ext/1907747181/libaria_widget_slider.o
 .debug_frame   0x00005990       0x70 build/pic32mz_ef_sk_meb2/production/_ext/1907747181/libaria_widget_slider_skin_classic.o
 .debug_frame   0x00005a00      0x290 build/pic32mz_ef_sk_meb2/production/_ext/1907747181/libaria_widget_textfield.o
 .debug_frame   0x00005c90       0xa8 build/pic32mz_ef_sk_meb2/production/_ext/1907747181/libaria_widget_textfield_skin_classic.o
 .debug_frame   0x00005d38       0xfc build/pic32mz_ef_sk_meb2/production/_ext/1907747181/libaria_widget_touchtest.o
 .debug_frame   0x00005e34       0x80 build/pic32mz_ef_sk_meb2/production/_ext/1907747181/libaria_widget_touchtest_skin_classic.o
 .debug_frame   0x00005eb4       0xf4 build/pic32mz_ef_sk_meb2/production/_ext/1907747181/libaria_widget_window.o
 .debug_frame   0x00005fa8       0xe0 build/pic32mz_ef_sk_meb2/production/_ext/1907747181/libaria_widget_window_skin_classic.o
 .debug_frame   0x00006088      0x1c4 build/pic32mz_ef_sk_meb2/production/_ext/1847583374/gfx.o
 .debug_frame   0x0000624c       0x60 build/pic32mz_ef_sk_meb2/production/_ext/1847583374/gfx_color.o
 .debug_frame   0x000062ac       0x40 build/pic32mz_ef_sk_meb2/production/_ext/1847583374/gfx_context.o
 .debug_frame   0x000062ec      0x814 build/pic32mz_ef_sk_meb2/production/_ext/1847583374/gfx_default_impl.o
 .debug_frame   0x00006b00       0x20 build/pic32mz_ef_sk_meb2/production/_ext/1847583374/gfx_display.o
 .debug_frame   0x00006b20       0x48 build/pic32mz_ef_sk_meb2/production/_ext/1847583374/gfx_driver_interface.o
 .debug_frame   0x00006b68      0x3dc build/pic32mz_ef_sk_meb2/production/_ext/1847583374/gfx_get.o
 .debug_frame   0x00006f44       0x68 build/pic32mz_ef_sk_meb2/production/_ext/1847583374/gfx_layer.o
 .debug_frame   0x00006fac      0x250 build/pic32mz_ef_sk_meb2/production/_ext/1847583374/gfx_pixel_buffer.o
 .debug_frame   0x000071fc       0x50 build/pic32mz_ef_sk_meb2/production/_ext/1847583374/gfx_rect.o
 .debug_frame   0x0000724c       0xa8 build/pic32mz_ef_sk_meb2/production/_ext/1847583374/gfx_util.o
 .debug_frame   0x000072f4      0x368 build/pic32mz_ef_sk_meb2/production/_ext/1847583374/gfx_set.o
 .debug_frame   0x0000765c       0xe0 build/pic32mz_ef_sk_meb2/production/_ext/1847583374/gfx_color_blend.o
 .debug_frame   0x0000773c      0x464 build/pic32mz_ef_sk_meb2/production/_ext/1847583374/gfx_color_convert.o
 .debug_frame   0x00007ba0      0x10c build/pic32mz_ef_sk_meb2/production/_ext/1847583374/gfx_color_lerp.o
 .debug_frame   0x00007cac       0x2c build/pic32mz_ef_sk_meb2/production/_ext/1847583374/gfx_color_value.o
 .debug_frame   0x00007cd8       0x3c build/pic32mz_ef_sk_meb2/production/_ext/1847583374/gfx_draw_blit.o
 .debug_frame   0x00007d14       0x34 build/pic32mz_ef_sk_meb2/production/_ext/1847583374/gfx_draw_circle.o
 .debug_frame   0x00007d48       0xd0 build/pic32mz_ef_sk_meb2/production/_ext/1847583374/gfx_draw_line.o
 .debug_frame   0x00007e18       0x4c build/pic32mz_ef_sk_meb2/production/_ext/1847583374/gfx_draw_pixel.o
 .debug_frame   0x00007e64       0xe0 build/pic32mz_ef_sk_meb2/production/_ext/1847583374/gfx_draw_rect.o
 .debug_frame   0x00007f44      0x108 build/pic32mz_ef_sk_meb2/production/_ext/1847583374/gfx_math.o
 .debug_frame   0x0000804c      0x1e4 build/pic32mz_ef_sk_meb2/production/_ext/853959373/sys_dma.o
 .debug_frame   0x00008230       0x90 build/pic32mz_ef_sk_meb2/production/_ext/1042686532/sys_int_pic32.o
 .debug_frame   0x000082c0      0x360 build/pic32mz_ef_sk_meb2/production/_ext/199634090/drv_tmr_static.o
 .debug_frame   0x00008620      0x258 build/pic32mz_ef_sk_meb2/production/_ext/199634090/drv_tmr_mapping.o
 .debug_frame   0x00008878      0x138 build/pic32mz_ef_sk_meb2/production/_ext/713288229/drv_gfx_lcc_generic.o
 .debug_frame   0x000089b0       0x40 build/pic32mz_ef_sk_meb2/production/_ext/1740298103/libaria_harmony.o
 .debug_frame   0x000089f0       0x44 build/pic32mz_ef_sk_meb2/production/_ext/1740298103/libaria_init.o
 .debug_frame   0x00008a34       0x20 build/pic32mz_ef_sk_meb2/production/_ext/477038478/gfx_driver_def.o
 .debug_frame   0x00008a54      0x148 build/pic32mz_ef_sk_meb2/production/_ext/1847413222/sys_clk.o
 .debug_frame   0x00008b9c      0x140 build/pic32mz_ef_sk_meb2/production/_ext/1847413222/sys_clk_pic32mz.o
 .debug_frame   0x00008cdc       0xe8 build/pic32mz_ef_sk_meb2/production/_ext/924081491/sys_devcon.o
 .debug_frame   0x00008dc4      0x220 build/pic32mz_ef_sk_meb2/production/_ext/924081491/sys_devcon_pic32mz.o
 .debug_frame   0x00008fe4      0x1f8 build/pic32mz_ef_sk_meb2/production/_ext/50030870/sys_ports_static.o
 .debug_frame   0x000091dc       0xb8 build/pic32mz_ef_sk_meb2/production/_ext/1465531745/bsp.o
 .debug_frame   0x00009294       0x28 build/pic32mz_ef_sk_meb2/production/_ext/1951523377/system_init.o
 .debug_frame   0x000092bc      0x160 build/pic32mz_ef_sk_meb2/production/_ext/1951523377/system_interrupt.o
 .debug_frame   0x0000941c       0x28 build/pic32mz_ef_sk_meb2/production/_ext/1951523377/system_exceptions.o
 .debug_frame   0x00009444       0x28 build/pic32mz_ef_sk_meb2/production/_ext/1951523377/system_tasks.o
 .debug_frame   0x0000946c       0x28 c:/program files (x86)/microchip/xc32/v1.42/bin/bin/../../lib/gcc/pic32mx/4.8.3\libgcc.a(floatunsisf.o)
 .debug_frame   0x00009494       0x2c c:/program files (x86)/microchip/xc32/v1.42/bin/bin/../../lib/gcc/pic32mx/4.8.3/../../../../pic32mx/lib\libpic32.a(default-bootstrap-exception-handler.o)
 .debug_frame   0x000094c0       0x20 c:/program files (x86)/microchip/xc32/v1.42/bin/bin/../../lib/gcc/pic32mx/4.8.3/../../../../pic32mx/lib\libpic32.a(default-on-reset.o)
 .debug_frame   0x000094e0       0x20 c:/program files (x86)/microchip/xc32/v1.42/bin/bin/../../lib/gcc/pic32mx/4.8.3/../../../../pic32mx/lib\libpic32.a(default-on-bootstrap.o)
 .debug_frame   0x00009500       0x20 c:/program files (x86)/microchip/xc32/v1.42/bin/bin/../../lib/gcc/pic32mx/4.8.3/../../../../pic32mx/lib\libpic32.a(defaultinterrupt.o)
 .debug_frame   0x00009520       0x2c c:/program files (x86)/microchip/xc32/v1.42/bin/bin/../../lib/gcc/pic32mx/4.8.3/../../../../pic32mx/lib\libpic32.a(default-cache-err-exception-handler.o)
 .debug_frame   0x0000954c       0x2c c:/program files (x86)/microchip/xc32/v1.42/bin/bin/../../lib/gcc/pic32mx/4.8.3/../../../../pic32mx/lib\libpic32.a(default-simple-tlb-refill-exception-handler.o)
 .debug_frame   0x00009578       0x2c c:/program files (x86)/microchip/xc32/v1.42/bin/bin/../../lib/gcc/pic32mx/4.8.3/../../../../pic32mx/lib\libc.a(fclose.o)
 .debug_frame   0x000095a4       0x28 c:/program files (x86)/microchip/xc32/v1.42/bin/bin/../../lib/gcc/pic32mx/4.8.3/../../../../pic32mx/lib\libc.a(fflush.o)
 .debug_frame   0x000095cc       0x28 c:/program files (x86)/microchip/xc32/v1.42/bin/bin/../../lib/gcc/pic32mx/4.8.3/../../../../pic32mx/lib\libc.a(fopen.o)
 .debug_frame   0x000095f4       0x34 c:/program files (x86)/microchip/xc32/v1.42/bin/bin/../../lib/gcc/pic32mx/4.8.3/../../../../pic32mx/lib\libc.a(fread.o)
 .debug_frame   0x00009628       0x30 c:/program files (x86)/microchip/xc32/v1.42/bin/bin/../../lib/gcc/pic32mx/4.8.3/../../../../pic32mx/lib\libc.a(freopen.o)
 .debug_frame   0x00009658       0x48 c:/program files (x86)/microchip/xc32/v1.42/bin/bin/../../lib/gcc/pic32mx/4.8.3/../../../../pic32mx/lib\libc.a(fseek.o)
 .debug_frame   0x000096a0       0x38 c:/program files (x86)/microchip/xc32/v1.42/bin/bin/../../lib/gcc/pic32mx/4.8.3/../../../../pic32mx/lib\libc.a(fwrite.o)
 .debug_frame   0x000096d8       0x38 c:/program files (x86)/microchip/xc32/v1.42/bin/bin/../../lib/gcc/pic32mx/4.8.3/../../../../pic32mx/lib\libc.a(buf.o)
 .debug_frame   0x00009710       0x28 c:/program files (x86)/microchip/xc32/v1.42/bin/bin/../../lib/gcc/pic32mx/4.8.3/../../../../pic32mx/lib\libc.a(calloc.o)
 .debug_frame   0x00009738       0x68 c:/program files (x86)/microchip/xc32/v1.42/bin/bin/../../lib/gcc/pic32mx/4.8.3/../../../../pic32mx/lib\libc.a(malloc.o)
 .debug_frame   0x000097a0       0x2c c:/program files (x86)/microchip/xc32/v1.42/bin/bin/../../lib/gcc/pic32mx/4.8.3/../../../../pic32mx/lib\libc.a(fgetc.o)
 .debug_frame   0x000097cc       0x2c c:/program files (x86)/microchip/xc32/v1.42/bin/bin/../../lib/gcc/pic32mx/4.8.3/../../../../pic32mx/lib\libc.a(_fputc_simple.o)
 .debug_frame   0x000097f8       0x30 c:/program files (x86)/microchip/xc32/v1.42/bin/bin/../../lib/gcc/pic32mx/4.8.3/../../../../pic32mx/lib\libc.a(filbuf.o)
 .debug_frame   0x00009828       0x28 c:/program files (x86)/microchip/xc32/v1.42/bin/bin/../../lib/gcc/pic32mx/4.8.3/../../../../pic32mx/lib\libc.a(_flsbuf_simple.o)
 .debug_frame   0x00009850       0x84 c:/program files (x86)/microchip/xc32/v1.42/bin/bin/../../lib/gcc/pic32mx/4.8.3/../../../../pic32mx/lib\libpic32.a(sbrk.o)
 .debug_frame   0x000098d4       0x2c c:/program files (x86)/microchip/xc32/v1.42/bin/bin/../../lib/gcc/pic32mx/4.8.3/../../../../pic32mx/lib\libpic32.a(read.o)
 .debug_frame   0x00009900       0x38 c:/program files (x86)/microchip/xc32/v1.42/bin/bin/../../lib/gcc/pic32mx/4.8.3/../../../../pic32mx/lib\libpic32.a(write.o)
 .debug_frame   0x00009938       0x20 c:/program files (x86)/microchip/xc32/v1.42/bin/bin/../../lib/gcc/pic32mx/4.8.3/../../../../pic32mx/lib\libpic32.a(lseek.o)
 .debug_frame   0x00009958       0x20 c:/program files (x86)/microchip/xc32/v1.42/bin/bin/../../lib/gcc/pic32mx/4.8.3/../../../../pic32mx/lib\libpic32.a(remove.o)
 .debug_frame   0x00009978       0x20 c:/program files (x86)/microchip/xc32/v1.42/bin/bin/../../lib/gcc/pic32mx/4.8.3/../../../../pic32mx/lib\libpic32.a(close.o)
 .debug_frame   0x00009998       0x20 c:/program files (x86)/microchip/xc32/v1.42/bin/bin/../../lib/gcc/pic32mx/4.8.3/../../../../pic32mx/lib\libpic32.a(open.o)
 .debug_frame   0x000099b8       0x28 c:/program files (x86)/microchip/xc32/v1.42/bin/bin/../../lib/gcc/pic32mx/4.8.3/../../../../pic32mx/lib\libpic32.a(_mon_putc.o)

.debug_str      0x00000000     0x29b8
 *(.debug_str)
 .debug_str     0x00000000       0x20 build/pic32mz_ef_sk_meb2/production/_ext/1360937237/app.o
 .debug_str     0x00000020        0x0 build/pic32mz_ef_sk_meb2/production/_ext/1360937237/main.o
 .debug_str     0x00000020       0x15 build/pic32mz_ef_sk_meb2/production/_ext/1360937237/ov2640.o
 .debug_str     0x00000035       0x15 build/pic32mz_ef_sk_meb2/production/_ext/1360937237/i2c_master_noint.o
 .debug_str     0x0000004a       0x15 build/pic32mz_ef_sk_meb2/production/_ext/1360937237/i2c_bitbanging.o
 .debug_str     0x0000005f        0x0 build/pic32mz_ef_sk_meb2/production/_ext/426253641/jidctint.o
 .debug_str     0x0000005f        0x0 build/pic32mz_ef_sk_meb2/production/_ext/1597685232/gfxu_image.o
 .debug_str     0x0000005f       0x1b build/pic32mz_ef_sk_meb2/production/_ext/1597685232/gfxu_image_png_external.o
 .debug_str     0x0000007a       0x22 build/pic32mz_ef_sk_meb2/production/_ext/1597685232/gfxu_image_png_internal.o
 .debug_str     0x0000009c       0x93 build/pic32mz_ef_sk_meb2/production/_ext/1597685232/gfxu_image_jpg_internal.o
 .debug_str     0x0000012f      0x496 build/pic32mz_ef_sk_meb2/production/_ext/493934858/lodepng.o
 .debug_str     0x000005c5       0x1b build/pic32mz_ef_sk_meb2/production/_ext/1597685232/gfxu_image_raw_external.o
 .debug_str     0x000005e0       0x3e build/pic32mz_ef_sk_meb2/production/_ext/1597685232/gfxu_image_raw_internal.o
 .debug_str     0x0000061e       0x1b build/pic32mz_ef_sk_meb2/production/_ext/1597685232/gfxu_image_rle_external.o
 .debug_str     0x00000639       0x5e build/pic32mz_ef_sk_meb2/production/_ext/1597685232/gfxu_image_rle_internal.o
 .debug_str     0x00000697        0x6 build/pic32mz_ef_sk_meb2/production/_ext/1597685232/gfxu_image_utils.o
 .debug_str     0x0000069d        0x0 build/pic32mz_ef_sk_meb2/production/_ext/1597685232/gfxu_palette.o
 .debug_str     0x0000069d       0x22 build/pic32mz_ef_sk_meb2/production/_ext/1597685232/gfxu_string.o
 .debug_str     0x000006bf       0x23 build/pic32mz_ef_sk_meb2/production/_ext/1597685232/gfxu_string_external.o
 .debug_str     0x000006e2       0x12 build/pic32mz_ef_sk_meb2/production/_ext/1597685232/gfxu_string_internal.o
 .debug_str     0x000006f4       0x52 build/pic32mz_ef_sk_meb2/production/_ext/1597685232/gfxu_string_query.o
 .debug_str     0x00000746       0x88 build/pic32mz_ef_sk_meb2/production/_ext/1597685232/gfxu_string_utils.o
 .debug_str     0x000007ce       0x32 build/pic32mz_ef_sk_meb2/production/_ext/1907747181/libaria.o
 .debug_str     0x00000800       0x78 build/pic32mz_ef_sk_meb2/production/_ext/1907747181/libaria_context.o
 .debug_str     0x00000878       0x52 build/pic32mz_ef_sk_meb2/production/_ext/1907747181/libaria_context_paint.o
 .debug_str     0x000008ca       0x3e build/pic32mz_ef_sk_meb2/production/_ext/1907747181/libaria_draw.o
 .debug_str     0x00000908       0x33 build/pic32mz_ef_sk_meb2/production/_ext/1907747181/libaria_editwidget.o
 .debug_str     0x0000093b       0x3a build/pic32mz_ef_sk_meb2/production/_ext/1907747181/libaria_event.o
 .debug_str     0x00000975       0x3a build/pic32mz_ef_sk_meb2/production/_ext/1907747181/libaria_input.o
 .debug_str     0x000009af       0x46 build/pic32mz_ef_sk_meb2/production/_ext/1907747181/libaria_layer.o
 .debug_str     0x000009f5       0x3d build/pic32mz_ef_sk_meb2/production/_ext/1907747181/libaria_list.o
 .debug_str     0x00000a32        0x0 build/pic32mz_ef_sk_meb2/production/_ext/1907747181/libaria_scheme.o
 .debug_str     0x00000a32       0x3d build/pic32mz_ef_sk_meb2/production/_ext/1907747181/libaria_screen.o
 .debug_str     0x00000a6f       0x4c build/pic32mz_ef_sk_meb2/production/_ext/1907747181/libaria_string.o
 .debug_str     0x00000abb       0xce build/pic32mz_ef_sk_meb2/production/_ext/1907747181/libaria_utils.o
 .debug_str     0x00000b89       0x70 build/pic32mz_ef_sk_meb2/production/_ext/1907747181/libaria_widget.o
 .debug_str     0x00000bf9       0x41 build/pic32mz_ef_sk_meb2/production/_ext/1907747181/libaria_widget_skin_classic.o
 .debug_str     0x00000c3a       0x7d build/pic32mz_ef_sk_meb2/production/_ext/1907747181/libaria_widget_button.o
 .debug_str     0x00000cb7       0x75 build/pic32mz_ef_sk_meb2/production/_ext/1907747181/libaria_widget_button_skin_classic.o
 .debug_str     0x00000d2c       0x62 build/pic32mz_ef_sk_meb2/production/_ext/1907747181/libaria_widget_checkbox.o
 .debug_str     0x00000d8e       0x86 build/pic32mz_ef_sk_meb2/production/_ext/1907747181/libaria_widget_checkbox_skin_classic.o
 .debug_str     0x00000e14       0x32 build/pic32mz_ef_sk_meb2/production/_ext/1907747181/libaria_widget_circle.o
 .debug_str     0x00000e46       0x41 build/pic32mz_ef_sk_meb2/production/_ext/1907747181/libaria_widget_circle_skin_classic.o
 .debug_str     0x00000e87       0x32 build/pic32mz_ef_sk_meb2/production/_ext/1907747181/libaria_widget_drawsurface.o
 .debug_str     0x00000eb9       0x41 build/pic32mz_ef_sk_meb2/production/_ext/1907747181/libaria_widget_drawsurface_skin_classic.o
 .debug_str     0x00000efa       0x32 build/pic32mz_ef_sk_meb2/production/_ext/1907747181/libaria_widget_gradient.o
 .debug_str     0x00000f2c       0x41 build/pic32mz_ef_sk_meb2/production/_ext/1907747181/libaria_widget_gradient_skin_classic.o
 .debug_str     0x00000f6d       0x32 build/pic32mz_ef_sk_meb2/production/_ext/1907747181/libaria_widget_groupbox.o
 .debug_str     0x00000f9f       0x5d build/pic32mz_ef_sk_meb2/production/_ext/1907747181/libaria_widget_groupbox_skin_classic.o
 .debug_str     0x00000ffc       0x4a build/pic32mz_ef_sk_meb2/production/_ext/1907747181/libaria_widget_image.o
 .debug_str     0x00001046       0x6c build/pic32mz_ef_sk_meb2/production/_ext/1907747181/libaria_widget_image_skin_classic.o
 .debug_str     0x000010b2       0x4a build/pic32mz_ef_sk_meb2/production/_ext/1907747181/libaria_widget_imagesequence.o
 .debug_str     0x000010fc       0x6c build/pic32mz_ef_sk_meb2/production/_ext/1907747181/libaria_widget_imagesequence_skin_classic.o
 .debug_str     0x00001168       0x73 build/pic32mz_ef_sk_meb2/production/_ext/1907747181/libaria_widget_keypad.o
 .debug_str     0x000011db       0x49 build/pic32mz_ef_sk_meb2/production/_ext/1907747181/libaria_widget_keypad_skin_classic.o
 .debug_str     0x00001224       0x32 build/pic32mz_ef_sk_meb2/production/_ext/1907747181/libaria_widget_label.o
 .debug_str     0x00001256       0x54 build/pic32mz_ef_sk_meb2/production/_ext/1907747181/libaria_widget_label_skin_classic.o
 .debug_str     0x000012aa       0x37 build/pic32mz_ef_sk_meb2/production/_ext/1907747181/libaria_widget_line.o
 .debug_str     0x000012e1       0x41 build/pic32mz_ef_sk_meb2/production/_ext/1907747181/libaria_widget_line_skin_classic.o
 .debug_str     0x00001322       0x8d build/pic32mz_ef_sk_meb2/production/_ext/1907747181/libaria_widget_list.o
 .debug_str     0x000013af       0x8e build/pic32mz_ef_sk_meb2/production/_ext/1907747181/libaria_widget_list_skin_classic.o
 .debug_str     0x0000143d       0x77 build/pic32mz_ef_sk_meb2/production/_ext/1907747181/libaria_widget_listwheel.o
 .debug_str     0x000014b4       0x87 build/pic32mz_ef_sk_meb2/production/_ext/1907747181/libaria_widget_listwheel_skin_classic.o
 .debug_str     0x0000153b       0x32 build/pic32mz_ef_sk_meb2/production/_ext/1907747181/libaria_widget_progressbar.o
 .debug_str     0x0000156d       0x41 build/pic32mz_ef_sk_meb2/production/_ext/1907747181/libaria_widget_progressbar_skin_classic.o
 .debug_str     0x000015ae       0x6e build/pic32mz_ef_sk_meb2/production/_ext/1907747181/libaria_widget_radiobutton.o
 .debug_str     0x0000161c       0x96 build/pic32mz_ef_sk_meb2/production/_ext/1907747181/libaria_widget_radiobutton_skin_classic.o
 .debug_str     0x000016b2       0x6e build/pic32mz_ef_sk_meb2/production/_ext/1907747181/libaria_radiobutton_group.o
 .debug_str     0x00001720       0x37 build/pic32mz_ef_sk_meb2/production/_ext/1907747181/libaria_widget_rectangle.o
 .debug_str     0x00001757       0x41 build/pic32mz_ef_sk_meb2/production/_ext/1907747181/libaria_widget_rectangle_skin_classic.o
 .debug_str     0x00001798       0x49 build/pic32mz_ef_sk_meb2/production/_ext/1907747181/libaria_widget_scrollbar.o
 .debug_str     0x000017e1       0x4d build/pic32mz_ef_sk_meb2/production/_ext/1907747181/libaria_widget_scrollbar_skin_classic.o
 .debug_str     0x0000182e       0x45 build/pic32mz_ef_sk_meb2/production/_ext/1907747181/libaria_widget_slider.o
 .debug_str     0x00001873       0x41 build/pic32mz_ef_sk_meb2/production/_ext/1907747181/libaria_widget_slider_skin_classic.o
 .debug_str     0x000018b4       0x55 build/pic32mz_ef_sk_meb2/production/_ext/1907747181/libaria_widget_textfield.o
 .debug_str     0x00001909       0x66 build/pic32mz_ef_sk_meb2/production/_ext/1907747181/libaria_widget_textfield_skin_classic.o
 .debug_str     0x0000196f       0x32 build/pic32mz_ef_sk_meb2/production/_ext/1907747181/libaria_widget_touchtest.o
 .debug_str     0x000019a1       0x41 build/pic32mz_ef_sk_meb2/production/_ext/1907747181/libaria_widget_touchtest_skin_classic.o
 .debug_str     0x000019e2       0x4a build/pic32mz_ef_sk_meb2/production/_ext/1907747181/libaria_widget_window.o
 .debug_str     0x00001a2c       0x92 build/pic32mz_ef_sk_meb2/production/_ext/1907747181/libaria_widget_window_skin_classic.o
 .debug_str     0x00001abe       0x63 build/pic32mz_ef_sk_meb2/production/_ext/1847583374/gfx.o
 .debug_str     0x00001b21        0x0 build/pic32mz_ef_sk_meb2/production/_ext/1847583374/gfx_color.o
 .debug_str     0x00001b21       0x46 build/pic32mz_ef_sk_meb2/production/_ext/1847583374/gfx_context.o
 .debug_str     0x00001b67       0xa7 build/pic32mz_ef_sk_meb2/production/_ext/1847583374/gfx_default_impl.o
 .debug_str     0x00001c0e       0x23 build/pic32mz_ef_sk_meb2/production/_ext/1847583374/gfx_display.o
 .debug_str     0x00001c31       0x54 build/pic32mz_ef_sk_meb2/production/_ext/1847583374/gfx_driver_interface.o
 .debug_str     0x00001c85       0x89 build/pic32mz_ef_sk_meb2/production/_ext/1847583374/gfx_get.o
 .debug_str     0x00001d0e        0x0 build/pic32mz_ef_sk_meb2/production/_ext/1847583374/gfx_interface.o
 .debug_str     0x00001d0e       0x53 build/pic32mz_ef_sk_meb2/production/_ext/1847583374/gfx_layer.o
 .debug_str     0x00001d61       0x69 build/pic32mz_ef_sk_meb2/production/_ext/1847583374/gfx_pixel_buffer.o
 .debug_str     0x00001dca        0xe build/pic32mz_ef_sk_meb2/production/_ext/1847583374/gfx_rect.o
 .debug_str     0x00001dd8       0x30 build/pic32mz_ef_sk_meb2/production/_ext/1847583374/gfx_util.o
 .debug_str     0x00001e08       0x7c build/pic32mz_ef_sk_meb2/production/_ext/1847583374/gfx_set.o
 .debug_str     0x00001e84        0x6 build/pic32mz_ef_sk_meb2/production/_ext/1847583374/gfx_color_blend.o
 .debug_str     0x00001e8a       0x5f build/pic32mz_ef_sk_meb2/production/_ext/1847583374/gfx_color_convert.o
 .debug_str     0x00001ee9       0x19 build/pic32mz_ef_sk_meb2/production/_ext/1847583374/gfx_color_lerp.o
 .debug_str     0x00001f02        0x0 build/pic32mz_ef_sk_meb2/production/_ext/1847583374/gfx_color_value.o
 .debug_str     0x00001f02       0x6c build/pic32mz_ef_sk_meb2/production/_ext/1847583374/gfx_draw_blit.o
 .debug_str     0x00001f6e       0x46 build/pic32mz_ef_sk_meb2/production/_ext/1847583374/gfx_draw_circle.o
 .debug_str     0x00001fb4       0x5e build/pic32mz_ef_sk_meb2/production/_ext/1847583374/gfx_draw_line.o
 .debug_str     0x00002012       0x46 build/pic32mz_ef_sk_meb2/production/_ext/1847583374/gfx_draw_pixel.o
 .debug_str     0x00002058       0x6b build/pic32mz_ef_sk_meb2/production/_ext/1847583374/gfx_draw_rect.o
 .debug_str     0x000020c3        0x0 build/pic32mz_ef_sk_meb2/production/_ext/1847583374/gfx_math.o
 .debug_str     0x000020c3      0x158 build/pic32mz_ef_sk_meb2/production/_ext/853959373/sys_dma.o
 .debug_str     0x0000221b       0x2d build/pic32mz_ef_sk_meb2/production/_ext/1042686532/sys_int_pic32.o
 .debug_str     0x00002248       0xbe build/pic32mz_ef_sk_meb2/production/_ext/199634090/drv_tmr_static.o
 .debug_str     0x00002306        0xe build/pic32mz_ef_sk_meb2/production/_ext/199634090/drv_tmr_mapping.o
 .debug_str     0x00002314      0x23a build/pic32mz_ef_sk_meb2/production/_ext/713288229/drv_gfx_lcc_generic.o
 .debug_str     0x0000254e       0x32 build/pic32mz_ef_sk_meb2/production/_ext/1740298103/libaria_harmony.o
 .debug_str     0x00002580       0x68 build/pic32mz_ef_sk_meb2/production/_ext/1740298103/libaria_init.o
 .debug_str     0x000025e8        0x0 build/pic32mz_ef_sk_meb2/production/_ext/1740298103/libaria_events.o
 .debug_str     0x000025e8        0x0 build/pic32mz_ef_sk_meb2/production/_ext/1740298103/libaria_macros.o
 .debug_str     0x000025e8       0x23 build/pic32mz_ef_sk_meb2/production/_ext/477038478/gfx_display_def.o
 .debug_str     0x0000260b       0x54 build/pic32mz_ef_sk_meb2/production/_ext/477038478/gfx_driver_def.o
 .debug_str     0x0000265f       0xd0 build/pic32mz_ef_sk_meb2/production/_ext/1847413222/sys_clk.o
 .debug_str     0x0000272f      0x14e build/pic32mz_ef_sk_meb2/production/_ext/1847413222/sys_clk_pic32mz.o
 .debug_str     0x0000287d       0x16 build/pic32mz_ef_sk_meb2/production/_ext/924081491/sys_devcon.o
 .debug_str     0x00002893       0x1a build/pic32mz_ef_sk_meb2/production/_ext/924081491/sys_devcon_pic32mz.o
 .debug_str     0x000028ad       0xa1 build/pic32mz_ef_sk_meb2/production/_ext/50030870/sys_ports_static.o
 .debug_str     0x0000294e       0x15 build/pic32mz_ef_sk_meb2/production/_ext/1465531745/bsp.o
 .debug_str     0x00002963       0x2b build/pic32mz_ef_sk_meb2/production/_ext/1951523377/system_init.o
 .debug_str     0x0000298e        0x0 build/pic32mz_ef_sk_meb2/production/_ext/1951523377/system_interrupt.o
 .debug_str     0x0000298e        0x0 build/pic32mz_ef_sk_meb2/production/_ext/1951523377/system_exceptions.o
 .debug_str     0x0000298e        0x0 build/pic32mz_ef_sk_meb2/production/_ext/1951523377/system_tasks.o
 .debug_str     0x0000298e       0x2a build/pic32mz_ef_sk_meb2/production/_ext/715821942/gfx_assets.o
 .debug_str     0x000029b8        0x0 c:/program files (x86)/microchip/xc32/v1.42/bin/bin/../../lib/gcc/pic32mx/4.8.3\libgcc.a(floatunsisf.o)
 .debug_str     0x000029b8        0x0 c:/program files (x86)/microchip/xc32/v1.42/bin/bin/../../lib/gcc/pic32mx/4.8.3/../../../../pic32mx/lib\libpic32.a(default-bootstrap-exception-handler.o)
 .debug_str     0x000029b8        0x0 c:/program files (x86)/microchip/xc32/v1.42/bin/bin/../../lib/gcc/pic32mx/4.8.3/../../../../pic32mx/lib\libpic32.a(default-on-reset.o)
 .debug_str     0x000029b8        0x0 c:/program files (x86)/microchip/xc32/v1.42/bin/bin/../../lib/gcc/pic32mx/4.8.3/../../../../pic32mx/lib\libpic32.a(default-on-bootstrap.o)
 .debug_str     0x000029b8        0x0 c:/program files (x86)/microchip/xc32/v1.42/bin/bin/../../lib/gcc/pic32mx/4.8.3/../../../../pic32mx/lib\libpic32.a(defaultinterrupt.o)
 .debug_str     0x000029b8        0x0 c:/program files (x86)/microchip/xc32/v1.42/bin/bin/../../lib/gcc/pic32mx/4.8.3/../../../../pic32mx/lib\libpic32.a(default-cache-err-exception-handler.o)
 .debug_str     0x000029b8        0x0 c:/program files (x86)/microchip/xc32/v1.42/bin/bin/../../lib/gcc/pic32mx/4.8.3/../../../../pic32mx/lib\libpic32.a(default-simple-tlb-refill-exception-handler.o)
 .debug_str     0x000029b8        0x0 c:/program files (x86)/microchip/xc32/v1.42/bin/bin/../../lib/gcc/pic32mx/4.8.3/../../../../pic32mx/lib\libc.a(fclose.o)
 .debug_str     0x000029b8        0x0 c:/program files (x86)/microchip/xc32/v1.42/bin/bin/../../lib/gcc/pic32mx/4.8.3/../../../../pic32mx/lib\libc.a(fflush.o)
 .debug_str     0x000029b8        0x0 c:/program files (x86)/microchip/xc32/v1.42/bin/bin/../../lib/gcc/pic32mx/4.8.3/../../../../pic32mx/lib\libc.a(fopen.o)
 .debug_str     0x000029b8        0x0 c:/program files (x86)/microchip/xc32/v1.42/bin/bin/../../lib/gcc/pic32mx/4.8.3/../../../../pic32mx/lib\libc.a(fread.o)
 .debug_str     0x000029b8        0x0 c:/program files (x86)/microchip/xc32/v1.42/bin/bin/../../lib/gcc/pic32mx/4.8.3/../../../../pic32mx/lib\libc.a(freopen.o)
 .debug_str     0x000029b8        0x0 c:/program files (x86)/microchip/xc32/v1.42/bin/bin/../../lib/gcc/pic32mx/4.8.3/../../../../pic32mx/lib\libc.a(fseek.o)
 .debug_str     0x000029b8        0x0 c:/program files (x86)/microchip/xc32/v1.42/bin/bin/../../lib/gcc/pic32mx/4.8.3/../../../../pic32mx/lib\libc.a(fwrite.o)
 .debug_str     0x000029b8        0x0 c:/program files (x86)/microchip/xc32/v1.42/bin/bin/../../lib/gcc/pic32mx/4.8.3/../../../../pic32mx/lib\libc.a(buf.o)
 .debug_str     0x000029b8        0x0 c:/program files (x86)/microchip/xc32/v1.42/bin/bin/../../lib/gcc/pic32mx/4.8.3/../../../../pic32mx/lib\libc.a(calloc.o)
 .debug_str     0x000029b8        0x0 c:/program files (x86)/microchip/xc32/v1.42/bin/bin/../../lib/gcc/pic32mx/4.8.3/../../../../pic32mx/lib\libc.a(errno.o)
 .debug_str     0x000029b8        0x0 c:/program files (x86)/microchip/xc32/v1.42/bin/bin/../../lib/gcc/pic32mx/4.8.3/../../../../pic32mx/lib\libc.a(malloc.o)
 .debug_str     0x000029b8        0x0 c:/program files (x86)/microchip/xc32/v1.42/bin/bin/../../lib/gcc/pic32mx/4.8.3/../../../../pic32mx/lib\libc.a(tfiles.o)
 .debug_str     0x000029b8        0x0 c:/program files (x86)/microchip/xc32/v1.42/bin/bin/../../lib/gcc/pic32mx/4.8.3/../../../../pic32mx/lib\libc.a(_iob.o)
 .debug_str     0x000029b8        0x0 c:/program files (x86)/microchip/xc32/v1.42/bin/bin/../../lib/gcc/pic32mx/4.8.3/../../../../pic32mx/lib\libc.a(fgetc.o)
 .debug_str     0x000029b8        0x0 c:/program files (x86)/microchip/xc32/v1.42/bin/bin/../../lib/gcc/pic32mx/4.8.3/../../../../pic32mx/lib\libc.a(_fputc_simple.o)
 .debug_str     0x000029b8        0x0 c:/program files (x86)/microchip/xc32/v1.42/bin/bin/../../lib/gcc/pic32mx/4.8.3/../../../../pic32mx/lib\libc.a(filbuf.o)
 .debug_str     0x000029b8        0x0 c:/program files (x86)/microchip/xc32/v1.42/bin/bin/../../lib/gcc/pic32mx/4.8.3/../../../../pic32mx/lib\libc.a(_flsbuf_simple.o)
 .debug_str     0x000029b8        0x0 c:/program files (x86)/microchip/xc32/v1.42/bin/bin/../../lib/gcc/pic32mx/4.8.3/../../../../pic32mx/lib\libpic32.a(sbrk.o)
 .debug_str     0x000029b8        0x0 c:/program files (x86)/microchip/xc32/v1.42/bin/bin/../../lib/gcc/pic32mx/4.8.3/../../../../pic32mx/lib\libpic32.a(read.o)
 .debug_str     0x000029b8        0x0 c:/program files (x86)/microchip/xc32/v1.42/bin/bin/../../lib/gcc/pic32mx/4.8.3/../../../../pic32mx/lib\libpic32.a(write.o)
 .debug_str     0x000029b8        0x0 c:/program files (x86)/microchip/xc32/v1.42/bin/bin/../../lib/gcc/pic32mx/4.8.3/../../../../pic32mx/lib\libpic32.a(lseek.o)
 .debug_str     0x000029b8        0x0 c:/program files (x86)/microchip/xc32/v1.42/bin/bin/../../lib/gcc/pic32mx/4.8.3/../../../../pic32mx/lib\libpic32.a(remove.o)
 .debug_str     0x000029b8        0x0 c:/program files (x86)/microchip/xc32/v1.42/bin/bin/../../lib/gcc/pic32mx/4.8.3/../../../../pic32mx/lib\libpic32.a(close.o)
 .debug_str     0x000029b8        0x0 c:/program files (x86)/microchip/xc32/v1.42/bin/bin/../../lib/gcc/pic32mx/4.8.3/../../../../pic32mx/lib\libpic32.a(open.o)
 .debug_str     0x000029b8        0x0 c:/program files (x86)/microchip/xc32/v1.42/bin/bin/../../lib/gcc/pic32mx/4.8.3/../../../../pic32mx/lib\libpic32.a(xc32_uart.o)
 .debug_str     0x000029b8        0x0 c:/program files (x86)/microchip/xc32/v1.42/bin/bin/../../lib/gcc/pic32mx/4.8.3/../../../../pic32mx/lib\libpic32.a(_mon_putc.o)

.debug_loc      0x00000000    0x32f05
 *(.debug_loc)
 .debug_loc     0x00000000       0x14 build/pic32mz_ef_sk_meb2/production/_ext/1360937237/ov2640.o
 .debug_loc     0x00000014       0x21 build/pic32mz_ef_sk_meb2/production/_ext/1360937237/i2c_master_noint.o
 .debug_loc     0x00000035      0x3b6 build/pic32mz_ef_sk_meb2/production/_ext/1360937237/i2c_bitbanging.o
 .debug_loc     0x000003eb     0x146c build/pic32mz_ef_sk_meb2/production/_ext/426253641/jidctint.o
 .debug_loc     0x00001857      0x1a1 build/pic32mz_ef_sk_meb2/production/_ext/1597685232/gfxu_image.o
 .debug_loc     0x000019f8      0x2a4 build/pic32mz_ef_sk_meb2/production/_ext/1597685232/gfxu_image_png_external.o
 .debug_loc     0x00001c9c      0x1f7 build/pic32mz_ef_sk_meb2/production/_ext/1597685232/gfxu_image_png_internal.o
 .debug_loc     0x00001e93      0xbb5 build/pic32mz_ef_sk_meb2/production/_ext/1597685232/gfxu_image_jpg_internal.o
 .debug_loc     0x00002a48    0x108e6 build/pic32mz_ef_sk_meb2/production/_ext/493934858/lodepng.o
 .debug_loc     0x0001332e      0x3d2 build/pic32mz_ef_sk_meb2/production/_ext/1597685232/gfxu_image_raw_external.o
 .debug_loc     0x00013700      0x2a2 build/pic32mz_ef_sk_meb2/production/_ext/1597685232/gfxu_image_raw_internal.o
 .debug_loc     0x000139a2      0x486 build/pic32mz_ef_sk_meb2/production/_ext/1597685232/gfxu_image_rle_external.o
 .debug_loc     0x00013e28      0x5a0 build/pic32mz_ef_sk_meb2/production/_ext/1597685232/gfxu_image_rle_internal.o
 .debug_loc     0x000143c8      0x260 build/pic32mz_ef_sk_meb2/production/_ext/1597685232/gfxu_image_utils.o
 .debug_loc     0x00014628      0x2ec build/pic32mz_ef_sk_meb2/production/_ext/1597685232/gfxu_string.o
 .debug_loc     0x00014914      0x4bc build/pic32mz_ef_sk_meb2/production/_ext/1597685232/gfxu_string_external.o
 .debug_loc     0x00014dd0      0x22d build/pic32mz_ef_sk_meb2/production/_ext/1597685232/gfxu_string_internal.o
 .debug_loc     0x00014ffd      0xcc6 build/pic32mz_ef_sk_meb2/production/_ext/1597685232/gfxu_string_query.o
 .debug_loc     0x00015cc3     0x14c8 build/pic32mz_ef_sk_meb2/production/_ext/1597685232/gfxu_string_utils.o
 .debug_loc     0x0001718b       0x34 build/pic32mz_ef_sk_meb2/production/_ext/1907747181/libaria.o
 .debug_loc     0x000171bf      0x52e build/pic32mz_ef_sk_meb2/production/_ext/1907747181/libaria_context.o
 .debug_loc     0x000176ed       0xe8 build/pic32mz_ef_sk_meb2/production/_ext/1907747181/libaria_context_paint.o
 .debug_loc     0x000177d5      0x288 build/pic32mz_ef_sk_meb2/production/_ext/1907747181/libaria_draw.o
 .debug_loc     0x00017a5d       0xd2 build/pic32mz_ef_sk_meb2/production/_ext/1907747181/libaria_editwidget.o
 .debug_loc     0x00017b2f      0x11c build/pic32mz_ef_sk_meb2/production/_ext/1907747181/libaria_event.o
 .debug_loc     0x00017c4b      0x45b build/pic32mz_ef_sk_meb2/production/_ext/1907747181/libaria_input.o
 .debug_loc     0x000180a6      0x2e0 build/pic32mz_ef_sk_meb2/production/_ext/1907747181/libaria_layer.o
 .debug_loc     0x00018386      0x686 build/pic32mz_ef_sk_meb2/production/_ext/1907747181/libaria_list.o
 .debug_loc     0x00018a0c       0x58 build/pic32mz_ef_sk_meb2/production/_ext/1907747181/libaria_scheme.o
 .debug_loc     0x00018a64      0x30a build/pic32mz_ef_sk_meb2/production/_ext/1907747181/libaria_screen.o
 .debug_loc     0x00018d6e      0xdb3 build/pic32mz_ef_sk_meb2/production/_ext/1907747181/libaria_string.o
 .debug_loc     0x00019b21      0xde6 build/pic32mz_ef_sk_meb2/production/_ext/1907747181/libaria_utils.o
 .debug_loc     0x0001a907      0xfc1 build/pic32mz_ef_sk_meb2/production/_ext/1907747181/libaria_widget.o
 .debug_loc     0x0001b8c8       0x79 build/pic32mz_ef_sk_meb2/production/_ext/1907747181/libaria_widget_skin_classic.o
 .debug_loc     0x0001b941      0x4c7 build/pic32mz_ef_sk_meb2/production/_ext/1907747181/libaria_widget_button.o
 .debug_loc     0x0001be08      0x15f build/pic32mz_ef_sk_meb2/production/_ext/1907747181/libaria_widget_button_skin_classic.o
 .debug_loc     0x0001bf67      0x358 build/pic32mz_ef_sk_meb2/production/_ext/1907747181/libaria_widget_checkbox.o
 .debug_loc     0x0001c2bf      0x210 build/pic32mz_ef_sk_meb2/production/_ext/1907747181/libaria_widget_checkbox_skin_classic.o
 .debug_loc     0x0001c4cf      0x199 build/pic32mz_ef_sk_meb2/production/_ext/1907747181/libaria_widget_circle.o
 .debug_loc     0x0001c668       0xa5 build/pic32mz_ef_sk_meb2/production/_ext/1907747181/libaria_widget_circle_skin_classic.o
 .debug_loc     0x0001c70d       0xeb build/pic32mz_ef_sk_meb2/production/_ext/1907747181/libaria_widget_drawsurface.o
 .debug_loc     0x0001c7f8       0xa5 build/pic32mz_ef_sk_meb2/production/_ext/1907747181/libaria_widget_drawsurface_skin_classic.o
 .debug_loc     0x0001c89d       0xeb build/pic32mz_ef_sk_meb2/production/_ext/1907747181/libaria_widget_gradient.o
 .debug_loc     0x0001c988       0xc8 build/pic32mz_ef_sk_meb2/production/_ext/1907747181/libaria_widget_gradient_skin_classic.o
 .debug_loc     0x0001ca50      0x17a build/pic32mz_ef_sk_meb2/production/_ext/1907747181/libaria_widget_groupbox.o
 .debug_loc     0x0001cbca      0x176 build/pic32mz_ef_sk_meb2/production/_ext/1907747181/libaria_widget_groupbox_skin_classic.o
 .debug_loc     0x0001cd40      0x148 build/pic32mz_ef_sk_meb2/production/_ext/1907747181/libaria_widget_image.o
 .debug_loc     0x0001ce88      0x149 build/pic32mz_ef_sk_meb2/production/_ext/1907747181/libaria_widget_image_skin_classic.o
 .debug_loc     0x0001cfd1      0x573 build/pic32mz_ef_sk_meb2/production/_ext/1907747181/libaria_widget_imagesequence.o
 .debug_loc     0x0001d544       0xd1 build/pic32mz_ef_sk_meb2/production/_ext/1907747181/libaria_widget_imagesequence_skin_classic.o
 .debug_loc     0x0001d615      0xef1 build/pic32mz_ef_sk_meb2/production/_ext/1907747181/libaria_widget_keypad.o
 .debug_loc     0x0001e506       0xb6 build/pic32mz_ef_sk_meb2/production/_ext/1907747181/libaria_widget_keypad_skin_classic.o
 .debug_loc     0x0001e5bc      0x18a build/pic32mz_ef_sk_meb2/production/_ext/1907747181/libaria_widget_label.o
 .debug_loc     0x0001e746       0xd1 build/pic32mz_ef_sk_meb2/production/_ext/1907747181/libaria_widget_label_skin_classic.o
 .debug_loc     0x0001e817      0x1d3 build/pic32mz_ef_sk_meb2/production/_ext/1907747181/libaria_widget_line.o
 .debug_loc     0x0001e9ea       0xa5 build/pic32mz_ef_sk_meb2/production/_ext/1907747181/libaria_widget_line_skin_classic.o
 .debug_loc     0x0001ea8f     0x1112 build/pic32mz_ef_sk_meb2/production/_ext/1907747181/libaria_widget_list.o
 .debug_loc     0x0001fba1      0x13c build/pic32mz_ef_sk_meb2/production/_ext/1907747181/libaria_widget_list_skin_classic.o
 .debug_loc     0x0001fcdd      0x75d build/pic32mz_ef_sk_meb2/production/_ext/1907747181/libaria_widget_listwheel.o
 .debug_loc     0x0002043a      0x266 build/pic32mz_ef_sk_meb2/production/_ext/1907747181/libaria_widget_listwheel_skin_classic.o
 .debug_loc     0x000206a0      0x17a build/pic32mz_ef_sk_meb2/production/_ext/1907747181/libaria_widget_progressbar.o
 .debug_loc     0x0002081a      0x2df build/pic32mz_ef_sk_meb2/production/_ext/1907747181/libaria_widget_progressbar_skin_classic.o
 .debug_loc     0x00020af9      0x40b build/pic32mz_ef_sk_meb2/production/_ext/1907747181/libaria_widget_radiobutton.o
 .debug_loc     0x00020f04      0x28c build/pic32mz_ef_sk_meb2/production/_ext/1907747181/libaria_widget_radiobutton_skin_classic.o
 .debug_loc     0x00021190      0x20d build/pic32mz_ef_sk_meb2/production/_ext/1907747181/libaria_radiobutton_group.o
 .debug_loc     0x0002139d       0xeb build/pic32mz_ef_sk_meb2/production/_ext/1907747181/libaria_widget_rectangle.o
 .debug_loc     0x00021488       0xa5 build/pic32mz_ef_sk_meb2/production/_ext/1907747181/libaria_widget_rectangle_skin_classic.o
 .debug_loc     0x0002152d      0x83c build/pic32mz_ef_sk_meb2/production/_ext/1907747181/libaria_widget_scrollbar.o
 .debug_loc     0x00021d69      0x1ff build/pic32mz_ef_sk_meb2/production/_ext/1907747181/libaria_widget_scrollbar_skin_classic.o
 .debug_loc     0x00021f68      0x860 build/pic32mz_ef_sk_meb2/production/_ext/1907747181/libaria_widget_slider.o
 .debug_loc     0x000227c8       0xa5 build/pic32mz_ef_sk_meb2/production/_ext/1907747181/libaria_widget_slider_skin_classic.o
 .debug_loc     0x0002286d      0x41e build/pic32mz_ef_sk_meb2/production/_ext/1907747181/libaria_widget_textfield.o
 .debug_loc     0x00022c8b      0x16f build/pic32mz_ef_sk_meb2/production/_ext/1907747181/libaria_widget_textfield_skin_classic.o
 .debug_loc     0x00022dfa      0x209 build/pic32mz_ef_sk_meb2/production/_ext/1907747181/libaria_widget_touchtest.o
 .debug_loc     0x00023003      0x17d build/pic32mz_ef_sk_meb2/production/_ext/1907747181/libaria_widget_touchtest_skin_classic.o
 .debug_loc     0x00023180      0x1ee build/pic32mz_ef_sk_meb2/production/_ext/1907747181/libaria_widget_window.o
 .debug_loc     0x0002336e      0x1b7 build/pic32mz_ef_sk_meb2/production/_ext/1907747181/libaria_widget_window_skin_classic.o
 .debug_loc     0x00023525      0xa05 build/pic32mz_ef_sk_meb2/production/_ext/1847583374/gfx.o
 .debug_loc     0x00023f2a       0xa5 build/pic32mz_ef_sk_meb2/production/_ext/1847583374/gfx_color.o
 .debug_loc     0x00023fcf      0xfd1 build/pic32mz_ef_sk_meb2/production/_ext/1847583374/gfx_default_impl.o
 .debug_loc     0x00024fa0      0xe1d build/pic32mz_ef_sk_meb2/production/_ext/1847583374/gfx_get.o
 .debug_loc     0x00025dbd       0x4c build/pic32mz_ef_sk_meb2/production/_ext/1847583374/gfx_layer.o
 .debug_loc     0x00025e09     0x103a build/pic32mz_ef_sk_meb2/production/_ext/1847583374/gfx_pixel_buffer.o
 .debug_loc     0x00026e43      0x1a9 build/pic32mz_ef_sk_meb2/production/_ext/1847583374/gfx_rect.o
 .debug_loc     0x00026fec      0x3f6 build/pic32mz_ef_sk_meb2/production/_ext/1847583374/gfx_util.o
 .debug_loc     0x000273e2      0xdf2 build/pic32mz_ef_sk_meb2/production/_ext/1847583374/gfx_set.o
 .debug_loc     0x000281d4     0x13bc build/pic32mz_ef_sk_meb2/production/_ext/1847583374/gfx_color_blend.o
 .debug_loc     0x00029590     0x16a9 build/pic32mz_ef_sk_meb2/production/_ext/1847583374/gfx_color_convert.o
 .debug_loc     0x0002ac39      0xdb2 build/pic32mz_ef_sk_meb2/production/_ext/1847583374/gfx_color_lerp.o
 .debug_loc     0x0002b9eb       0x4d build/pic32mz_ef_sk_meb2/production/_ext/1847583374/gfx_color_value.o
 .debug_loc     0x0002ba38      0x3ad build/pic32mz_ef_sk_meb2/production/_ext/1847583374/gfx_draw_blit.o
 .debug_loc     0x0002bde5      0x118 build/pic32mz_ef_sk_meb2/production/_ext/1847583374/gfx_draw_circle.o
 .debug_loc     0x0002befd      0x55e build/pic32mz_ef_sk_meb2/production/_ext/1847583374/gfx_draw_line.o
 .debug_loc     0x0002c45b      0x164 build/pic32mz_ef_sk_meb2/production/_ext/1847583374/gfx_draw_pixel.o
 .debug_loc     0x0002c5bf      0x2f3 build/pic32mz_ef_sk_meb2/production/_ext/1847583374/gfx_draw_rect.o
 .debug_loc     0x0002c8b2      0x4b6 build/pic32mz_ef_sk_meb2/production/_ext/1847583374/gfx_math.o
 .debug_loc     0x0002cd68     0x1a96 build/pic32mz_ef_sk_meb2/production/_ext/853959373/sys_dma.o
 .debug_loc     0x0002e7fe       0x69 build/pic32mz_ef_sk_meb2/production/_ext/1042686532/sys_int_pic32.o
 .debug_loc     0x0002e867      0x9ca build/pic32mz_ef_sk_meb2/production/_ext/199634090/drv_tmr_static.o
 .debug_loc     0x0002f231      0x6b2 build/pic32mz_ef_sk_meb2/production/_ext/199634090/drv_tmr_mapping.o
 .debug_loc     0x0002f8e3      0x8c8 build/pic32mz_ef_sk_meb2/production/_ext/713288229/drv_gfx_lcc_generic.o
 .debug_loc     0x000301ab       0x5d build/pic32mz_ef_sk_meb2/production/_ext/1740298103/libaria_init.o
 .debug_loc     0x00030208      0x2b6 build/pic32mz_ef_sk_meb2/production/_ext/1847413222/sys_clk.o
 .debug_loc     0x000304be     0x16da build/pic32mz_ef_sk_meb2/production/_ext/1847413222/sys_clk_pic32mz.o
 .debug_loc     0x00031b98       0xf0 build/pic32mz_ef_sk_meb2/production/_ext/924081491/sys_devcon.o
 .debug_loc     0x00031c88      0x3fd build/pic32mz_ef_sk_meb2/production/_ext/924081491/sys_devcon_pic32mz.o
 .debug_loc     0x00032085      0x9ba build/pic32mz_ef_sk_meb2/production/_ext/50030870/sys_ports_static.o
 .debug_loc     0x00032a3f      0x431 build/pic32mz_ef_sk_meb2/production/_ext/1465531745/bsp.o
 .debug_loc     0x00032e70       0x21 build/pic32mz_ef_sk_meb2/production/_ext/1951523377/system_init.o
 .debug_loc     0x00032e91       0x74 c:/program files (x86)/microchip/xc32/v1.42/bin/bin/../../lib/gcc/pic32mx/4.8.3\libgcc.a(floatunsisf.o)

.debug_macinfo
 *(.debug_macinfo)

.debug_weaknames
 *(.debug_weaknames)

.debug_funcnames
 *(.debug_funcnames)

.debug_typenames
 *(.debug_typenames)

.debug_varnames
 *(.debug_varnames)

.debug_pubtypes
 *(.debug_pubtypes)

.debug_ranges   0x00000000     0x5228
 *(.debug_ranges)
 .debug_ranges  0x00000000       0x28 build/pic32mz_ef_sk_meb2/production/_ext/1360937237/app.o
 .debug_ranges  0x00000028       0x10 build/pic32mz_ef_sk_meb2/production/_ext/1360937237/main.o
 .debug_ranges  0x00000038       0x18 build/pic32mz_ef_sk_meb2/production/_ext/1360937237/ov2640.o
 .debug_ranges  0x00000050       0x40 build/pic32mz_ef_sk_meb2/production/_ext/1360937237/i2c_master_noint.o
 .debug_ranges  0x00000090       0x50 build/pic32mz_ef_sk_meb2/production/_ext/1360937237/i2c_bitbanging.o
 .debug_ranges  0x000000e0       0x10 build/pic32mz_ef_sk_meb2/production/_ext/426253641/jidctint.o
 .debug_ranges  0x000000f0       0x10 build/pic32mz_ef_sk_meb2/production/_ext/1597685232/gfxu_image.o
 .debug_ranges  0x00000100       0x20 build/pic32mz_ef_sk_meb2/production/_ext/1597685232/gfxu_image_png_external.o
 .debug_ranges  0x00000120       0x10 build/pic32mz_ef_sk_meb2/production/_ext/1597685232/gfxu_image_png_internal.o
 .debug_ranges  0x00000130      0x1f8 build/pic32mz_ef_sk_meb2/production/_ext/1597685232/gfxu_image_jpg_internal.o
 .debug_ranges  0x00000328     0x1bb0 build/pic32mz_ef_sk_meb2/production/_ext/493934858/lodepng.o
 .debug_ranges  0x00001ed8       0x40 build/pic32mz_ef_sk_meb2/production/_ext/1597685232/gfxu_image_raw_external.o
 .debug_ranges  0x00001f18       0x28 build/pic32mz_ef_sk_meb2/production/_ext/1597685232/gfxu_image_raw_internal.o
 .debug_ranges  0x00001f40       0x90 build/pic32mz_ef_sk_meb2/production/_ext/1597685232/gfxu_image_rle_external.o
 .debug_ranges  0x00001fd0       0x10 build/pic32mz_ef_sk_meb2/production/_ext/1597685232/gfxu_image_rle_internal.o
 .debug_ranges  0x00001fe0       0x70 build/pic32mz_ef_sk_meb2/production/_ext/1597685232/gfxu_image_utils.o
 .debug_ranges  0x00002050       0x10 build/pic32mz_ef_sk_meb2/production/_ext/1597685232/gfxu_palette.o
 .debug_ranges  0x00002060       0x18 build/pic32mz_ef_sk_meb2/production/_ext/1597685232/gfxu_string.o
 .debug_ranges  0x00002078       0xa8 build/pic32mz_ef_sk_meb2/production/_ext/1597685232/gfxu_string_external.o
 .debug_ranges  0x00002120       0x18 build/pic32mz_ef_sk_meb2/production/_ext/1597685232/gfxu_string_internal.o
 .debug_ranges  0x00002138       0x58 build/pic32mz_ef_sk_meb2/production/_ext/1597685232/gfxu_string_query.o
 .debug_ranges  0x00002190       0x88 build/pic32mz_ef_sk_meb2/production/_ext/1597685232/gfxu_string_utils.o
 .debug_ranges  0x00002218       0x20 build/pic32mz_ef_sk_meb2/production/_ext/1907747181/libaria.o
 .debug_ranges  0x00002238       0xe8 build/pic32mz_ef_sk_meb2/production/_ext/1907747181/libaria_context.o
 .debug_ranges  0x00002320       0x18 build/pic32mz_ef_sk_meb2/production/_ext/1907747181/libaria_context_paint.o
 .debug_ranges  0x00002338       0x28 build/pic32mz_ef_sk_meb2/production/_ext/1907747181/libaria_draw.o
 .debug_ranges  0x00002360       0x88 build/pic32mz_ef_sk_meb2/production/_ext/1907747181/libaria_editwidget.o
 .debug_ranges  0x000023e8       0x50 build/pic32mz_ef_sk_meb2/production/_ext/1907747181/libaria_event.o
 .debug_ranges  0x00002438       0x50 build/pic32mz_ef_sk_meb2/production/_ext/1907747181/libaria_input.o
 .debug_ranges  0x00002488       0x90 build/pic32mz_ef_sk_meb2/production/_ext/1907747181/libaria_layer.o
 .debug_ranges  0x00002518       0x70 build/pic32mz_ef_sk_meb2/production/_ext/1907747181/libaria_list.o
 .debug_ranges  0x00002588       0x10 build/pic32mz_ef_sk_meb2/production/_ext/1907747181/libaria_scheme.o
 .debug_ranges  0x00002598       0x70 build/pic32mz_ef_sk_meb2/production/_ext/1907747181/libaria_screen.o
 .debug_ranges  0x00002608      0x148 build/pic32mz_ef_sk_meb2/production/_ext/1907747181/libaria_string.o
 .debug_ranges  0x00002750       0x98 build/pic32mz_ef_sk_meb2/production/_ext/1907747181/libaria_utils.o
 .debug_ranges  0x000027e8      0x218 build/pic32mz_ef_sk_meb2/production/_ext/1907747181/libaria_widget.o
 .debug_ranges  0x00002a00       0x20 build/pic32mz_ef_sk_meb2/production/_ext/1907747181/libaria_widget_skin_classic.o
 .debug_ranges  0x00002a20       0xf8 build/pic32mz_ef_sk_meb2/production/_ext/1907747181/libaria_widget_button.o
 .debug_ranges  0x00002b18       0x40 build/pic32mz_ef_sk_meb2/production/_ext/1907747181/libaria_widget_button_skin_classic.o
 .debug_ranges  0x00002b58       0xd8 build/pic32mz_ef_sk_meb2/production/_ext/1907747181/libaria_widget_checkbox.o
 .debug_ranges  0x00002c30       0x48 build/pic32mz_ef_sk_meb2/production/_ext/1907747181/libaria_widget_checkbox_skin_classic.o
 .debug_ranges  0x00002c78       0x40 build/pic32mz_ef_sk_meb2/production/_ext/1907747181/libaria_widget_circle.o
 .debug_ranges  0x00002cb8       0x28 build/pic32mz_ef_sk_meb2/production/_ext/1907747181/libaria_widget_circle_skin_classic.o
 .debug_ranges  0x00002ce0       0x30 build/pic32mz_ef_sk_meb2/production/_ext/1907747181/libaria_widget_drawsurface.o
 .debug_ranges  0x00002d10       0x28 build/pic32mz_ef_sk_meb2/production/_ext/1907747181/libaria_widget_drawsurface_skin_classic.o
 .debug_ranges  0x00002d38       0x30 build/pic32mz_ef_sk_meb2/production/_ext/1907747181/libaria_widget_gradient.o
 .debug_ranges  0x00002d68       0x20 build/pic32mz_ef_sk_meb2/production/_ext/1907747181/libaria_widget_gradient_skin_classic.o
 .debug_ranges  0x00002d88       0x40 build/pic32mz_ef_sk_meb2/production/_ext/1907747181/libaria_widget_groupbox.o
 .debug_ranges  0x00002dc8       0x38 build/pic32mz_ef_sk_meb2/production/_ext/1907747181/libaria_widget_groupbox_skin_classic.o
 .debug_ranges  0x00002e00       0x50 build/pic32mz_ef_sk_meb2/production/_ext/1907747181/libaria_widget_image.o
 .debug_ranges  0x00002e50       0x30 build/pic32mz_ef_sk_meb2/production/_ext/1907747181/libaria_widget_image_skin_classic.o
 .debug_ranges  0x00002e80       0xd0 build/pic32mz_ef_sk_meb2/production/_ext/1907747181/libaria_widget_imagesequence.o
 .debug_ranges  0x00002f50       0x30 build/pic32mz_ef_sk_meb2/production/_ext/1907747181/libaria_widget_imagesequence_skin_classic.o
 .debug_ranges  0x00002f80       0xe0 build/pic32mz_ef_sk_meb2/production/_ext/1907747181/libaria_widget_keypad.o
 .debug_ranges  0x00003060       0x20 build/pic32mz_ef_sk_meb2/production/_ext/1907747181/libaria_widget_keypad_skin_classic.o
 .debug_ranges  0x00003080       0x50 build/pic32mz_ef_sk_meb2/production/_ext/1907747181/libaria_widget_label.o
 .debug_ranges  0x000030d0       0x30 build/pic32mz_ef_sk_meb2/production/_ext/1907747181/libaria_widget_label_skin_classic.o
 .debug_ranges  0x00003100       0x40 build/pic32mz_ef_sk_meb2/production/_ext/1907747181/libaria_widget_line.o
 .debug_ranges  0x00003140       0x28 build/pic32mz_ef_sk_meb2/production/_ext/1907747181/libaria_widget_line_skin_classic.o
 .debug_ranges  0x00003168      0x160 build/pic32mz_ef_sk_meb2/production/_ext/1907747181/libaria_widget_list.o
 .debug_ranges  0x000032c8       0x48 build/pic32mz_ef_sk_meb2/production/_ext/1907747181/libaria_widget_list_skin_classic.o
 .debug_ranges  0x00003310       0xe0 build/pic32mz_ef_sk_meb2/production/_ext/1907747181/libaria_widget_listwheel.o
 .debug_ranges  0x000033f0       0x48 build/pic32mz_ef_sk_meb2/production/_ext/1907747181/libaria_widget_listwheel_skin_classic.o
 .debug_ranges  0x00003438       0x50 build/pic32mz_ef_sk_meb2/production/_ext/1907747181/libaria_widget_progressbar.o
 .debug_ranges  0x00003488       0x28 build/pic32mz_ef_sk_meb2/production/_ext/1907747181/libaria_widget_progressbar_skin_classic.o
 .debug_ranges  0x000034b0       0xf0 build/pic32mz_ef_sk_meb2/production/_ext/1907747181/libaria_widget_radiobutton.o
 .debug_ranges  0x000035a0       0x48 build/pic32mz_ef_sk_meb2/production/_ext/1907747181/libaria_widget_radiobutton_skin_classic.o
 .debug_ranges  0x000035e8       0x30 build/pic32mz_ef_sk_meb2/production/_ext/1907747181/libaria_radiobutton_group.o
 .debug_ranges  0x00003618       0x30 build/pic32mz_ef_sk_meb2/production/_ext/1907747181/libaria_widget_rectangle.o
 .debug_ranges  0x00003648       0x28 build/pic32mz_ef_sk_meb2/production/_ext/1907747181/libaria_widget_rectangle_skin_classic.o
 .debug_ranges  0x00003670       0xf8 build/pic32mz_ef_sk_meb2/production/_ext/1907747181/libaria_widget_scrollbar.o
 .debug_ranges  0x00003768       0x30 build/pic32mz_ef_sk_meb2/production/_ext/1907747181/libaria_widget_scrollbar_skin_classic.o
 .debug_ranges  0x00003798       0xd8 build/pic32mz_ef_sk_meb2/production/_ext/1907747181/libaria_widget_slider.o
 .debug_ranges  0x00003870       0x28 build/pic32mz_ef_sk_meb2/production/_ext/1907747181/libaria_widget_slider_skin_classic.o
 .debug_ranges  0x00003898       0xe8 build/pic32mz_ef_sk_meb2/production/_ext/1907747181/libaria_widget_textfield.o
 .debug_ranges  0x00003980       0x38 build/pic32mz_ef_sk_meb2/production/_ext/1907747181/libaria_widget_textfield_skin_classic.o
 .debug_ranges  0x000039b8       0x58 build/pic32mz_ef_sk_meb2/production/_ext/1907747181/libaria_widget_touchtest.o
 .debug_ranges  0x00003a10       0x28 build/pic32mz_ef_sk_meb2/production/_ext/1907747181/libaria_widget_touchtest_skin_classic.o
 .debug_ranges  0x00003a38       0x50 build/pic32mz_ef_sk_meb2/production/_ext/1907747181/libaria_widget_window.o
 .debug_ranges  0x00003a88       0x48 build/pic32mz_ef_sk_meb2/production/_ext/1907747181/libaria_widget_window_skin_classic.o
 .debug_ranges  0x00003ad0       0x78 build/pic32mz_ef_sk_meb2/production/_ext/1847583374/gfx.o
 .debug_ranges  0x00003b48       0x30 build/pic32mz_ef_sk_meb2/production/_ext/1847583374/gfx_color.o
 .debug_ranges  0x00003b78       0x20 build/pic32mz_ef_sk_meb2/production/_ext/1847583374/gfx_context.o
 .debug_ranges  0x00003b98      0x2a8 build/pic32mz_ef_sk_meb2/production/_ext/1847583374/gfx_default_impl.o
 .debug_ranges  0x00003e40       0x10 build/pic32mz_ef_sk_meb2/production/_ext/1847583374/gfx_display.o
 .debug_ranges  0x00003e50       0x20 build/pic32mz_ef_sk_meb2/production/_ext/1847583374/gfx_driver_interface.o
 .debug_ranges  0x00003e70      0x150 build/pic32mz_ef_sk_meb2/production/_ext/1847583374/gfx_get.o
 .debug_ranges  0x00003fc0       0x30 build/pic32mz_ef_sk_meb2/production/_ext/1847583374/gfx_layer.o
 .debug_ranges  0x00003ff0       0xb0 build/pic32mz_ef_sk_meb2/production/_ext/1847583374/gfx_pixel_buffer.o
 .debug_ranges  0x000040a0       0x28 build/pic32mz_ef_sk_meb2/production/_ext/1847583374/gfx_rect.o
 .debug_ranges  0x000040c8       0x50 build/pic32mz_ef_sk_meb2/production/_ext/1847583374/gfx_util.o
 .debug_ranges  0x00004118      0x128 build/pic32mz_ef_sk_meb2/production/_ext/1847583374/gfx_set.o
 .debug_ranges  0x00004240       0x90 build/pic32mz_ef_sk_meb2/production/_ext/1847583374/gfx_color_blend.o
 .debug_ranges  0x000042d0      0x1f8 build/pic32mz_ef_sk_meb2/production/_ext/1847583374/gfx_color_convert.o
 .debug_ranges  0x000044c8       0x48 build/pic32mz_ef_sk_meb2/production/_ext/1847583374/gfx_color_lerp.o
 .debug_ranges  0x00004510       0x10 build/pic32mz_ef_sk_meb2/production/_ext/1847583374/gfx_color_value.o
 .debug_ranges  0x00004520       0x30 build/pic32mz_ef_sk_meb2/production/_ext/1847583374/gfx_draw_blit.o
 .debug_ranges  0x00004550       0x10 build/pic32mz_ef_sk_meb2/production/_ext/1847583374/gfx_draw_circle.o
 .debug_ranges  0x00004560       0x40 build/pic32mz_ef_sk_meb2/production/_ext/1847583374/gfx_draw_line.o
 .debug_ranges  0x000045a0       0x18 build/pic32mz_ef_sk_meb2/production/_ext/1847583374/gfx_draw_pixel.o
 .debug_ranges  0x000045b8       0x50 build/pic32mz_ef_sk_meb2/production/_ext/1847583374/gfx_draw_rect.o
 .debug_ranges  0x00004608       0x68 build/pic32mz_ef_sk_meb2/production/_ext/1847583374/gfx_math.o
 .debug_ranges  0x00004670      0x1c8 build/pic32mz_ef_sk_meb2/production/_ext/853959373/sys_dma.o
 .debug_ranges  0x00004838       0x50 build/pic32mz_ef_sk_meb2/production/_ext/1042686532/sys_int_pic32.o
 .debug_ranges  0x00004888      0x1a8 build/pic32mz_ef_sk_meb2/production/_ext/199634090/drv_tmr_static.o
 .debug_ranges  0x00004a30       0xd8 build/pic32mz_ef_sk_meb2/production/_ext/199634090/drv_tmr_mapping.o
 .debug_ranges  0x00004b08       0x80 build/pic32mz_ef_sk_meb2/production/_ext/713288229/drv_gfx_lcc_generic.o
 .debug_ranges  0x00004b88       0x18 build/pic32mz_ef_sk_meb2/production/_ext/1740298103/libaria_harmony.o
 .debug_ranges  0x00004ba0       0x18 build/pic32mz_ef_sk_meb2/production/_ext/1740298103/libaria_init.o
 .debug_ranges  0x00004bb8       0x10 build/pic32mz_ef_sk_meb2/production/_ext/477038478/gfx_driver_def.o
 .debug_ranges  0x00004bc8       0x78 build/pic32mz_ef_sk_meb2/production/_ext/1847413222/sys_clk.o
 .debug_ranges  0x00004c40      0x108 build/pic32mz_ef_sk_meb2/production/_ext/1847413222/sys_clk_pic32mz.o
 .debug_ranges  0x00004d48       0x68 build/pic32mz_ef_sk_meb2/production/_ext/924081491/sys_devcon.o
 .debug_ranges  0x00004db0       0xd8 build/pic32mz_ef_sk_meb2/production/_ext/924081491/sys_devcon_pic32mz.o
 .debug_ranges  0x00004e88       0xf8 build/pic32mz_ef_sk_meb2/production/_ext/50030870/sys_ports_static.o
 .debug_ranges  0x00004f80       0x58 build/pic32mz_ef_sk_meb2/production/_ext/1465531745/bsp.o
 .debug_ranges  0x00004fd8       0x10 build/pic32mz_ef_sk_meb2/production/_ext/1951523377/system_init.o
 .debug_ranges  0x00004fe8       0x20 build/pic32mz_ef_sk_meb2/production/_ext/1951523377/system_interrupt.o
 .debug_ranges  0x00005008       0x10 build/pic32mz_ef_sk_meb2/production/_ext/1951523377/system_exceptions.o
 .debug_ranges  0x00005018       0x10 build/pic32mz_ef_sk_meb2/production/_ext/1951523377/system_tasks.o
 .debug_ranges  0x00005028       0x10 c:/program files (x86)/microchip/xc32/v1.42/bin/bin/../../lib/gcc/pic32mx/4.8.3/../../../../pic32mx/lib\libpic32.a(default-bootstrap-exception-handler.o)
 .debug_ranges  0x00005038       0x10 c:/program files (x86)/microchip/xc32/v1.42/bin/bin/../../lib/gcc/pic32mx/4.8.3/../../../../pic32mx/lib\libpic32.a(default-on-reset.o)
 .debug_ranges  0x00005048       0x10 c:/program files (x86)/microchip/xc32/v1.42/bin/bin/../../lib/gcc/pic32mx/4.8.3/../../../../pic32mx/lib\libpic32.a(default-on-bootstrap.o)
 .debug_ranges  0x00005058       0x10 c:/program files (x86)/microchip/xc32/v1.42/bin/bin/../../lib/gcc/pic32mx/4.8.3/../../../../pic32mx/lib\libpic32.a(defaultinterrupt.o)
 .debug_ranges  0x00005068       0x10 c:/program files (x86)/microchip/xc32/v1.42/bin/bin/../../lib/gcc/pic32mx/4.8.3/../../../../pic32mx/lib\libpic32.a(default-cache-err-exception-handler.o)
 .debug_ranges  0x00005078       0x10 c:/program files (x86)/microchip/xc32/v1.42/bin/bin/../../lib/gcc/pic32mx/4.8.3/../../../../pic32mx/lib\libpic32.a(default-simple-tlb-refill-exception-handler.o)
 .debug_ranges  0x00005088       0x10 c:/program files (x86)/microchip/xc32/v1.42/bin/bin/../../lib/gcc/pic32mx/4.8.3/../../../../pic32mx/lib\libc.a(fclose.o)
 .debug_ranges  0x00005098       0x10 c:/program files (x86)/microchip/xc32/v1.42/bin/bin/../../lib/gcc/pic32mx/4.8.3/../../../../pic32mx/lib\libc.a(fflush.o)
 .debug_ranges  0x000050a8       0x10 c:/program files (x86)/microchip/xc32/v1.42/bin/bin/../../lib/gcc/pic32mx/4.8.3/../../../../pic32mx/lib\libc.a(fopen.o)
 .debug_ranges  0x000050b8       0x10 c:/program files (x86)/microchip/xc32/v1.42/bin/bin/../../lib/gcc/pic32mx/4.8.3/../../../../pic32mx/lib\libc.a(fread.o)
 .debug_ranges  0x000050c8       0x10 c:/program files (x86)/microchip/xc32/v1.42/bin/bin/../../lib/gcc/pic32mx/4.8.3/../../../../pic32mx/lib\libc.a(freopen.o)
 .debug_ranges  0x000050d8       0x18 c:/program files (x86)/microchip/xc32/v1.42/bin/bin/../../lib/gcc/pic32mx/4.8.3/../../../../pic32mx/lib\libc.a(fseek.o)
 .debug_ranges  0x000050f0       0x10 c:/program files (x86)/microchip/xc32/v1.42/bin/bin/../../lib/gcc/pic32mx/4.8.3/../../../../pic32mx/lib\libc.a(fwrite.o)
 .debug_ranges  0x00005100       0x18 c:/program files (x86)/microchip/xc32/v1.42/bin/bin/../../lib/gcc/pic32mx/4.8.3/../../../../pic32mx/lib\libc.a(buf.o)
 .debug_ranges  0x00005118       0x10 c:/program files (x86)/microchip/xc32/v1.42/bin/bin/../../lib/gcc/pic32mx/4.8.3/../../../../pic32mx/lib\libc.a(calloc.o)
 .debug_ranges  0x00005128       0x20 c:/program files (x86)/microchip/xc32/v1.42/bin/bin/../../lib/gcc/pic32mx/4.8.3/../../../../pic32mx/lib\libc.a(malloc.o)
 .debug_ranges  0x00005148       0x10 c:/program files (x86)/microchip/xc32/v1.42/bin/bin/../../lib/gcc/pic32mx/4.8.3/../../../../pic32mx/lib\libc.a(fgetc.o)
 .debug_ranges  0x00005158       0x10 c:/program files (x86)/microchip/xc32/v1.42/bin/bin/../../lib/gcc/pic32mx/4.8.3/../../../../pic32mx/lib\libc.a(_fputc_simple.o)
 .debug_ranges  0x00005168       0x10 c:/program files (x86)/microchip/xc32/v1.42/bin/bin/../../lib/gcc/pic32mx/4.8.3/../../../../pic32mx/lib\libc.a(filbuf.o)
 .debug_ranges  0x00005178       0x10 c:/program files (x86)/microchip/xc32/v1.42/bin/bin/../../lib/gcc/pic32mx/4.8.3/../../../../pic32mx/lib\libc.a(_flsbuf_simple.o)
 .debug_ranges  0x00005188       0x30 c:/program files (x86)/microchip/xc32/v1.42/bin/bin/../../lib/gcc/pic32mx/4.8.3/../../../../pic32mx/lib\libpic32.a(sbrk.o)
 .debug_ranges  0x000051b8       0x10 c:/program files (x86)/microchip/xc32/v1.42/bin/bin/../../lib/gcc/pic32mx/4.8.3/../../../../pic32mx/lib\libpic32.a(read.o)
 .debug_ranges  0x000051c8       0x10 c:/program files (x86)/microchip/xc32/v1.42/bin/bin/../../lib/gcc/pic32mx/4.8.3/../../../../pic32mx/lib\libpic32.a(write.o)
 .debug_ranges  0x000051d8       0x10 c:/program files (x86)/microchip/xc32/v1.42/bin/bin/../../lib/gcc/pic32mx/4.8.3/../../../../pic32mx/lib\libpic32.a(lseek.o)
 .debug_ranges  0x000051e8       0x10 c:/program files (x86)/microchip/xc32/v1.42/bin/bin/../../lib/gcc/pic32mx/4.8.3/../../../../pic32mx/lib\libpic32.a(remove.o)
 .debug_ranges  0x000051f8       0x10 c:/program files (x86)/microchip/xc32/v1.42/bin/bin/../../lib/gcc/pic32mx/4.8.3/../../../../pic32mx/lib\libpic32.a(close.o)
 .debug_ranges  0x00005208       0x10 c:/program files (x86)/microchip/xc32/v1.42/bin/bin/../../lib/gcc/pic32mx/4.8.3/../../../../pic32mx/lib\libpic32.a(open.o)
 .debug_ranges  0x00005218       0x10 c:/program files (x86)/microchip/xc32/v1.42/bin/bin/../../lib/gcc/pic32mx/4.8.3/../../../../pic32mx/lib\libpic32.a(_mon_putc.o)

.gnu.attributes
                0x00000000       0x10
 *(.gnu.attributes)
 .gnu.attributes
                0x00000000       0x10 build/pic32mz_ef_sk_meb2/production/_ext/1360937237/app.o
 .gnu.attributes
                0x00000010       0x10 build/pic32mz_ef_sk_meb2/production/_ext/1360937237/main.o
 .gnu.attributes
                0x00000020       0x10 build/pic32mz_ef_sk_meb2/production/_ext/1360937237/ov2640.o
 .gnu.attributes
                0x00000030       0x10 build/pic32mz_ef_sk_meb2/production/_ext/1360937237/i2c_master_noint.o
 .gnu.attributes
                0x00000040       0x10 build/pic32mz_ef_sk_meb2/production/_ext/1360937237/i2c_bitbanging.o
 .gnu.attributes
                0x00000050       0x10 build/pic32mz_ef_sk_meb2/production/_ext/426253641/jidctint.o
 .gnu.attributes
                0x00000060       0x10 build/pic32mz_ef_sk_meb2/production/_ext/1597685232/gfxu_image.o
 .gnu.attributes
                0x00000070       0x10 build/pic32mz_ef_sk_meb2/production/_ext/1597685232/gfxu_image_png_external.o
 .gnu.attributes
                0x00000080       0x10 build/pic32mz_ef_sk_meb2/production/_ext/1597685232/gfxu_image_png_internal.o
 .gnu.attributes
                0x00000090       0x10 build/pic32mz_ef_sk_meb2/production/_ext/1597685232/gfxu_image_jpg_internal.o
 .gnu.attributes
                0x000000a0       0x10 build/pic32mz_ef_sk_meb2/production/_ext/493934858/lodepng.o
 .gnu.attributes
                0x000000b0       0x10 build/pic32mz_ef_sk_meb2/production/_ext/1597685232/gfxu_image_raw_external.o
 .gnu.attributes
                0x000000c0       0x10 build/pic32mz_ef_sk_meb2/production/_ext/1597685232/gfxu_image_raw_internal.o
 .gnu.attributes
                0x000000d0       0x10 build/pic32mz_ef_sk_meb2/production/_ext/1597685232/gfxu_image_rle_external.o
 .gnu.attributes
                0x000000e0       0x10 build/pic32mz_ef_sk_meb2/production/_ext/1597685232/gfxu_image_rle_internal.o
 .gnu.attributes
                0x000000f0       0x10 build/pic32mz_ef_sk_meb2/production/_ext/1597685232/gfxu_image_utils.o
 .gnu.attributes
                0x00000100       0x10 build/pic32mz_ef_sk_meb2/production/_ext/1597685232/gfxu_palette.o
 .gnu.attributes
                0x00000110       0x10 build/pic32mz_ef_sk_meb2/production/_ext/1597685232/gfxu_string.o
 .gnu.attributes
                0x00000120       0x10 build/pic32mz_ef_sk_meb2/production/_ext/1597685232/gfxu_string_external.o
 .gnu.attributes
                0x00000130       0x10 build/pic32mz_ef_sk_meb2/production/_ext/1597685232/gfxu_string_internal.o
 .gnu.attributes
                0x00000140       0x10 build/pic32mz_ef_sk_meb2/production/_ext/1597685232/gfxu_string_query.o
 .gnu.attributes
                0x00000150       0x10 build/pic32mz_ef_sk_meb2/production/_ext/1597685232/gfxu_string_utils.o
 .gnu.attributes
                0x00000160       0x10 build/pic32mz_ef_sk_meb2/production/_ext/1907747181/libaria.o
 .gnu.attributes
                0x00000170       0x10 build/pic32mz_ef_sk_meb2/production/_ext/1907747181/libaria_context.o
 .gnu.attributes
                0x00000180       0x10 build/pic32mz_ef_sk_meb2/production/_ext/1907747181/libaria_context_paint.o
 .gnu.attributes
                0x00000190       0x10 build/pic32mz_ef_sk_meb2/production/_ext/1907747181/libaria_draw.o
 .gnu.attributes
                0x000001a0       0x10 build/pic32mz_ef_sk_meb2/production/_ext/1907747181/libaria_editwidget.o
 .gnu.attributes
                0x000001b0       0x10 build/pic32mz_ef_sk_meb2/production/_ext/1907747181/libaria_event.o
 .gnu.attributes
                0x000001c0       0x10 build/pic32mz_ef_sk_meb2/production/_ext/1907747181/libaria_input.o
 .gnu.attributes
                0x000001d0       0x10 build/pic32mz_ef_sk_meb2/production/_ext/1907747181/libaria_layer.o
 .gnu.attributes
                0x000001e0       0x10 build/pic32mz_ef_sk_meb2/production/_ext/1907747181/libaria_list.o
 .gnu.attributes
                0x000001f0       0x10 build/pic32mz_ef_sk_meb2/production/_ext/1907747181/libaria_scheme.o
 .gnu.attributes
                0x00000200       0x10 build/pic32mz_ef_sk_meb2/production/_ext/1907747181/libaria_screen.o
 .gnu.attributes
                0x00000210       0x10 build/pic32mz_ef_sk_meb2/production/_ext/1907747181/libaria_string.o
 .gnu.attributes
                0x00000220       0x10 build/pic32mz_ef_sk_meb2/production/_ext/1907747181/libaria_utils.o
 .gnu.attributes
                0x00000230       0x10 build/pic32mz_ef_sk_meb2/production/_ext/1907747181/libaria_widget.o
 .gnu.attributes
                0x00000240       0x10 build/pic32mz_ef_sk_meb2/production/_ext/1907747181/libaria_widget_skin_classic.o
 .gnu.attributes
                0x00000250       0x10 build/pic32mz_ef_sk_meb2/production/_ext/1907747181/libaria_widget_button.o
 .gnu.attributes
                0x00000260       0x10 build/pic32mz_ef_sk_meb2/production/_ext/1907747181/libaria_widget_button_skin_classic.o
 .gnu.attributes
                0x00000270       0x10 build/pic32mz_ef_sk_meb2/production/_ext/1907747181/libaria_widget_checkbox.o
 .gnu.attributes
                0x00000280       0x10 build/pic32mz_ef_sk_meb2/production/_ext/1907747181/libaria_widget_checkbox_skin_classic.o
 .gnu.attributes
                0x00000290       0x10 build/pic32mz_ef_sk_meb2/production/_ext/1907747181/libaria_widget_circle.o
 .gnu.attributes
                0x000002a0       0x10 build/pic32mz_ef_sk_meb2/production/_ext/1907747181/libaria_widget_circle_skin_classic.o
 .gnu.attributes
                0x000002b0       0x10 build/pic32mz_ef_sk_meb2/production/_ext/1907747181/libaria_widget_drawsurface.o
 .gnu.attributes
                0x000002c0       0x10 build/pic32mz_ef_sk_meb2/production/_ext/1907747181/libaria_widget_drawsurface_skin_classic.o
 .gnu.attributes
                0x000002d0       0x10 build/pic32mz_ef_sk_meb2/production/_ext/1907747181/libaria_widget_gradient.o
 .gnu.attributes
                0x000002e0       0x10 build/pic32mz_ef_sk_meb2/production/_ext/1907747181/libaria_widget_gradient_skin_classic.o
 .gnu.attributes
                0x000002f0       0x10 build/pic32mz_ef_sk_meb2/production/_ext/1907747181/libaria_widget_groupbox.o
 .gnu.attributes
                0x00000300       0x10 build/pic32mz_ef_sk_meb2/production/_ext/1907747181/libaria_widget_groupbox_skin_classic.o
 .gnu.attributes
                0x00000310       0x10 build/pic32mz_ef_sk_meb2/production/_ext/1907747181/libaria_widget_image.o
 .gnu.attributes
                0x00000320       0x10 build/pic32mz_ef_sk_meb2/production/_ext/1907747181/libaria_widget_image_skin_classic.o
 .gnu.attributes
                0x00000330       0x10 build/pic32mz_ef_sk_meb2/production/_ext/1907747181/libaria_widget_imagesequence.o
 .gnu.attributes
                0x00000340       0x10 build/pic32mz_ef_sk_meb2/production/_ext/1907747181/libaria_widget_imagesequence_skin_classic.o
 .gnu.attributes
                0x00000350       0x10 build/pic32mz_ef_sk_meb2/production/_ext/1907747181/libaria_widget_keypad.o
 .gnu.attributes
                0x00000360       0x10 build/pic32mz_ef_sk_meb2/production/_ext/1907747181/libaria_widget_keypad_skin_classic.o
 .gnu.attributes
                0x00000370       0x10 build/pic32mz_ef_sk_meb2/production/_ext/1907747181/libaria_widget_label.o
 .gnu.attributes
                0x00000380       0x10 build/pic32mz_ef_sk_meb2/production/_ext/1907747181/libaria_widget_label_skin_classic.o
 .gnu.attributes
                0x00000390       0x10 build/pic32mz_ef_sk_meb2/production/_ext/1907747181/libaria_widget_line.o
 .gnu.attributes
                0x000003a0       0x10 build/pic32mz_ef_sk_meb2/production/_ext/1907747181/libaria_widget_line_skin_classic.o
 .gnu.attributes
                0x000003b0       0x10 build/pic32mz_ef_sk_meb2/production/_ext/1907747181/libaria_widget_list.o
 .gnu.attributes
                0x000003c0       0x10 build/pic32mz_ef_sk_meb2/production/_ext/1907747181/libaria_widget_list_skin_classic.o
 .gnu.attributes
                0x000003d0       0x10 build/pic32mz_ef_sk_meb2/production/_ext/1907747181/libaria_widget_listwheel.o
 .gnu.attributes
                0x000003e0       0x10 build/pic32mz_ef_sk_meb2/production/_ext/1907747181/libaria_widget_listwheel_skin_classic.o
 .gnu.attributes
                0x000003f0       0x10 build/pic32mz_ef_sk_meb2/production/_ext/1907747181/libaria_widget_progressbar.o
 .gnu.attributes
                0x00000400       0x10 build/pic32mz_ef_sk_meb2/production/_ext/1907747181/libaria_widget_progressbar_skin_classic.o
 .gnu.attributes
                0x00000410       0x10 build/pic32mz_ef_sk_meb2/production/_ext/1907747181/libaria_widget_radiobutton.o
 .gnu.attributes
                0x00000420       0x10 build/pic32mz_ef_sk_meb2/production/_ext/1907747181/libaria_widget_radiobutton_skin_classic.o
 .gnu.attributes
                0x00000430       0x10 build/pic32mz_ef_sk_meb2/production/_ext/1907747181/libaria_radiobutton_group.o
 .gnu.attributes
                0x00000440       0x10 build/pic32mz_ef_sk_meb2/production/_ext/1907747181/libaria_widget_rectangle.o
 .gnu.attributes
                0x00000450       0x10 build/pic32mz_ef_sk_meb2/production/_ext/1907747181/libaria_widget_rectangle_skin_classic.o
 .gnu.attributes
                0x00000460       0x10 build/pic32mz_ef_sk_meb2/production/_ext/1907747181/libaria_widget_scrollbar.o
 .gnu.attributes
                0x00000470       0x10 build/pic32mz_ef_sk_meb2/production/_ext/1907747181/libaria_widget_scrollbar_skin_classic.o
 .gnu.attributes
                0x00000480       0x10 build/pic32mz_ef_sk_meb2/production/_ext/1907747181/libaria_widget_slider.o
 .gnu.attributes
                0x00000490       0x10 build/pic32mz_ef_sk_meb2/production/_ext/1907747181/libaria_widget_slider_skin_classic.o
 .gnu.attributes
                0x000004a0       0x10 build/pic32mz_ef_sk_meb2/production/_ext/1907747181/libaria_widget_textfield.o
 .gnu.attributes
                0x000004b0       0x10 build/pic32mz_ef_sk_meb2/production/_ext/1907747181/libaria_widget_textfield_skin_classic.o
 .gnu.attributes
                0x000004c0       0x10 build/pic32mz_ef_sk_meb2/production/_ext/1907747181/libaria_widget_touchtest.o
 .gnu.attributes
                0x000004d0       0x10 build/pic32mz_ef_sk_meb2/production/_ext/1907747181/libaria_widget_touchtest_skin_classic.o
 .gnu.attributes
                0x000004e0       0x10 build/pic32mz_ef_sk_meb2/production/_ext/1907747181/libaria_widget_window.o
 .gnu.attributes
                0x000004f0       0x10 build/pic32mz_ef_sk_meb2/production/_ext/1907747181/libaria_widget_window_skin_classic.o
 .gnu.attributes
                0x00000500       0x10 build/pic32mz_ef_sk_meb2/production/_ext/1847583374/gfx.o
 .gnu.attributes
                0x00000510       0x10 build/pic32mz_ef_sk_meb2/production/_ext/1847583374/gfx_color.o
 .gnu.attributes
                0x00000520       0x10 build/pic32mz_ef_sk_meb2/production/_ext/1847583374/gfx_context.o
 .gnu.attributes
                0x00000530       0x10 build/pic32mz_ef_sk_meb2/production/_ext/1847583374/gfx_default_impl.o
 .gnu.attributes
                0x00000540       0x10 build/pic32mz_ef_sk_meb2/production/_ext/1847583374/gfx_display.o
 .gnu.attributes
                0x00000550       0x10 build/pic32mz_ef_sk_meb2/production/_ext/1847583374/gfx_driver_interface.o
 .gnu.attributes
                0x00000560       0x10 build/pic32mz_ef_sk_meb2/production/_ext/1847583374/gfx_get.o
 .gnu.attributes
                0x00000570       0x10 build/pic32mz_ef_sk_meb2/production/_ext/1847583374/gfx_interface.o
 .gnu.attributes
                0x00000580       0x10 build/pic32mz_ef_sk_meb2/production/_ext/1847583374/gfx_layer.o
 .gnu.attributes
                0x00000590       0x10 build/pic32mz_ef_sk_meb2/production/_ext/1847583374/gfx_pixel_buffer.o
 .gnu.attributes
                0x000005a0       0x10 build/pic32mz_ef_sk_meb2/production/_ext/1847583374/gfx_rect.o
 .gnu.attributes
                0x000005b0       0x10 build/pic32mz_ef_sk_meb2/production/_ext/1847583374/gfx_util.o
 .gnu.attributes
                0x000005c0       0x10 build/pic32mz_ef_sk_meb2/production/_ext/1847583374/gfx_set.o
 .gnu.attributes
                0x000005d0       0x10 build/pic32mz_ef_sk_meb2/production/_ext/1847583374/gfx_color_blend.o
 .gnu.attributes
                0x000005e0       0x10 build/pic32mz_ef_sk_meb2/production/_ext/1847583374/gfx_color_convert.o
 .gnu.attributes
                0x000005f0       0x10 build/pic32mz_ef_sk_meb2/production/_ext/1847583374/gfx_color_lerp.o
 .gnu.attributes
                0x00000600       0x10 build/pic32mz_ef_sk_meb2/production/_ext/1847583374/gfx_color_value.o
 .gnu.attributes
                0x00000610       0x10 build/pic32mz_ef_sk_meb2/production/_ext/1847583374/gfx_draw_blit.o
 .gnu.attributes
                0x00000620       0x10 build/pic32mz_ef_sk_meb2/production/_ext/1847583374/gfx_draw_circle.o
 .gnu.attributes
                0x00000630       0x10 build/pic32mz_ef_sk_meb2/production/_ext/1847583374/gfx_draw_line.o
 .gnu.attributes
                0x00000640       0x10 build/pic32mz_ef_sk_meb2/production/_ext/1847583374/gfx_draw_pixel.o
 .gnu.attributes
                0x00000650       0x10 build/pic32mz_ef_sk_meb2/production/_ext/1847583374/gfx_draw_rect.o
 .gnu.attributes
                0x00000660       0x10 build/pic32mz_ef_sk_meb2/production/_ext/1847583374/gfx_math.o
 .gnu.attributes
                0x00000670       0x10 build/pic32mz_ef_sk_meb2/production/_ext/853959373/sys_dma.o
 .gnu.attributes
                0x00000680       0x10 build/pic32mz_ef_sk_meb2/production/_ext/1042686532/sys_int_pic32.o
 .gnu.attributes
                0x00000690       0x10 build/pic32mz_ef_sk_meb2/production/_ext/199634090/drv_tmr_static.o
 .gnu.attributes
                0x000006a0       0x10 build/pic32mz_ef_sk_meb2/production/_ext/199634090/drv_tmr_mapping.o
 .gnu.attributes
                0x000006b0       0x10 build/pic32mz_ef_sk_meb2/production/_ext/713288229/drv_gfx_lcc_generic.o
 .gnu.attributes
                0x000006c0       0x10 build/pic32mz_ef_sk_meb2/production/_ext/1740298103/libaria_harmony.o
 .gnu.attributes
                0x000006d0       0x10 build/pic32mz_ef_sk_meb2/production/_ext/1740298103/libaria_init.o
 .gnu.attributes
                0x000006e0       0x10 build/pic32mz_ef_sk_meb2/production/_ext/1740298103/libaria_events.o
 .gnu.attributes
                0x000006f0       0x10 build/pic32mz_ef_sk_meb2/production/_ext/1740298103/libaria_macros.o
 .gnu.attributes
                0x00000700       0x10 build/pic32mz_ef_sk_meb2/production/_ext/477038478/gfx_display_def.o
 .gnu.attributes
                0x00000710       0x10 build/pic32mz_ef_sk_meb2/production/_ext/477038478/gfx_driver_def.o
 .gnu.attributes
                0x00000720       0x10 build/pic32mz_ef_sk_meb2/production/_ext/1847413222/sys_clk.o
 .gnu.attributes
                0x00000730       0x10 build/pic32mz_ef_sk_meb2/production/_ext/1847413222/sys_clk_pic32mz.o
 .gnu.attributes
                0x00000740       0x10 build/pic32mz_ef_sk_meb2/production/_ext/924081491/sys_devcon.o
 .gnu.attributes
                0x00000750       0x10 build/pic32mz_ef_sk_meb2/production/_ext/924081491/sys_devcon_pic32mz.o
 .gnu.attributes
                0x00000760       0x10 build/pic32mz_ef_sk_meb2/production/_ext/50030870/sys_ports_static.o
 .gnu.attributes
                0x00000770       0x10 build/pic32mz_ef_sk_meb2/production/_ext/1465531745/bsp.o
 .gnu.attributes
                0x00000780       0x10 build/pic32mz_ef_sk_meb2/production/_ext/1951523377/system_init.o
 .gnu.attributes
                0x00000790       0x10 build/pic32mz_ef_sk_meb2/production/_ext/1951523377/system_interrupt.o
 .gnu.attributes
                0x000007a0       0x10 build/pic32mz_ef_sk_meb2/production/_ext/1951523377/system_exceptions.o
 .gnu.attributes
                0x000007b0       0x10 build/pic32mz_ef_sk_meb2/production/_ext/1951523377/system_tasks.o
 .gnu.attributes
                0x000007c0       0x10 build/pic32mz_ef_sk_meb2/production/_ext/715821942/gfx_assets.o
 .gnu.attributes
                0x000007d0       0x10 c:/program files (x86)/microchip/xc32/v1.42/bin/bin/../../lib/gcc/pic32mx/4.8.3\libgcc.a(floatunsisf.o)
 .gnu.attributes
                0x000007e0       0x10 c:/program files (x86)/microchip/xc32/v1.42/bin/bin/../../lib/gcc/pic32mx/4.8.3/../../../../pic32mx/lib\libpic32.a(default-bootstrap-exception-handler.o)
 .gnu.attributes
                0x000007f0       0x10 c:/program files (x86)/microchip/xc32/v1.42/bin/bin/../../lib/gcc/pic32mx/4.8.3/../../../../pic32mx/lib\libpic32.a(default-on-reset.o)
 .gnu.attributes
                0x00000800       0x10 c:/program files (x86)/microchip/xc32/v1.42/bin/bin/../../lib/gcc/pic32mx/4.8.3/../../../../pic32mx/lib\libpic32.a(default-on-bootstrap.o)
 .gnu.attributes
                0x00000810       0x10 c:/program files (x86)/microchip/xc32/v1.42/bin/bin/../../lib/gcc/pic32mx/4.8.3/../../../../pic32mx/lib\libpic32.a(defaultinterrupt.o)
 .gnu.attributes
                0x00000820       0x10 c:/program files (x86)/microchip/xc32/v1.42/bin/bin/../../lib/gcc/pic32mx/4.8.3/../../../../pic32mx/lib\libpic32.a(default-cache-err-exception-handler.o)
 .gnu.attributes
                0x00000830       0x10 c:/program files (x86)/microchip/xc32/v1.42/bin/bin/../../lib/gcc/pic32mx/4.8.3/../../../../pic32mx/lib\libpic32.a(default-simple-tlb-refill-exception-handler.o)
 .gnu.attributes
                0x00000840       0x10 c:/program files (x86)/microchip/xc32/v1.42/bin/bin/../../lib/gcc/pic32mx/4.8.3/../../../../pic32mx/lib\libc.a(fclose.o)
 .gnu.attributes
                0x00000850       0x10 c:/program files (x86)/microchip/xc32/v1.42/bin/bin/../../lib/gcc/pic32mx/4.8.3/../../../../pic32mx/lib\libc.a(fflush.o)
 .gnu.attributes
                0x00000860       0x10 c:/program files (x86)/microchip/xc32/v1.42/bin/bin/../../lib/gcc/pic32mx/4.8.3/../../../../pic32mx/lib\libc.a(fopen.o)
 .gnu.attributes
                0x00000870       0x10 c:/program files (x86)/microchip/xc32/v1.42/bin/bin/../../lib/gcc/pic32mx/4.8.3/../../../../pic32mx/lib\libc.a(fread.o)
 .gnu.attributes
                0x00000880       0x10 c:/program files (x86)/microchip/xc32/v1.42/bin/bin/../../lib/gcc/pic32mx/4.8.3/../../../../pic32mx/lib\libc.a(freopen.o)
 .gnu.attributes
                0x00000890       0x10 c:/program files (x86)/microchip/xc32/v1.42/bin/bin/../../lib/gcc/pic32mx/4.8.3/../../../../pic32mx/lib\libc.a(fseek.o)
 .gnu.attributes
                0x000008a0       0x10 c:/program files (x86)/microchip/xc32/v1.42/bin/bin/../../lib/gcc/pic32mx/4.8.3/../../../../pic32mx/lib\libc.a(fwrite.o)
 .gnu.attributes
                0x000008b0       0x10 c:/program files (x86)/microchip/xc32/v1.42/bin/bin/../../lib/gcc/pic32mx/4.8.3/../../../../pic32mx/lib\libc.a(buf.o)
 .gnu.attributes
                0x000008c0       0x10 c:/program files (x86)/microchip/xc32/v1.42/bin/bin/../../lib/gcc/pic32mx/4.8.3/../../../../pic32mx/lib\libc.a(calloc.o)
 .gnu.attributes
                0x000008d0       0x10 c:/program files (x86)/microchip/xc32/v1.42/bin/bin/../../lib/gcc/pic32mx/4.8.3/../../../../pic32mx/lib\libc.a(errno.o)
 .gnu.attributes
                0x000008e0       0x10 c:/program files (x86)/microchip/xc32/v1.42/bin/bin/../../lib/gcc/pic32mx/4.8.3/../../../../pic32mx/lib\libc.a(malloc.o)
 .gnu.attributes
                0x000008f0       0x10 c:/program files (x86)/microchip/xc32/v1.42/bin/bin/../../lib/gcc/pic32mx/4.8.3/../../../../pic32mx/lib\libc.a(tfiles.o)
 .gnu.attributes
                0x00000900       0x10 c:/program files (x86)/microchip/xc32/v1.42/bin/bin/../../lib/gcc/pic32mx/4.8.3/../../../../pic32mx/lib\libc.a(_iob.o)
 .gnu.attributes
                0x00000910       0x10 c:/program files (x86)/microchip/xc32/v1.42/bin/bin/../../lib/gcc/pic32mx/4.8.3/../../../../pic32mx/lib\libc.a(fgetc.o)
 .gnu.attributes
                0x00000920       0x10 c:/program files (x86)/microchip/xc32/v1.42/bin/bin/../../lib/gcc/pic32mx/4.8.3/../../../../pic32mx/lib\libc.a(_fputc_simple.o)
 .gnu.attributes
                0x00000930       0x10 c:/program files (x86)/microchip/xc32/v1.42/bin/bin/../../lib/gcc/pic32mx/4.8.3/../../../../pic32mx/lib\libc.a(filbuf.o)
 .gnu.attributes
                0x00000940       0x10 c:/program files (x86)/microchip/xc32/v1.42/bin/bin/../../lib/gcc/pic32mx/4.8.3/../../../../pic32mx/lib\libc.a(_flsbuf_simple.o)
 .gnu.attributes
                0x00000950       0x10 c:/program files (x86)/microchip/xc32/v1.42/bin/bin/../../lib/gcc/pic32mx/4.8.3/../../../../pic32mx/lib\libpic32.a(sbrk.o)
 .gnu.attributes
                0x00000960       0x10 c:/program files (x86)/microchip/xc32/v1.42/bin/bin/../../lib/gcc/pic32mx/4.8.3/../../../../pic32mx/lib\libpic32.a(read.o)
 .gnu.attributes
                0x00000970       0x10 c:/program files (x86)/microchip/xc32/v1.42/bin/bin/../../lib/gcc/pic32mx/4.8.3/../../../../pic32mx/lib\libpic32.a(write.o)
 .gnu.attributes
                0x00000980       0x10 c:/program files (x86)/microchip/xc32/v1.42/bin/bin/../../lib/gcc/pic32mx/4.8.3/../../../../pic32mx/lib\libpic32.a(lseek.o)
 .gnu.attributes
                0x00000990       0x10 c:/program files (x86)/microchip/xc32/v1.42/bin/bin/../../lib/gcc/pic32mx/4.8.3/../../../../pic32mx/lib\libpic32.a(remove.o)
 .gnu.attributes
                0x000009a0       0x10 c:/program files (x86)/microchip/xc32/v1.42/bin/bin/../../lib/gcc/pic32mx/4.8.3/../../../../pic32mx/lib\libpic32.a(close.o)
 .gnu.attributes
                0x000009b0       0x10 c:/program files (x86)/microchip/xc32/v1.42/bin/bin/../../lib/gcc/pic32mx/4.8.3/../../../../pic32mx/lib\libpic32.a(open.o)
 .gnu.attributes
                0x000009c0       0x10 c:/program files (x86)/microchip/xc32/v1.42/bin/bin/../../lib/gcc/pic32mx/4.8.3/../../../../pic32mx/lib\libpic32.a(xc32_uart.o)
 .gnu.attributes
                0x000009d0       0x10 c:/program files (x86)/microchip/xc32/v1.42/bin/bin/../../lib/gcc/pic32mx/4.8.3/../../../../pic32mx/lib\libpic32.a(_mon_putc.o)
                0x9d000000                PROVIDE (__pic32_init_cache_program_base_addr, 0x9d000000)
                0x80000000                PROVIDE (__pic32_init_cache_data_base_addr, 0x80000000)
                0xd0000000                PROVIDE (__pic32_init_sqi_kseg2_virtual_base_addr, 0xd0000000)
                0x30000000                PROVIDE (__pic32_init_sqi_kseg2_physical_base_addr, 0x30000000)
                0x0000001f                PROVIDE (__pic32_init_sqi_kseg2_entrylo0_bitset, 0x1f)
                0xd0000000                __pic32_tlb_0_entryhi = __pic32_init_sqi_kseg2_virtual_base_addr
                0x00c0001f                __pic32_tlb_0_entrylo0 = ((__pic32_init_sqi_kseg2_physical_base_addr >> 0x6) | __pic32_init_sqi_kseg2_entrylo0_bitset)
                0x00c4001f                __pic32_tlb_0_entrylo1 = (__pic32_tlb_0_entrylo0 | ((__pic32_init_sqi_kseg2_physical_base_addr + 0x1000000) >> 0x6))
                0xd2000000                __pic32_tlb_1_entryhi = (__pic32_init_sqi_kseg2_virtual_base_addr + 0x2000000)
                0x00c8001f                __pic32_tlb_1_entrylo0 = (((__pic32_init_sqi_kseg2_physical_base_addr + 0x2000000) >> 0x6) | __pic32_init_sqi_kseg2_entrylo0_bitset)
                0x00cc001f                __pic32_tlb_1_entrylo1 = (__pic32_tlb_1_entrylo0 | 0x40000)
                0xf0000000                PROVIDE (__pic32_init_sqi_kseg3_virtual_base_addr, 0xf0000000)
                0x30000000                PROVIDE (__pic32_init_sqi_kseg3_physical_base_addr, 0x30000000)
                0x00000017                PROVIDE (__pic32_init_sqi_kseg3_entrylo0_bitset, 0x17)
                0xf0000000                __pic32_tlb_2_entryhi = __pic32_init_sqi_kseg3_virtual_base_addr
                0x00c00017                __pic32_tlb_2_entrylo0 = ((__pic32_init_sqi_kseg3_physical_base_addr >> 0x6) | __pic32_init_sqi_kseg3_entrylo0_bitset)
                0x00c40017                __pic32_tlb_2_entrylo1 = (__pic32_tlb_2_entrylo0 | ((__pic32_init_sqi_kseg3_physical_base_addr + 0x1000000) >> 0x6))
                0xf2000000                __pic32_tlb_3_entryhi = (__pic32_init_sqi_kseg3_virtual_base_addr + 0x2000000)
                0x00c80017                __pic32_tlb_3_entrylo0 = (((__pic32_init_sqi_kseg3_physical_base_addr + 0x2000000) >> 0x6) | __pic32_init_sqi_kseg3_entrylo0_bitset)
                0x00cc0017                __pic32_tlb_3_entrylo1 = (__pic32_tlb_3_entrylo0 | 0x40000)
                0xc0000000                PROVIDE (__pic32_init_ebi_kseg2_virtual_base_addr, 0xc0000000)
                0x20000000                PROVIDE (__pic32_init_ebi_kseg2_physical_base_addr, 0x20000000)
                0x0000001f                PROVIDE (__pic32_init_ebi_kseg2_entrylo0_bitset, 0x1f)
                0xc0000000                __pic32_tlb_4_entryhi = __pic32_init_ebi_kseg2_virtual_base_addr
                0x0080001f                __pic32_tlb_4_entrylo0 = ((__pic32_init_ebi_kseg2_physical_base_addr >> 0x6) | __pic32_init_ebi_kseg2_entrylo0_bitset)
                0x0084001f                __pic32_tlb_4_entrylo1 = (__pic32_tlb_4_entrylo0 | ((__pic32_init_ebi_kseg2_physical_base_addr + 0x1000000) >> 0x6))
                0xc2000000                __pic32_tlb_5_entryhi = (__pic32_init_ebi_kseg2_virtual_base_addr + 0x2000000)
                0x0088001f                __pic32_tlb_5_entrylo0 = (((__pic32_init_ebi_kseg2_physical_base_addr + 0x2000000) >> 0x6) | __pic32_init_ebi_kseg2_entrylo0_bitset)
                0x008c001f                __pic32_tlb_5_entrylo1 = (__pic32_tlb_5_entrylo0 | 0x40000)
                0xe0000000                PROVIDE (__pic32_init_ebi_kseg3_virtual_base_addr, 0xe0000000)
                0x20000000                PROVIDE (__pic32_init_ebi_kseg3_physical_base_addr, 0x20000000)
                0x00000017                PROVIDE (__pic32_init_ebi_kseg3_entrylo0_bitset, 0x17)
                0xe0000000                __pic32_tlb_6_entryhi = __pic32_init_ebi_kseg3_virtual_base_addr
                0x00800017                __pic32_tlb_6_entrylo0 = ((__pic32_init_ebi_kseg3_physical_base_addr >> 0x6) | __pic32_init_ebi_kseg3_entrylo0_bitset)
                0x00840017                __pic32_tlb_6_entrylo1 = (__pic32_tlb_6_entrylo0 | ((__pic32_init_ebi_kseg3_physical_base_addr + 0x1000000) >> 0x6))
                0xe2000000                __pic32_tlb_7_entryhi = (__pic32_init_ebi_kseg3_virtual_base_addr + 0x2000000)
                0x00880017                __pic32_tlb_7_entrylo0 = (((__pic32_init_ebi_kseg3_physical_base_addr + 0x2000000) >> 0x6) | __pic32_init_ebi_kseg3_entrylo0_bitset)
                0x008c0017                __pic32_tlb_7_entrylo1 = (__pic32_tlb_7_entrylo0 | 0x40000)

.tlb_init_values
                0xbfc0064c       0x60
                0xbfc0064c                . = ALIGN (0x4)
                0xbfc0064c                __pic32_tlb_init_values_begin = ABSOLUTE (.)
                0xbfc0064c        0x4 LONG 0xd0000000 __pic32_tlb_0_entryhi
                0xbfc00650        0x4 LONG 0xc0001f __pic32_tlb_0_entrylo0
                0xbfc00654        0x4 LONG 0xc4001f __pic32_tlb_0_entrylo1
                0xbfc00658        0x4 LONG 0xd2000000 __pic32_tlb_1_entryhi
                0xbfc0065c        0x4 LONG 0xc8001f __pic32_tlb_1_entrylo0
                0xbfc00660        0x4 LONG 0xcc001f __pic32_tlb_1_entrylo1
                0xbfc00664        0x4 LONG 0xf0000000 __pic32_tlb_2_entryhi
                0xbfc00668        0x4 LONG 0xc00017 __pic32_tlb_2_entrylo0
                0xbfc0066c        0x4 LONG 0xc40017 __pic32_tlb_2_entrylo1
                0xbfc00670        0x4 LONG 0xf2000000 __pic32_tlb_3_entryhi
                0xbfc00674        0x4 LONG 0xc80017 __pic32_tlb_3_entrylo0
                0xbfc00678        0x4 LONG 0xcc0017 __pic32_tlb_3_entrylo1
                0xbfc0067c        0x4 LONG 0xc0000000 __pic32_tlb_4_entryhi
                0xbfc00680        0x4 LONG 0x80001f __pic32_tlb_4_entrylo0
                0xbfc00684        0x4 LONG 0x84001f __pic32_tlb_4_entrylo1
                0xbfc00688        0x4 LONG 0xc2000000 __pic32_tlb_5_entryhi
                0xbfc0068c        0x4 LONG 0x88001f __pic32_tlb_5_entrylo0
                0xbfc00690        0x4 LONG 0x8c001f __pic32_tlb_5_entrylo1
                0xbfc00694        0x4 LONG 0xe0000000 __pic32_tlb_6_entryhi
                0xbfc00698        0x4 LONG 0x800017 __pic32_tlb_6_entrylo0
                0xbfc0069c        0x4 LONG 0x840017 __pic32_tlb_6_entrylo1
                0xbfc006a0        0x4 LONG 0xe2000000 __pic32_tlb_7_entryhi
                0xbfc006a4        0x4 LONG 0x880017 __pic32_tlb_7_entrylo0
                0xbfc006a8        0x4 LONG 0x8c0017 __pic32_tlb_7_entrylo1
                0xbfc006ac                __pic32_tlb_init_values_end = ABSOLUTE (.)
                0x00000008                __pic32_tlb_init_values_count = 0x8
LOAD c:/program files (x86)/microchip/xc32/v1.42/bin/bin/../../lib/gcc/pic32mx/4.8.3\libgcc.a
START GROUP
LOAD c:/program files (x86)/microchip/xc32/v1.42/bin/bin/../../lib/gcc/pic32mx/4.8.3/../../../../pic32mx/lib\libpic32.a
LOAD c:/program files (x86)/microchip/xc32/v1.42/bin/bin/../../lib/gcc/pic32mx/4.8.3/../../../../pic32mx/lib\libdebug.a
LOAD c:/program files (x86)/microchip/xc32/v1.42/bin/bin/../../lib/gcc/pic32mx/4.8.3/../../../../pic32mx/lib\libpic32.a
LOAD c:/program files (x86)/microchip/xc32/v1.42/bin/bin/../../lib/gcc/pic32mx/4.8.3/../../../../pic32mx/lib\libm.a
LOAD c:/program files (x86)/microchip/xc32/v1.42/bin/bin/../../lib/gcc/pic32mx/4.8.3/../../../../pic32mx/lib\libe.a
LOAD c:/program files (x86)/microchip/xc32/v1.42/bin/bin/../../lib/gcc/pic32mx/4.8.3/../../../../pic32mx/lib\libdspr2.a
LOAD c:/program files (x86)/microchip/xc32/v1.42/bin/bin/../../lib/gcc/pic32mx/4.8.3/../../../../pic32mx/lib\libdsp.a
LOAD c:/program files (x86)/microchip/xc32/v1.42/bin/bin/../../lib/gcc/pic32mx/4.8.3\libgcc.a
LOAD c:/program files (x86)/microchip/xc32/v1.42/bin/bin/../../lib/gcc/pic32mx/4.8.3/../../../../pic32mx/lib\libc.a
LOAD c:/program files (x86)/microchip/xc32/v1.42/bin/bin/../../lib/gcc/pic32mx/4.8.3/../../../../pic32mx/lib\libc.a
LOAD c:/program files (x86)/microchip/xc32/v1.42/bin/bin/../../lib/gcc/pic32mx/4.8.3/../../../../pic32mx/lib\libpic32.a
END GROUP
LOAD c:/program files (x86)/microchip/xc32/v1.42/bin/bin/../../lib/gcc/pic32mx/4.8.3\libgcc.a
OUTPUT(dist/pic32mz_ef_sk_meb2/production/aria_quickstart.X.production.elf elf32-tradlittlemips)
LOAD stack
LOAD data_init

.reginfo        0x00000000       0x18
 .reginfo       0x00000000       0x18 c:/program files (x86)/microchip/xc32/v1.42/bin/bin/../../lib/gcc/pic32mx/4.8.3/../../../../pic32mx/lib/./proc/32MZ2048ECG144/crt0_mips32r2.o

.stack          0x8005c2f0      0x400
 .stack         0x8005c2f0      0x400 stack

.__vector_offset_BF81062C_data
                0xbf81062c       0xc0
 .__vector_offset_BF81062C_data
                0xbf81062c       0xc0 c:/program files (x86)/microchip/xc32/v1.42/bin/bin/../../lib/gcc/pic32mx/4.8.3/../../../../pic32mx/lib/./proc/32MZ2048ECG144\vector_offset_init.o

.__vector_offset_BF810540_data
                0xbf810540       0xb4
 .__vector_offset_BF810540_data
                0xbf810540       0xb4 c:/program files (x86)/microchip/xc32/v1.42/bin/bin/../../lib/gcc/pic32mx/4.8.3/../../../../pic32mx/lib/./proc/32MZ2048ECG144\vector_offset_init.o

.__vector_offset_BF8106F4_data
                0xbf8106f4       0xa8
 .__vector_offset_BF8106F4_data
                0xbf8106f4       0xa8 c:/program files (x86)/microchip/xc32/v1.42/bin/bin/../../lib/gcc/pic32mx/4.8.3/../../../../pic32mx/lib/./proc/32MZ2048ECG144\vector_offset_init.o

.__vector_offset_BF8107A4_data
                0xbf8107a4       0x98
 .__vector_offset_BF8107A4_data
                0xbf8107a4       0x98 c:/program files (x86)/microchip/xc32/v1.42/bin/bin/../../lib/gcc/pic32mx/4.8.3/../../../../pic32mx/lib/./proc/32MZ2048ECG144\vector_offset_init.o

.__vector_offset_BF8105F8_data
                0xbf8105f8       0x30
 .__vector_offset_BF8105F8_data
                0xbf8105f8       0x30 c:/program files (x86)/microchip/xc32/v1.42/bin/bin/../../lib/gcc/pic32mx/4.8.3/../../../../pic32mx/lib/./proc/32MZ2048ECG144\vector_offset_init.o

.bss.frameBuffer.frameBuffer
                0xa0000490    0x3fc00
 .bss.frameBuffer.frameBuffer
                0xa0000490    0x3fc00 build/pic32mz_ef_sk_meb2/production/_ext/713288229/drv_gfx_lcc_generic.o
                0xa0000490                frameBuffer

.data           0x80040090     0x2100
 .data          0x80040090     0x2100 build/pic32mz_ef_sk_meb2/production/_ext/715821942/gfx_assets.o
                0x80040090                stringTable
                0x800400ec                TimesNewRoman12
                0x80040210                TimesNewRoman12_lookup_72_75
                0x8004021c                TimesNewRoman18
                0x80040414                TimesNewRoman18_lookup_72_75
                0x80040424                NewHarmonyLogo

.bss            0x80042190      0x9f8
 .bss           0x80042190      0x9f8 build/pic32mz_ef_sk_meb2/production/_ext/1597685232/gfxu_image_jpg_internal.o

.data           0x80042b88      0x1e4
 .data          0x80042b88      0x1e4 build/pic32mz_ef_sk_meb2/production/_ext/1847583374/gfx_color_convert.o
                0x80042b88                color_convert_table

.bss            0x80042d6c      0x150
 .bss           0x80042d6c      0x150 build/pic32mz_ef_sk_meb2/production/_ext/1360937237/ov2640.o

.data           0x80042ebc      0x370
 .data          0x80042ebc      0x148 build/pic32mz_ef_sk_meb2/production/_ext/1847583374/gfx_interface.o
                0x80042ebc                GFX_InterfaceTable
 .data          0x80043004      0x134 build/pic32mz_ef_sk_meb2/production/_ext/1847583374/gfx_color.o
                0x80043004                GFX_ColorInfo
 .data          0x80043138       0x58 build/pic32mz_ef_sk_meb2/production/_ext/1847583374/gfx_color_blend.o
                0x80043138                alpha_set_table
                0x80043164                color_blend_table
 .data          0x80043190       0x44 build/pic32mz_ef_sk_meb2/production/_ext/1597685232/gfxu_image_utils.o
                0x80043190                calcOffset
                0x800431a8                getDiscreteValue
 .data          0x800431d4       0x2c build/pic32mz_ef_sk_meb2/production/_ext/1847583374/gfx_color_lerp.o
                0x800431d4                color_lerp_table
 .data          0x80043200       0x2c build/pic32mz_ef_sk_meb2/production/_ext/477038478/gfx_display_def.o
                0x80043200                GFX_DisplayInfoList

.bss            0x8004322c       0x6c
 .bss           0x8004322c       0x28 build/pic32mz_ef_sk_meb2/production/_ext/199634090/drv_tmr_static.o
 .bss           0x80043254       0x24 c:/program files (x86)/microchip/xc32/v1.42/bin/bin/../../lib/gcc/pic32mx/4.8.3/../../../../pic32mx/lib\libpic32.a(sbrk.o)
                0x80043270                _maxbrk
                0x80043274                _minbrk
 .bss           0x80043278       0x20 c:/program files (x86)/microchip/xc32/v1.42/bin/bin/../../lib/gcc/pic32mx/4.8.3/../../../../pic32mx/lib\libc.a(malloc.o)
                0x80043278                __allocx
                0x80043280                __alloct
                0x80043284                __allocp
                0x80043288                __allocs

.data           0x80043298       0x34
 .data          0x80043298       0x18 build/pic32mz_ef_sk_meb2/production/_ext/1847583374/gfx_pixel_buffer.o
                0x80043298                indexGet_FnTable
 .data          0x800432b0       0x10 build/pic32mz_ef_sk_meb2/production/_ext/1847583374/gfx_util.o
                0x800432b0                orient_ptrs
 .data          0x800432c0        0xc build/pic32mz_ef_sk_meb2/production/_ext/1597685232/gfxu_string_utils.o
                0x800432c0                decodeGlyph

.bss.errno      0x800432cc        0x4
 .bss.errno     0x800432cc        0x4 c:/program files (x86)/microchip/xc32/v1.42/bin/bin/../../lib/gcc/pic32mx/4.8.3/../../../../pic32mx/lib\libc.a(errno.o)
                0x800432cc                errno

._debug_exception
                0xbfc00480       0x2c
 ._debug_exception
                0xbfc00480       0x2c c:/program files (x86)/microchip/xc32/v1.42/bin/bin/../../lib/gcc/pic32mx/4.8.3/../../../../pic32mx/lib\debug-exception-return.o
                0xbfc00480                __DbgExecReturn

.dinit          0x9d000268     0x2d90
 .dinit         0x9d000268     0x2d90 data_init

.rodata         0x9d002ff8     0x16ac
 .rodata        0x9d002ff8     0x16ac build/pic32mz_ef_sk_meb2/production/_ext/493934858/lodepng.o
                0x9d00441c                lodepng_default_decompress_settings
                0x9d00442c                lodepng_default_compress_settings

.text.lodepng_decode
                0x9d0046a4     0x15cc
 .text.lodepng_decode
                0x9d0046a4     0x15cc build/pic32mz_ef_sk_meb2/production/_ext/493934858/lodepng.o
                0x9d0046a4                lodepng_decode

.text.GFXU_DrawImageJpgInternal
                0x9d005c70      0xfe4
 .text.GFXU_DrawImageJpgInternal
                0x9d005c70      0xfe4 build/pic32mz_ef_sk_meb2/production/_ext/1597685232/gfxu_image_jpg_internal.o
                0x9d005c70                GFXU_DrawImageJpgInternal

.text.lodepng_inflate
                0x9d006c54      0x978
 .text.lodepng_inflate
                0x9d006c54      0x978 build/pic32mz_ef_sk_meb2/production/_ext/493934858/lodepng.o
                0x9d006c54                lodepng_inflate

.text.JPEG_bReadHeader
                0x9d0075cc      0x880
 .text.JPEG_bReadHeader
                0x9d0075cc      0x880 build/pic32mz_ef_sk_meb2/production/_ext/1597685232/gfxu_image_jpg_internal.o

.rodata         0x9d007e4c      0x878
 .rodata        0x9d007e4c      0x878 build/pic32mz_ef_sk_meb2/production/_ext/1360937237/ov2640.o
                0x9d007e4c                OV2640_352x288_JPEG
                0x9d007e9c                OV2640_320x240_JPEG
                0x9d007eec                OV2640_176x144_JPEG
                0x9d007f3c                OV2640_160x120_JPEG
                0x9d007f8c                OV2640_JPEG
                0x9d007f9c                OV2640_YUV422
                0x9d007fb0                OV2640_JPEG_INIT
                0x9d00812c                OV2640_QVGA
                0x9d0082e4                OV2640_QQVGA
                0x9d008574                change_reg

.text.jpeg_idct_islow
                0x9d0086c4      0x6b8
 .text.jpeg_idct_islow
                0x9d0086c4      0x6b8 build/pic32mz_ef_sk_meb2/production/_ext/426253641/jidctint.o
                0x9d0086c4                jpeg_idct_islow

.text.getPixelColorsRGBA8
                0x9d008d7c      0x540
 .text.getPixelColorsRGBA8
                0x9d008d7c      0x540 build/pic32mz_ef_sk_meb2/production/_ext/493934858/lodepng.o

.text.lodepng_convert
                0x9d0092bc      0x538
 .text.lodepng_convert
                0x9d0092bc      0x538 build/pic32mz_ef_sk_meb2/production/_ext/493934858/lodepng.o
                0x9d0092bc                lodepng_convert

.text.run       0x9d0097f4      0xa28
 .text.run      0x9d0097f4      0x538 build/pic32mz_ef_sk_meb2/production/_ext/1597685232/gfxu_string_external.o
 .text.run      0x9d009d2c      0x4f0 build/pic32mz_ef_sk_meb2/production/_ext/1597685232/gfxu_image_rle_external.o

.text.contextDefInitialization
                0x9d00a21c      0x45c
 .text.contextDefInitialization
                0x9d00a21c      0x45c build/pic32mz_ef_sk_meb2/production/_ext/1847583374/gfx_default_impl.o
                0x9d00a21c                contextDefInitialization

.text.run       0x9d00a678      0x434
 .text.run      0x9d00a678      0x434 build/pic32mz_ef_sk_meb2/production/_ext/1597685232/gfxu_image_raw_external.o

.text.getPixelColorRGBA8
                0x9d00aaac      0x400
 .text.getPixelColorRGBA8
                0x9d00aaac      0x400 build/pic32mz_ef_sk_meb2/production/_ext/493934858/lodepng.o

.text.unfilter  0x9d00aeac      0x390
 .text.unfilter
                0x9d00aeac      0x390 build/pic32mz_ef_sk_meb2/production/_ext/493934858/lodepng.o

.text.HuffmanTree_makeFromLengths2
                0x9d00b23c      0x350
 .text.HuffmanTree_makeFromLengths2
                0x9d00b23c      0x350 build/pic32mz_ef_sk_meb2/production/_ext/493934858/lodepng.o

.text.cpuDrawBlit
                0x9d00b58c      0x350
 .text.cpuDrawBlit
                0x9d00b58c      0x350 build/pic32mz_ef_sk_meb2/production/_ext/1847583374/gfx_draw_blit.o
                0x9d00b58c                cpuDrawBlit

.text.GFXU_DrawImageRLEInternal
                0x9d00b8dc      0x318
 .text.GFXU_DrawImageRLEInternal
                0x9d00b8dc      0x318 build/pic32mz_ef_sk_meb2/production/_ext/1597685232/gfxu_image_rle_internal.o
                0x9d00b8dc                GFXU_DrawImageRLEInternal

.text.GFX_Open  0x9d00bbf4      0x30c
 .text.GFX_Open
                0x9d00bbf4      0x30c build/pic32mz_ef_sk_meb2/production/_ext/1847583374/gfx.o
                0x9d00bbf4                GFX_Open

.text.malloc    0x9d00bf00      0x288
 .text.malloc   0x9d00bf00      0x288 c:/program files (x86)/microchip/xc32/v1.42/bin/bin/../../lib/gcc/pic32mx/4.8.3/../../../../pic32mx/lib\libc.a(malloc.o)
                0x9d00bf00                malloc

.text.fpsubadd  0x9d00c188      0x278
 .text.fpsubadd
                0x9d00c188      0x278 c:/program files (x86)/microchip/xc32/v1.42/bin/bin/../../lib/gcc/pic32mx/4.8.3/../../../../pic32mx/lib\libm.a(fp32subadd.o)
                0x9d00c188                __subsf3
                0x9d00c188                fpsub
                0x9d00c190                __addsf3
                0x9d00c190                fpadd

.text.drawImage
                0x9d00c400      0x264
 .text.drawImage
                0x9d00c400      0x264 build/pic32mz_ef_sk_meb2/production/_ext/1907747181/libaria_widget_button_skin_classic.o

.text.laUtils_ArrangeRectangleRelative
                0x9d00c664      0x260
 .text.laUtils_ArrangeRectangleRelative
                0x9d00c664      0x260 build/pic32mz_ef_sk_meb2/production/_ext/1907747181/libaria_utils.o
                0x9d00c664                laUtils_ArrangeRectangleRelative

.text.GFXU_DrawImage
                0x9d00c8c4      0x250
 .text.GFXU_DrawImage
                0x9d00c8c4      0x250 build/pic32mz_ef_sk_meb2/production/_ext/1597685232/gfxu_image.o
                0x9d00c8c4                GFXU_DrawImage

.text.ScreenCreate_default
                0x9d00cb14      0x250
 .text.ScreenCreate_default
                0x9d00cb14      0x250 build/pic32mz_ef_sk_meb2/production/_ext/1740298103/libaria_init.o

.text.lodepng_inspect
                0x9d00cd64      0x24c
 .text.lodepng_inspect
                0x9d00cd64      0x24c build/pic32mz_ef_sk_meb2/production/_ext/493934858/lodepng.o
                0x9d00cd64                lodepng_inspect

.text._laContext_PaintWidget
                0x9d00cfb0      0x240
 .text._laContext_PaintWidget
                0x9d00cfb0      0x240 build/pic32mz_ef_sk_meb2/production/_ext/1907747181/libaria_context_paint.o
                0x9d00cfb0                _laContext_PaintWidget

.text.fp32div   0x9d00d1f0      0x230
 .text.fp32div  0x9d00d1f0      0x230 c:/program files (x86)/microchip/xc32/v1.42/bin/bin/../../lib/gcc/pic32mx/4.8.3/../../../../pic32mx/lib\libm.a(fp32div.o)
                0x9d00d1f0                fpdiv
                0x9d00d1f0                __divsf3

.text.getPixelColorRGBA16
                0x9d00d420      0x224
 .text.getPixelColorRGBA16
                0x9d00d420      0x224 build/pic32mz_ef_sk_meb2/production/_ext/493934858/lodepng.o

.text.SYS_PORTS_Initialize
                0x9d00d644      0x210
 .text.SYS_PORTS_Initialize
                0x9d00d644      0x210 build/pic32mz_ef_sk_meb2/production/_ext/50030870/sys_ports_static.o
                0x9d00d644                SYS_PORTS_Initialize

.text.drawImage
                0x9d00d854      0x204
 .text.drawImage
                0x9d00d854      0x204 build/pic32mz_ef_sk_meb2/production/_ext/1907747181/libaria_widget_image_skin_classic.o

.text.lccInitialize
                0x9d00da58      0x200
 .text.lccInitialize
                0x9d00da58      0x200 build/pic32mz_ef_sk_meb2/production/_ext/713288229/drv_gfx_lcc_generic.o

.text.laUtils_ArrangeRectangle
                0x9d00dc58      0x1fc
 .text.laUtils_ArrangeRectangle
                0x9d00dc58      0x1fc build/pic32mz_ef_sk_meb2/production/_ext/1907747181/libaria_utils.o
                0x9d00dc58                laUtils_ArrangeRectangle

.text.GFXU_DecodeUTF8
                0x9d00de54      0x1f8
 .text.GFXU_DecodeUTF8
                0x9d00de54      0x1f8 build/pic32mz_ef_sk_meb2/production/_ext/1597685232/gfxu_string_utils.o
                0x9d00de54                GFXU_DecodeUTF8

.text.DRV_GFX_LCC_DisplayRefresh
                0x9d00e04c      0x1f8
 .text.DRV_GFX_LCC_DisplayRefresh
                0x9d00e04c      0x1f8 build/pic32mz_ef_sk_meb2/production/_ext/713288229/drv_gfx_lcc_generic.o
                0x9d00e04c                DRV_GFX_LCC_DisplayRefresh

.text.lodepng_add_itext
                0x9d00e244      0x1f0
 .text.lodepng_add_itext
                0x9d00e244      0x1f0 build/pic32mz_ef_sk_meb2/production/_ext/493934858/lodepng.o
                0x9d00e244                lodepng_add_itext

.text.drawString
                0x9d00e434      0x1f0
 .text.drawString
                0x9d00e434      0x1f0 build/pic32mz_ef_sk_meb2/production/_ext/1907747181/libaria_widget_button_skin_classic.o

.text.lodepng_zlib_decompress
                0x9d00e624      0x1dc
 .text.lodepng_zlib_decompress
                0x9d00e624      0x1dc build/pic32mz_ef_sk_meb2/production/_ext/493934858/lodepng.o
                0x9d00e624                lodepng_zlib_decompress

.text.GFXU_DrawImagePngInternal
                0x9d00e800      0x1d0
 .text.GFXU_DrawImagePngInternal
                0x9d00e800      0x1d0 build/pic32mz_ef_sk_meb2/production/_ext/1597685232/gfxu_image_png_internal.o
                0x9d00e800                GFXU_DrawImagePngInternal

.text.fp32mul   0x9d00e9d0      0x1bc
 .text.fp32mul  0x9d00e9d0      0x1bc c:/program files (x86)/microchip/xc32/v1.42/bin/bin/../../lib/gcc/pic32mx/4.8.3/../../../../pic32mx/lib\libm.a(fp32mul.o)
                0x9d00e9d0                __mulsf3
                0x9d00e9d0                fpmul

.text.GFXU_DrawImageRawInternal
                0x9d00eb8c      0x1b8
 .text.GFXU_DrawImageRawInternal
                0x9d00eb8c      0x1b8 build/pic32mz_ef_sk_meb2/production/_ext/1597685232/gfxu_image_raw_internal.o
                0x9d00eb8c                GFXU_DrawImageRawInternal

.text.SYS_CLK_Initialize
                0x9d00ed44      0x1b8
 .text.SYS_CLK_Initialize
                0x9d00ed44      0x1b8 build/pic32mz_ef_sk_meb2/production/_ext/1847413222/sys_clk.o
                0x9d00ed44                SYS_CLK_Initialize

.text.IntHandlerDrvTmrInstance0
                0x9d00eefc      0x1b0
 .text.IntHandlerDrvTmrInstance0
                0x9d00eefc      0x1b0 build/pic32mz_ef_sk_meb2/production/_ext/1951523377/system_interrupt.o
                0x9d00eefc                IntHandlerDrvTmrInstance0

.text.IntHandlerDrvTmrInstance1
                0x9d00f0ac      0x1b0
 .text.IntHandlerDrvTmrInstance1
                0x9d00f0ac      0x1b0 build/pic32mz_ef_sk_meb2/production/_ext/1951523377/system_interrupt.o
                0x9d00f0ac                IntHandlerDrvTmrInstance1

.text.laDraw_2x2BevelBorder
                0x9d00f25c      0x1ac
 .text.laDraw_2x2BevelBorder
                0x9d00f25c      0x1ac build/pic32mz_ef_sk_meb2/production/_ext/1907747181/libaria_draw.o
                0x9d00f25c                laDraw_2x2BevelBorder

.text._IntHandlerSysDmaCh0
                0x9d00f408      0x1a8
 .text._IntHandlerSysDmaCh0
                0x9d00f408      0x1a8 build/pic32mz_ef_sk_meb2/production/_ext/1951523377/system_interrupt.o
                0x9d00f408                _IntHandlerSysDmaCh0

.text.laScheme_Initialize
                0x9d00f5b0      0x1a4
 .text.laScheme_Initialize
                0x9d00f5b0      0x1a4 build/pic32mz_ef_sk_meb2/production/_ext/1907747181/libaria_scheme.o
                0x9d00f5b0                laScheme_Initialize

.text           0x9d00f754      0x1a0
 .text          0x9d00f754      0x1a0 c:/program files (x86)/microchip/xc32/v1.42/bin/bin/../../lib/gcc/pic32mx/4.8.3/../../../../pic32mx/lib\libpic32.a(strcpy.o)
                0x9d00f754                strcpy

.text.Adam7_getpassvalues
                0x9d00f8f4      0x19c
 .text.Adam7_getpassvalues
                0x9d00f8f4      0x19c build/pic32mz_ef_sk_meb2/production/_ext/493934858/lodepng.o

.text._LCCRefreshISR
                0x9d00fa90      0x19c
 .text._LCCRefreshISR
                0x9d00fa90      0x19c build/pic32mz_ef_sk_meb2/production/_ext/713288229/drv_gfx_lcc_generic.o
                0x9d00fa90                _LCCRefreshISR

.text.cpuDrawLine
                0x9d00fc2c      0x198
 .text.cpuDrawLine
                0x9d00fc2c      0x198 build/pic32mz_ef_sk_meb2/production/_ext/1847583374/gfx_draw_line.o
                0x9d00fc2c                cpuDrawLine

.text._sbrk_init
                0x9d00fdc4      0x194
 .text._sbrk_init
                0x9d00fdc4      0x194 c:/program files (x86)/microchip/xc32/v1.42/bin/bin/../../lib/gcc/pic32mx/4.8.3/../../../../pic32mx/lib\libpic32.a(sbrk.o)
                0x9d00fdc4                _sbrk_init

.text.GFXU_DecodeAndDrawString
                0x9d00ff58      0x188
 .text.GFXU_DecodeAndDrawString
                0x9d00ff58      0x188 build/pic32mz_ef_sk_meb2/production/_ext/1597685232/gfxu_string_utils.o
                0x9d00ff58                GFXU_DecodeAndDrawString

.text.drawBackground
                0x9d0100e0      0x180
 .text.drawBackground
                0x9d0100e0      0x180 build/pic32mz_ef_sk_meb2/production/_ext/1907747181/libaria_widget_button_skin_classic.o

.text.drawString
                0x9d010260      0x17c
 .text.drawString
                0x9d010260      0x17c build/pic32mz_ef_sk_meb2/production/_ext/1907747181/libaria_widget_label_skin_classic.o

.text.laContext_Create
                0x9d0103dc      0x174
 .text.laContext_Create
                0x9d0103dc      0x174 build/pic32mz_ef_sk_meb2/production/_ext/1907747181/libaria_context.o
                0x9d0103dc                laContext_Create

.text.SYS_DMA_ChannelSetup
                0x9d010550      0x16c
 .text.SYS_DMA_ChannelSetup
                0x9d010550      0x16c build/pic32mz_ef_sk_meb2/production/_ext/853959373/sys_dma.o
                0x9d010550                SYS_DMA_ChannelSetup

.text.GFXU_CompareString
                0x9d0106bc      0x168
 .text.GFXU_CompareString
                0x9d0106bc      0x168 build/pic32mz_ef_sk_meb2/production/_ext/1597685232/gfxu_string_utils.o
                0x9d0106bc                GFXU_CompareString

.text.defColorModeSet
                0x9d010824      0x168
 .text.defColorModeSet
                0x9d010824      0x168 build/pic32mz_ef_sk_meb2/production/_ext/1847583374/gfx_default_impl.o
                0x9d010824                defColorModeSet

.text           0x9d01098c      0x2d0
 .text          0x9d01098c      0x168 c:/program files (x86)/microchip/xc32/v1.42/bin/bin/../../lib/gcc/pic32mx/4.8.3/../../../../pic32mx/lib\libpic32.a(memcpy.o)
                0x9d01098c                memcpy
 .text          0x9d010af4      0x168 c:/program files (x86)/microchip/xc32/v1.42/bin/bin/../../lib/gcc/pic32mx/4.8.3/../../../../pic32mx/lib\libpic32.a(strlen.o)
                0x9d010af4                strlen

.text.GFXU_DrawStringBufferInternal
                0x9d010c5c      0x15c
 .text.GFXU_DrawStringBufferInternal
                0x9d010c5c      0x15c build/pic32mz_ef_sk_meb2/production/_ext/1597685232/gfxu_string_internal.o
                0x9d010c5c                GFXU_DrawStringBufferInternal

.text.blend_rgb565
                0x9d010db8      0x15c
 .text.blend_rgb565
                0x9d010db8      0x15c build/pic32mz_ef_sk_meb2/production/_ext/1847583374/gfx_color_blend.o

.text.SYS_DMA_ChannelTransferAdd
                0x9d010f14      0x15c
 .text.SYS_DMA_ChannelTransferAdd
                0x9d010f14      0x15c build/pic32mz_ef_sk_meb2/production/_ext/853959373/sys_dma.o
                0x9d010f14                SYS_DMA_ChannelTransferAdd

.text.laDraw_1x2BevelBorder
                0x9d011070      0x158
 .text.laDraw_1x2BevelBorder
                0x9d011070      0x158 build/pic32mz_ef_sk_meb2/production/_ext/1907747181/libaria_draw.o
                0x9d011070                laDraw_1x2BevelBorder

.text.blend_rgba8888
                0x9d0111c8      0x154
 .text.blend_rgba8888
                0x9d0111c8      0x154 build/pic32mz_ef_sk_meb2/production/_ext/1847583374/gfx_color_blend.o

.text.GFX_LayerOriginFromOrientedSpace
                0x9d01131c      0x14c
 .text.GFX_LayerOriginFromOrientedSpace
                0x9d01131c      0x14c build/pic32mz_ef_sk_meb2/production/_ext/1847583374/gfx_util.o
                0x9d01131c                GFX_LayerOriginFromOrientedSpace

.text.realloc   0x9d011468      0x14c
 .text.realloc  0x9d011468      0x14c c:/program files (x86)/microchip/xc32/v1.42/bin/bin/../../lib/gcc/pic32mx/4.8.3/../../../../pic32mx/lib\libc.a(malloc.o)
                0x9d011468                realloc

.text.cpuDrawCircle_Line
                0x9d0115b4      0x148
 .text.cpuDrawCircle_Line
                0x9d0115b4      0x148 build/pic32mz_ef_sk_meb2/production/_ext/1847583374/gfx_draw_circle.o
                0x9d0115b4                cpuDrawCircle_Line

.text.cpuDrawRect_Fill
                0x9d0116fc      0x144
 .text.cpuDrawRect_Fill
                0x9d0116fc      0x144 build/pic32mz_ef_sk_meb2/production/_ext/1847583374/gfx_draw_rect.o
                0x9d0116fc                cpuDrawRect_Fill

.text.JPEG_bGet1Bit
                0x9d011840      0x140
 .text.JPEG_bGet1Bit
                0x9d011840      0x140 build/pic32mz_ef_sk_meb2/production/_ext/1597685232/gfxu_image_jpg_internal.o

.text.rleReadRequestCompleted
                0x9d011980      0x140
 .text.rleReadRequestCompleted
                0x9d011980      0x140 build/pic32mz_ef_sk_meb2/production/_ext/1597685232/gfxu_image_rle_external.o

.text.cpuDrawRect_Gradient_LeftRight
                0x9d011ac0      0x140
 .text.cpuDrawRect_Gradient_LeftRight
                0x9d011ac0      0x140 build/pic32mz_ef_sk_meb2/production/_ext/1847583374/gfx_draw_rect.o
                0x9d011ac0                cpuDrawRect_Gradient_LeftRight

.text.cpuDrawRect_Gradient_TopBottom
                0x9d011c00      0x140
 .text.cpuDrawRect_Gradient_TopBottom
                0x9d011c00      0x140 build/pic32mz_ef_sk_meb2/production/_ext/1847583374/gfx_draw_rect.o
                0x9d011c00                cpuDrawRect_Gradient_TopBottom

.text.cpuDrawLine_Thick
                0x9d011d40      0x13c
 .text.cpuDrawLine_Thick
                0x9d011d40      0x13c build/pic32mz_ef_sk_meb2/production/_ext/1847583374/gfx_draw_line.o
                0x9d011d40                cpuDrawLine_Thick

.text.lccUpdate
                0x9d011e7c      0x138
 .text.lccUpdate
                0x9d011e7c      0x138 build/pic32mz_ef_sk_meb2/production/_ext/713288229/drv_gfx_lcc_generic.o

.text.GFX_Close
                0x9d011fb4      0x134
 .text.GFX_Close
                0x9d011fb4      0x134 build/pic32mz_ef_sk_meb2/production/_ext/1847583374/gfx.o
                0x9d011fb4                GFX_Close

.text.defOrientationSet
                0x9d0120e8      0x134
 .text.defOrientationSet
                0x9d0120e8      0x134 build/pic32mz_ef_sk_meb2/production/_ext/1847583374/gfx_default_impl.o
                0x9d0120e8                defOrientationSet

.text.setLayerAttributes
                0x9d01221c      0x12c
 .text.setLayerAttributes
                0x9d01221c      0x12c build/pic32mz_ef_sk_meb2/production/_ext/1907747181/libaria_screen.o

.text.drawEdge  0x9d012348      0x12c
 .text.drawEdge
                0x9d012348      0x12c build/pic32mz_ef_sk_meb2/production/_ext/1907747181/libaria_widget_rectangle_skin_classic.o

.text.checkColorValidity
                0x9d012474      0x128
 .text.checkColorValidity
                0x9d012474      0x128 build/pic32mz_ef_sk_meb2/production/_ext/493934858/lodepng.o

.rodata         0x9d01259c      0x128
 .rodata        0x9d01259c      0x128 build/pic32mz_ef_sk_meb2/production/_ext/1951523377/system_exceptions.o

.text._laWidget_InvalidateRight
                0x9d0126c4      0x124
 .text._laWidget_InvalidateRight
                0x9d0126c4      0x124 build/pic32mz_ef_sk_meb2/production/_ext/1907747181/libaria_widget.o
                0x9d0126c4                _laWidget_InvalidateRight

.text.drawBackground
                0x9d0127e8      0x124
 .text.drawBackground
                0x9d0127e8      0x124 build/pic32mz_ef_sk_meb2/production/_ext/1907747181/libaria_widget_label_skin_classic.o

.text.GFX_LayerOriginToOrientedSpace
                0x9d01290c      0x124
 .text.GFX_LayerOriginToOrientedSpace
                0x9d01290c      0x124 build/pic32mz_ef_sk_meb2/production/_ext/1847583374/gfx_util.o
                0x9d01290c                GFX_LayerOriginToOrientedSpace

.text.stringDataRequestCompleted
                0x9d012a30      0x11c
 .text.stringDataRequestCompleted
                0x9d012a30      0x11c build/pic32mz_ef_sk_meb2/production/_ext/1597685232/gfxu_string_external.o

.text.GFXU_CalculateStringWidth
                0x9d012b4c      0x118
 .text.GFXU_CalculateStringWidth
                0x9d012b4c      0x118 build/pic32mz_ef_sk_meb2/production/_ext/1597685232/gfxu_string_query.o
                0x9d012b4c                GFXU_CalculateStringWidth

.text._laContext_Paint
                0x9d012c64      0x118
 .text._laContext_Paint
                0x9d012c64      0x118 build/pic32mz_ef_sk_meb2/production/_ext/1907747181/libaria_context_paint.o
                0x9d012c64                _laContext_Paint

.text.laWidget_Invalidate
                0x9d012d7c      0x118
 .text.laWidget_Invalidate
                0x9d012d7c      0x118 build/pic32mz_ef_sk_meb2/production/_ext/1907747181/libaria_widget.o
                0x9d012d7c                laWidget_Invalidate

.text.cpuDrawPixel_Unsafe
                0x9d012e94      0x118
 .text.cpuDrawPixel_Unsafe
                0x9d012e94      0x118 build/pic32mz_ef_sk_meb2/production/_ext/1847583374/gfx_draw_pixel.o
                0x9d012e94                cpuDrawPixel_Unsafe

.text.lodepng_add_text
                0x9d012fac      0x114
 .text.lodepng_add_text
                0x9d012fac      0x114 build/pic32mz_ef_sk_meb2/production/_ext/493934858/lodepng.o
                0x9d012fac                lodepng_add_text

.text._laWidget_Constructor
                0x9d0130c0      0x114
 .text._laWidget_Constructor
                0x9d0130c0      0x114 build/pic32mz_ef_sk_meb2/production/_ext/1907747181/libaria_widget.o
                0x9d0130c0                _laWidget_Constructor

.text.defDestroy
                0x9d0131d4      0x110
 .text.defDestroy
                0x9d0131d4      0x110 build/pic32mz_ef_sk_meb2/production/_ext/1847583374/gfx_default_impl.o
                0x9d0131d4                defDestroy

.text._occlusionCullTestAscending
                0x9d0132e4      0x10c
 .text._occlusionCullTestAscending
                0x9d0132e4      0x10c build/pic32mz_ef_sk_meb2/production/_ext/1907747181/libaria_utils.o
                0x9d0132e4                _occlusionCullTestAscending

.text.touchUp   0x9d0133f0      0x108
 .text.touchUp  0x9d0133f0      0x108 build/pic32mz_ef_sk_meb2/production/_ext/1907747181/libaria_widget_button.o

.text.layerBufferAllocate
                0x9d0134f8      0x108
 .text.layerBufferAllocate
                0x9d0134f8      0x108 build/pic32mz_ef_sk_meb2/production/_ext/1847583374/gfx_default_impl.o

.text.SYS_DEVCON_PerformanceConfig
                0x9d013600      0x104
 .text.SYS_DEVCON_PerformanceConfig
                0x9d013600      0x104 build/pic32mz_ef_sk_meb2/production/_ext/924081491/sys_devcon_pic32mz.o
                0x9d013600                SYS_DEVCON_PerformanceConfig

.text.color_tree_add
                0x9d013704      0x100
 .text.color_tree_add
                0x9d013704      0x100 build/pic32mz_ef_sk_meb2/production/_ext/493934858/lodepng.o

.text.laString_Compare
                0x9d013804       0xfc
 .text.laString_Compare
                0x9d013804       0xfc build/pic32mz_ef_sk_meb2/production/_ext/1907747181/libaria_string.o
                0x9d013804                laString_Compare

.text.drawBackground
                0x9d013900      0x1f8
 .text.drawBackground
                0x9d013900       0xfc build/pic32mz_ef_sk_meb2/production/_ext/1907747181/libaria_widget_image_skin_classic.o
 .text.drawBackground
                0x9d0139fc       0xfc build/pic32mz_ef_sk_meb2/production/_ext/1907747181/libaria_widget_rectangle_skin_classic.o

.text.cpuDrawRect_Line
                0x9d013af8       0xf8
 .text.cpuDrawRect_Line
                0x9d013af8       0xf8 build/pic32mz_ef_sk_meb2/production/_ext/1847583374/gfx_draw_rect.o
                0x9d013af8                cpuDrawRect_Line

.text.SYS_DMA_TasksISR
                0x9d013bf0       0xf8
 .text.SYS_DMA_TasksISR
                0x9d013bf0       0xf8 build/pic32mz_ef_sk_meb2/production/_ext/853959373/sys_dma.o
                0x9d013bf0                SYS_DMA_TasksISR

.text.laList_Remove
                0x9d013ce8       0xf4
 .text.laList_Remove
                0x9d013ce8       0xf4 build/pic32mz_ef_sk_meb2/production/_ext/1907747181/libaria_list.o
                0x9d013ce8                laList_Remove

.text.SYS_Initialize
                0x9d013ddc       0xf4
 .text.SYS_Initialize
                0x9d013ddc       0xf4 build/pic32mz_ef_sk_meb2/production/_ext/1951523377/system_init.o
                0x9d013ddc                SYS_Initialize

.text.ov2640Initialisation
                0x9d000010       0xf0
 .text.ov2640Initialisation
                0x9d000010       0xf0 build/pic32mz_ef_sk_meb2/production/_ext/1360937237/ov2640.o
                0x9d000010                ov2640Initialisation

.text.GFXU_DrawString
                0x9d013ed0       0xf0
 .text.GFXU_DrawString
                0x9d013ed0       0xf0 build/pic32mz_ef_sk_meb2/production/_ext/1597685232/gfxu_string.o
                0x9d013ed0                GFXU_DrawString

.text.defMirroringSet
                0x9d013fc0       0xf0
 .text.defMirroringSet
                0x9d013fc0       0xf0 build/pic32mz_ef_sk_meb2/production/_ext/1847583374/gfx_default_impl.o
                0x9d013fc0                defMirroringSet

.text.defLayerBufferCountSet
                0x9d0140b0       0xf0
 .text.defLayerBufferCountSet
                0x9d0140b0       0xf0 build/pic32mz_ef_sk_meb2/production/_ext/1847583374/gfx_default_impl.o
                0x9d0140b0                defLayerBufferCountSet

.text.laScreen_Hide
                0x9d0141a0       0xec
 .text.laScreen_Hide
                0x9d0141a0       0xec build/pic32mz_ef_sk_meb2/production/_ext/1907747181/libaria_screen.o
                0x9d0141a0                laScreen_Hide

.text.laString_Copy
                0x9d01428c       0xec
 .text.laString_Copy
                0x9d01428c       0xec build/pic32mz_ef_sk_meb2/production/_ext/1907747181/libaria_string.o
                0x9d01428c                laString_Copy

.text.laUtils_OcclusionCullTest
                0x9d014378       0xec
 .text.laUtils_OcclusionCullTest
                0x9d014378       0xec build/pic32mz_ef_sk_meb2/production/_ext/1907747181/libaria_utils.o
                0x9d014378                laUtils_OcclusionCullTest

.text.touchMoved
                0x9d014464       0xec
 .text.touchMoved
                0x9d014464       0xec build/pic32mz_ef_sk_meb2/production/_ext/1907747181/libaria_widget_button.o

.text.getRLEDataAtIndex
                0x9d014550       0xe8
 .text.getRLEDataAtIndex
                0x9d014550       0xe8 build/pic32mz_ef_sk_meb2/production/_ext/1597685232/gfxu_image_utils.o
                0x9d014550                getRLEDataAtIndex

.text.laUtils_Pick
                0x9d014638       0xe8
 .text.laUtils_Pick
                0x9d014638       0xe8 build/pic32mz_ef_sk_meb2/production/_ext/1907747181/libaria_utils.o
                0x9d014638                laUtils_Pick

.text.GFX_PixelBufferCreate
                0x9d014720       0xe8
 .text.GFX_PixelBufferCreate
                0x9d014720       0xe8 build/pic32mz_ef_sk_meb2/production/_ext/1847583374/gfx_pixel_buffer.o
                0x9d014720                GFX_PixelBufferCreate

.text.lodepng_color_mode_copy
                0x9d014808       0xe4
 .text.lodepng_color_mode_copy
                0x9d014808       0xe4 build/pic32mz_ef_sk_meb2/production/_ext/493934858/lodepng.o
                0x9d014808                lodepng_color_mode_copy

.text.laString_Draw
                0x9d0148ec       0xe4
 .text.laString_Draw
                0x9d0148ec       0xe4 build/pic32mz_ef_sk_meb2/production/_ext/1907747181/libaria_string.o
                0x9d0148ec                laString_Draw

.text.drawBackground
                0x9d0149d0       0xe4
 .text.drawBackground
                0x9d0149d0       0xe4 build/pic32mz_ef_sk_meb2/production/_ext/1907747181/libaria_widget_skin_classic.o

.text.GFXU_DrawImageRawExternal
                0x9d014ab4       0xe0
 .text.GFXU_DrawImageRawExternal
                0x9d014ab4       0xe0 build/pic32mz_ef_sk_meb2/production/_ext/1597685232/gfxu_image_raw_external.o
                0x9d014ab4                GFXU_DrawImageRawExternal

.text.GFXU_DrawImageRLEExternal
                0x9d014b94       0xe0
 .text.GFXU_DrawImageRLEExternal
                0x9d014b94       0xe0 build/pic32mz_ef_sk_meb2/production/_ext/1597685232/gfxu_image_rle_external.o
                0x9d014b94                GFXU_DrawImageRLEExternal

.text.GFX_DrawLine
                0x9d014c74       0xe0
 .text.GFX_DrawLine
                0x9d014c74       0xe0 build/pic32mz_ef_sk_meb2/production/_ext/1847583374/gfx.o
                0x9d014c74                GFX_DrawLine

.text.lodepng_color_mode_equal
                0x9d014d54       0xdc
 .text.lodepng_color_mode_equal
                0x9d014d54       0xdc build/pic32mz_ef_sk_meb2/production/_ext/493934858/lodepng.o

.text.waitImage
                0x9d014e30       0xdc
 .text.waitImage
                0x9d014e30       0xdc build/pic32mz_ef_sk_meb2/production/_ext/1907747181/libaria_widget_button_skin_classic.o

.text.GFX_DrawRect
                0x9d014f0c       0xdc
 .text.GFX_DrawRect
                0x9d014f0c       0xdc build/pic32mz_ef_sk_meb2/production/_ext/1847583374/gfx.o
                0x9d014f0c                GFX_DrawRect

.text.GFX_DrawBlit
                0x9d014fe8       0xdc
 .text.GFX_DrawBlit
                0x9d014fe8       0xdc build/pic32mz_ef_sk_meb2/production/_ext/1847583374/gfx.o
                0x9d014fe8                GFX_DrawBlit

.text.general_exception
                0x9d0150c4       0xdc
 .text.general_exception
                0x9d0150c4       0xdc c:/program files (x86)/microchip/xc32/v1.42/bin/bin/../../lib/gcc/pic32mx/4.8.3/../../../../pic32mx/lib\libpic32.a(general-exception.o)
                0x9d0150c4                _general_exception_context

.text.drawBorder
                0x9d0151a0       0xd8
 .text.drawBorder
                0x9d0151a0       0xd8 build/pic32mz_ef_sk_meb2/production/_ext/1907747181/libaria_widget_button_skin_classic.o

.text.defInitialize
                0x9d015278       0xd8
 .text.defInitialize
                0x9d015278       0xd8 build/pic32mz_ef_sk_meb2/production/_ext/1847583374/gfx_default_impl.o
                0x9d015278                defInitialize

.text._cache_err_exception_context
                0x9d015350       0xd8
 .text._cache_err_exception_context
                0x9d015350       0xd8 c:/program files (x86)/microchip/xc32/v1.42/bin/bin/../../lib/gcc/pic32mx/4.8.3/../../../../pic32mx/lib\libpic32.a(cache-err-exception.o)
                0x9d015350                _cache_err_exception_context

.text.simple_tlb_refill_context
                0x9d015428       0xd8
 .text.simple_tlb_refill_context
                0x9d015428       0xd8 c:/program files (x86)/microchip/xc32/v1.42/bin/bin/../../lib/gcc/pic32mx/4.8.3/../../../../pic32mx/lib\libpic32.a(simple-tlb-refill-exception.o)
                0x9d015428                _simple_tlb_refill_exception_context

.text.generateFixedLitLenTree
                0x9d015500       0xd4
 .text.generateFixedLitLenTree
                0x9d015500       0xd4 build/pic32mz_ef_sk_meb2/production/_ext/493934858/lodepng.o

.text.GFXU_DrawStringExternal
                0x9d0155d4       0xd0
 .text.GFXU_DrawStringExternal
                0x9d0155d4       0xd0 build/pic32mz_ef_sk_meb2/production/_ext/1597685232/gfxu_string_external.o
                0x9d0155d4                GFXU_DrawStringExternal

.text.laEvent_ProcessEvents
                0x9d0156a4       0xd0
 .text.laEvent_ProcessEvents
                0x9d0156a4       0xd0 build/pic32mz_ef_sk_meb2/production/_ext/1907747181/libaria_event.o
                0x9d0156a4                laEvent_ProcessEvents

.text.drawBorder
                0x9d015774      0x340
 .text.drawBorder
                0x9d015774       0xd0 build/pic32mz_ef_sk_meb2/production/_ext/1907747181/libaria_widget_skin_classic.o
 .text.drawBorder
                0x9d015844       0xd0 build/pic32mz_ef_sk_meb2/production/_ext/1907747181/libaria_widget_image_skin_classic.o
 .text.drawBorder
                0x9d015914       0xd0 build/pic32mz_ef_sk_meb2/production/_ext/1907747181/libaria_widget_label_skin_classic.o
 .text.drawBorder
                0x9d0159e4       0xd0 build/pic32mz_ef_sk_meb2/production/_ext/1907747181/libaria_widget_rectangle_skin_classic.o

.text.color_tree_get
                0x9d015ab4       0xcc
 .text.color_tree_get
                0x9d015ab4       0xcc build/pic32mz_ef_sk_meb2/production/_ext/493934858/lodepng.o

.text.LodePNGIText_cleanup
                0x9d015b80       0xc8
 .text.LodePNGIText_cleanup
                0x9d015b80       0xc8 build/pic32mz_ef_sk_meb2/production/_ext/493934858/lodepng.o

.text.lodepng_chunk_append
                0x9d015c48       0xc8
 .text.lodepng_chunk_append
                0x9d015c48       0xc8 build/pic32mz_ef_sk_meb2/production/_ext/493934858/lodepng.o
                0x9d015c48                lodepng_chunk_append

.text.GFXU_CalculateCharStringWidth
                0x9d015d10       0xc8
 .text.GFXU_CalculateCharStringWidth
                0x9d015d10       0xc8 build/pic32mz_ef_sk_meb2/production/_ext/1597685232/gfxu_string_query.o
                0x9d015d10                GFXU_CalculateCharStringWidth

.text.laScreen_Show
                0x9d015dd8       0xc8
 .text.laScreen_Show
                0x9d015dd8       0xc8 build/pic32mz_ef_sk_meb2/production/_ext/1907747181/libaria_screen.o
                0x9d015dd8                laScreen_Show

.text._sbrk     0x9d015ea0       0xc8
 .text._sbrk    0x9d015ea0       0xc8 c:/program files (x86)/microchip/xc32/v1.42/bin/bin/../../lib/gcc/pic32mx/4.8.3/../../../../pic32mx/lib\libpic32.a(sbrk.o)
                0x9d015ea0                _sbrk

.text.APP_Tasks
                0x9d015f68       0xc4
 .text.APP_Tasks
                0x9d015f68       0xc4 build/pic32mz_ef_sk_meb2/production/_ext/1360937237/app.o
                0x9d015f68                APP_Tasks

.text.drawGlyphRow8bpp
                0x9d01602c       0xc4
 .text.drawGlyphRow8bpp
                0x9d01602c       0xc4 build/pic32mz_ef_sk_meb2/production/_ext/1597685232/gfxu_string_utils.o
                0x9d01602c                drawGlyphRow8bpp

.text.touchDown
                0x9d0160f0       0xc4
 .text.touchDown
                0x9d0160f0       0xc4 build/pic32mz_ef_sk_meb2/production/_ext/1907747181/libaria_widget_button.o

.text.libaria_initialize
                0x9d0161b4       0xc4
 .text.libaria_initialize
                0x9d0161b4       0xc4 build/pic32mz_ef_sk_meb2/production/_ext/1740298103/libaria_init.o
                0x9d0161b4                libaria_initialize

.text.removePaddingBits
                0x9d016278       0xc0
 .text.removePaddingBits
                0x9d016278       0xc0 build/pic32mz_ef_sk_meb2/production/_ext/493934858/lodepng.o

.text.la_strcmp
                0x9d016338       0xc0
 .text.la_strcmp
                0x9d016338       0xc0 build/pic32mz_ef_sk_meb2/production/_ext/1907747181/libaria_string.o

.text.pickChild
                0x9d0163f8       0xc0
 .text.pickChild
                0x9d0163f8       0xc0 build/pic32mz_ef_sk_meb2/production/_ext/1907747181/libaria_utils.o

.text.JPEG_bGetNextHuffByte
                0x9d0164b8       0xbc
 .text.JPEG_bGetNextHuffByte
                0x9d0164b8       0xbc build/pic32mz_ef_sk_meb2/production/_ext/1597685232/gfxu_image_jpg_internal.o

.text.defLayerBufferAddressSet
                0x9d016574       0xbc
 .text.defLayerBufferAddressSet
                0x9d016574       0xbc build/pic32mz_ef_sk_meb2/production/_ext/1847583374/gfx_default_impl.o
                0x9d016574                defLayerBufferAddressSet

.tlb.__pic32_tlb_init_ebi_sqi
                0x9d016630       0xbc
 .tlb.__pic32_tlb_init_ebi_sqi
                0x9d016630       0xbc c:/program files (x86)/microchip/xc32/v1.42/bin/bin/../../lib/gcc/pic32mx/4.8.3/../../../../pic32mx/lib\libpic32.a(pic32_init_tlb_ebi_sqi.o)
                0x9d016630                __pic32_tlb_init_ebi_sqi

.text.drawGlyphRow1bpp
                0x9d0166ec       0xb0
 .text.drawGlyphRow1bpp
                0x9d0166ec       0xb0 build/pic32mz_ef_sk_meb2/production/_ext/1597685232/gfxu_string_utils.o
                0x9d0166ec                drawGlyphRow1bpp

.text.GFXU_FontGetLookupTableEntry
                0x9d01679c       0xb0
 .text.GFXU_FontGetLookupTableEntry
                0x9d01679c       0xb0 build/pic32mz_ef_sk_meb2/production/_ext/1597685232/gfxu_string_utils.o
                0x9d01679c                GFXU_FontGetLookupTableEntry

.text.GFX_DrawPixel
                0x9d01684c       0xb0
 .text.GFX_DrawPixel
                0x9d01684c       0xb0 build/pic32mz_ef_sk_meb2/production/_ext/1847583374/gfx.o
                0x9d01684c                GFX_DrawPixel

.text.get_displayInfo
                0x9d0168fc       0xb0
 .text.get_displayInfo
                0x9d0168fc       0xb0 build/pic32mz_ef_sk_meb2/production/_ext/1847583374/gfx_get.o
                0x9d0168fc                get_displayInfo

.text.lerp_argb8888
                0x9d0169ac       0xb0
 .text.lerp_argb8888
                0x9d0169ac       0xb0 build/pic32mz_ef_sk_meb2/production/_ext/1847583374/gfx_color_lerp.o

.text.lerp_rgba8888
                0x9d016a5c       0xb0
 .text.lerp_rgba8888
                0x9d016a5c       0xb0 build/pic32mz_ef_sk_meb2/production/_ext/1847583374/gfx_color_lerp.o

.text.GFXU_GetStringRect
                0x9d016b0c       0xac
 .text.GFXU_GetStringRect
                0x9d016b0c       0xac build/pic32mz_ef_sk_meb2/production/_ext/1597685232/gfxu_string_query.o
                0x9d016b0c                GFXU_GetStringRect

.text.laString_GetRect
                0x9d016bb8       0xac
 .text.laString_GetRect
                0x9d016bb8       0xac build/pic32mz_ef_sk_meb2/production/_ext/1907747181/libaria_string.o
                0x9d016bb8                laString_GetRect

.text.laWidget_GetCumulativeAlphaAmount
                0x9d016c64       0xac
 .text.laWidget_GetCumulativeAlphaAmount
                0x9d016c64       0xac build/pic32mz_ef_sk_meb2/production/_ext/1907747181/libaria_widget.o
                0x9d016c64                laWidget_GetCumulativeAlphaAmount

.text._laButtonWidget_Constructor
                0x9d016d10       0xac
 .text._laButtonWidget_Constructor
                0x9d016d10       0xac build/pic32mz_ef_sk_meb2/production/_ext/1907747181/libaria_widget_button.o
                0x9d016d10                _laButtonWidget_Constructor

.text.BSP_LEDOff
                0x9d016dbc       0xac
 .text.BSP_LEDOff
                0x9d016dbc       0xac build/pic32mz_ef_sk_meb2/production/_ext/1465531745/bsp.o
                0x9d016dbc                BSP_LEDOff

.text.waitString
                0x9d016e68       0xa8
 .text.waitString
                0x9d016e68       0xa8 build/pic32mz_ef_sk_meb2/production/_ext/1907747181/libaria_widget_button_skin_classic.o

.text.waitImage
                0x9d016f10       0xa8
 .text.waitImage
                0x9d016f10       0xa8 build/pic32mz_ef_sk_meb2/production/_ext/1907747181/libaria_widget_image_skin_classic.o

.text.waitString
                0x9d016fb8       0xa8
 .text.waitString
                0x9d016fb8       0xa8 build/pic32mz_ef_sk_meb2/production/_ext/1907747181/libaria_widget_label_skin_classic.o

.text           0x9d017060       0xa8
 .text          0x9d017060       0xa8 c:/program files (x86)/microchip/xc32/v1.42/bin/bin/../../lib/gcc/pic32mx/4.8.3/../../../../pic32mx/lib\libpic32.a(memset.o)
                0x9d017060                memset

.text.i2c_Write_Bit
                0x9d017108       0xa4
 .text.i2c_Write_Bit
                0x9d017108       0xa4 build/pic32mz_ef_sk_meb2/production/_ext/1360937237/i2c_bitbanging.o
                0x9d017108                i2c_Write_Bit

.text.laScreen_New
                0x9d0171ac       0xa4
 .text.laScreen_New
                0x9d0171ac       0xa4 build/pic32mz_ef_sk_meb2/production/_ext/1907747181/libaria_screen.o
                0x9d0171ac                laScreen_New

.text.cpuDrawLineHorz
                0x9d017250       0xa4
 .text.cpuDrawLineHorz
                0x9d017250       0xa4 build/pic32mz_ef_sk_meb2/production/_ext/1847583374/gfx_draw_line.o
                0x9d017250                cpuDrawLineHorz

.text.HuffmanTree_makeFromLengths
                0x9d0172f4       0xa0
 .text.HuffmanTree_makeFromLengths
                0x9d0172f4       0xa0 build/pic32mz_ef_sk_meb2/production/_ext/493934858/lodepng.o

.text.imageReadRequestCompleted
                0x9d017394       0xa0
 .text.imageReadRequestCompleted
                0x9d017394       0xa0 build/pic32mz_ef_sk_meb2/production/_ext/1597685232/gfxu_image_raw_external.o

.text.GFXU_DecodeUTF16
                0x9d017434       0xa0
 .text.GFXU_DecodeUTF16
                0x9d017434       0xa0 build/pic32mz_ef_sk_meb2/production/_ext/1597685232/gfxu_string_utils.o
                0x9d017434                GFXU_DecodeUTF16

.text.laContext_SetActiveScreen
                0x9d0174d4       0xa0
 .text.laContext_SetActiveScreen
                0x9d0174d4       0xa0 build/pic32mz_ef_sk_meb2/production/_ext/1907747181/libaria_context.o
                0x9d0174d4                laContext_SetActiveScreen

.text.laWidget_AddChild
                0x9d017574       0xa0
 .text.laWidget_AddChild
                0x9d017574       0xa0 build/pic32mz_ef_sk_meb2/production/_ext/1907747181/libaria_widget.o
                0x9d017574                laWidget_AddChild

.text.cpuDrawLineVert
                0x9d017614       0xa0
 .text.cpuDrawLineVert
                0x9d017614       0xa0 build/pic32mz_ef_sk_meb2/production/_ext/1847583374/gfx_draw_line.o
                0x9d017614                cpuDrawLineVert

.text.i2c_Write_Byte
                0x9d0176b4       0x9c
 .text.i2c_Write_Byte
                0x9d0176b4       0x9c build/pic32mz_ef_sk_meb2/production/_ext/1360937237/i2c_bitbanging.o
                0x9d0176b4                i2c_Write_Byte

.text.laContext_RedrawAll
                0x9d017750       0x9c
 .text.laContext_RedrawAll
                0x9d017750       0x9c build/pic32mz_ef_sk_meb2/production/_ext/1907747181/libaria_context.o
                0x9d017750                laContext_RedrawAll

.text.laLayer_New
                0x9d0177ec       0x9c
 .text.laLayer_New
                0x9d0177ec       0x9c build/pic32mz_ef_sk_meb2/production/_ext/1907747181/libaria_layer.o
                0x9d0177ec                laLayer_New

.text.GFX_PixelBufferSet_Unsafe
                0x9d017888       0x9c
 .text.GFX_PixelBufferSet_Unsafe
                0x9d017888       0x9c build/pic32mz_ef_sk_meb2/production/_ext/1847583374/gfx_pixel_buffer.o
                0x9d017888                GFX_PixelBufferSet_Unsafe

.text.i2c_Read_Byte
                0x9d017924       0x98
 .text.i2c_Read_Byte
                0x9d017924       0x98 build/pic32mz_ef_sk_meb2/production/_ext/1360937237/i2c_bitbanging.o
                0x9d017924                i2c_Read_Byte

.text.lerp_rgba5551
                0x9d0179bc       0x98
 .text.lerp_rgba5551
                0x9d0179bc       0x98 build/pic32mz_ef_sk_meb2/production/_ext/1847583374/gfx_color_lerp.o

.text.GFXU_FontGetGlyphInfo
                0x9d017a54       0x94
 .text.GFXU_FontGetGlyphInfo
                0x9d017a54       0x94 build/pic32mz_ef_sk_meb2/production/_ext/1597685232/gfxu_string_utils.o
                0x9d017a54                GFXU_FontGetGlyphInfo

.text.laList_PushBack
                0x9d017ae8       0x94
 .text.laList_PushBack
                0x9d017ae8       0x94 build/pic32mz_ef_sk_meb2/production/_ext/1907747181/libaria_list.o
                0x9d017ae8                laList_PushBack

.text.laUtils_ClipRectToParent
                0x9d017b7c       0x94
 .text.laUtils_ClipRectToParent
                0x9d017b7c       0x94 build/pic32mz_ef_sk_meb2/production/_ext/1907747181/libaria_utils.o
                0x9d017b7c                laUtils_ClipRectToParent

.text.laWidget_SetSize
                0x9d017c10       0x94
 .text.laWidget_SetSize
                0x9d017c10       0x94 build/pic32mz_ef_sk_meb2/production/_ext/1907747181/libaria_widget.o
                0x9d017c10                laWidget_SetSize

.text._laRectangleWidget_Paint
                0x9d017ca4       0x94
 .text._laRectangleWidget_Paint
                0x9d017ca4       0x94 build/pic32mz_ef_sk_meb2/production/_ext/1907747181/libaria_widget_rectangle_skin_classic.o
                0x9d017ca4                _laRectangleWidget_Paint

.text.GFX_PixelBufferClipRect
                0x9d017d38       0x94
 .text.GFX_PixelBufferClipRect
                0x9d017d38       0x94 build/pic32mz_ef_sk_meb2/production/_ext/1847583374/gfx_pixel_buffer.o
                0x9d017d38                GFX_PixelBufferClipRect

.text.DRV_TMR0_Initialize
                0x9d017dcc       0x94
 .text.DRV_TMR0_Initialize
                0x9d017dcc       0x94 build/pic32mz_ef_sk_meb2/production/_ext/199634090/drv_tmr_static.o
                0x9d017dcc                DRV_TMR0_Initialize

.text.LodePNGText_cleanup
                0x9d017e60       0x90
 .text.LodePNGText_cleanup
                0x9d017e60       0x90 build/pic32mz_ef_sk_meb2/production/_ext/493934858/lodepng.o

.text.laContext_SetEditWidget
                0x9d017ef0       0x90
 .text.laContext_SetEditWidget
                0x9d017ef0       0x90 build/pic32mz_ef_sk_meb2/production/_ext/1907747181/libaria_context.o
                0x9d017ef0                laContext_SetEditWidget

.text.cpuDrawPixel
                0x9d017f80       0x90
 .text.cpuDrawPixel
                0x9d017f80       0x90 build/pic32mz_ef_sk_meb2/production/_ext/1847583374/gfx_draw_pixel.o
                0x9d017f80                cpuDrawPixel

.text.lodepng_decode_memory
                0x9d018010       0x8c
 .text.lodepng_decode_memory
                0x9d018010       0x8c build/pic32mz_ef_sk_meb2/production/_ext/493934858/lodepng.o
                0x9d018010                lodepng_decode_memory

.text.GFXU_StringLookup
                0x9d01809c       0x8c
 .text.GFXU_StringLookup
                0x9d01809c       0x8c build/pic32mz_ef_sk_meb2/production/_ext/1597685232/gfxu_string_utils.o
                0x9d01809c                GFXU_StringLookup

.text.laList_Destroy
                0x9d018128       0x8c
 .text.laList_Destroy
                0x9d018128       0x8c build/pic32mz_ef_sk_meb2/production/_ext/1907747181/libaria_list.o
                0x9d018128                laList_Destroy

.text.GFX_RectClip
                0x9d0181b4       0x8c
 .text.GFX_RectClip
                0x9d0181b4       0x8c build/pic32mz_ef_sk_meb2/production/_ext/1847583374/gfx_rect.o
                0x9d0181b4                GFX_RectClip

.text.i2c_Read_Reg
                0x9d018240       0x88
 .text.i2c_Read_Reg
                0x9d018240       0x88 build/pic32mz_ef_sk_meb2/production/_ext/1360937237/i2c_bitbanging.o
                0x9d018240                i2c_Read_Reg

.text.lodepng_chunk_type_equals
                0x9d0182c8       0x88
 .text.lodepng_chunk_type_equals
                0x9d0182c8       0x88 build/pic32mz_ef_sk_meb2/production/_ext/493934858/lodepng.o
                0x9d0182c8                lodepng_chunk_type_equals

.text.laWidget_SetPosition
                0x9d018350       0x88
 .text.laWidget_SetPosition
                0x9d018350       0x88 build/pic32mz_ef_sk_meb2/production/_ext/1907747181/libaria_widget.o
                0x9d018350                laWidget_SetPosition

.text.defDrawPaletteSet
                0x9d0183d8       0x88
 .text.defDrawPaletteSet
                0x9d0183d8       0x88 build/pic32mz_ef_sk_meb2/production/_ext/1847583374/gfx_default_impl.o
                0x9d0183d8                defDrawPaletteSet

.text.DRV_TMR1_Initialize
                0x9d018460       0x88
 .text.DRV_TMR1_Initialize
                0x9d018460       0x88 build/pic32mz_ef_sk_meb2/production/_ext/199634090/drv_tmr_static.o
                0x9d018460                DRV_TMR1_Initialize

.text.i2c_Start
                0x9d0184e8       0x84
 .text.i2c_Start
                0x9d0184e8       0x84 build/pic32mz_ef_sk_meb2/production/_ext/1360937237/i2c_bitbanging.o
                0x9d0184e8                i2c_Start

.text.i2c_Stop  0x9d01856c       0x84
 .text.i2c_Stop
                0x9d01856c       0x84 build/pic32mz_ef_sk_meb2/production/_ext/1360937237/i2c_bitbanging.o
                0x9d01856c                i2c_Stop

.text.string_set
                0x9d0185f0       0x84
 .text.string_set
                0x9d0185f0       0x84 build/pic32mz_ef_sk_meb2/production/_ext/493934858/lodepng.o

.text.uivector_resize
                0x9d018674       0x84
 .text.uivector_resize
                0x9d018674       0x84 build/pic32mz_ef_sk_meb2/production/_ext/493934858/lodepng.o

.text.lodepng_info_init
                0x9d0186f8       0x84
 .text.lodepng_info_init
                0x9d0186f8       0x84 build/pic32mz_ef_sk_meb2/production/_ext/493934858/lodepng.o
                0x9d0186f8                lodepng_info_init

.text.defLayerPositionSet
                0x9d01877c       0x84
 .text.defLayerPositionSet
                0x9d01877c       0x84 build/pic32mz_ef_sk_meb2/production/_ext/1847583374/gfx_default_impl.o
                0x9d01877c                defLayerPositionSet

.text.uivector_resizev
                0x9d018800       0x80
 .text.uivector_resizev
                0x9d018800       0x80 build/pic32mz_ef_sk_meb2/production/_ext/493934858/lodepng.o

.text.generateFixedDistanceTree
                0x9d018880       0x80
 .text.generateFixedDistanceTree
                0x9d018880       0x80 build/pic32mz_ef_sk_meb2/production/_ext/493934858/lodepng.o

.text.GFXU_DrawStringInternal
                0x9d018900       0x80
 .text.GFXU_DrawStringInternal
                0x9d018900       0x80 build/pic32mz_ef_sk_meb2/production/_ext/1597685232/gfxu_string_internal.o
                0x9d018900                GFXU_DrawStringInternal

.text.layerBufferFree
                0x9d018980       0x80
 .text.layerBufferFree
                0x9d018980       0x80 build/pic32mz_ef_sk_meb2/production/_ext/1847583374/gfx_default_impl.o

.text.defLayerSwapSet
                0x9d018a00       0x80
 .text.defLayerSwapSet
                0x9d018a00       0x80 build/pic32mz_ef_sk_meb2/production/_ext/1847583374/gfx_default_impl.o
                0x9d018a00                defLayerSwapSet

.text.lerp_rgb888
                0x9d018a80       0x80
 .text.lerp_rgb888
                0x9d018a80       0x80 build/pic32mz_ef_sk_meb2/production/_ext/1847583374/gfx_color_lerp.o

.text.lerp_rgb565
                0x9d018b00       0x80
 .text.lerp_rgb565
                0x9d018b00       0x80 build/pic32mz_ef_sk_meb2/production/_ext/1847583374/gfx_color_lerp.o

.text.lerp_rgb332
                0x9d018b80       0x80
 .text.lerp_rgb332
                0x9d018b80       0x80 build/pic32mz_ef_sk_meb2/production/_ext/1847583374/gfx_color_lerp.o

.text.i2c_Read_Bit
                0x9d018c00       0x7c
 .text.i2c_Read_Bit
                0x9d018c00       0x7c build/pic32mz_ef_sk_meb2/production/_ext/1360937237/i2c_bitbanging.o
                0x9d018c00                i2c_Read_Bit

.text.readBitsFromReversedStream
                0x9d018c7c       0x7c
 .text.readBitsFromReversedStream
                0x9d018c7c       0x7c build/pic32mz_ef_sk_meb2/production/_ext/493934858/lodepng.o

.text.blend_argb8888
                0x9d018cf8       0x7c
 .text.blend_argb8888
                0x9d018cf8       0x7c build/pic32mz_ef_sk_meb2/production/_ext/1847583374/gfx_color_blend.o

.text.GFX_PercentOf
                0x9d018d74       0x7c
 .text.GFX_PercentOf
                0x9d018d74       0x7c build/pic32mz_ef_sk_meb2/production/_ext/1847583374/gfx_math.o
                0x9d018d74                GFX_PercentOf

.text.DRV_TMR0_Tasks
                0x9d018df0       0x7c
 .text.DRV_TMR0_Tasks
                0x9d018df0       0x7c build/pic32mz_ef_sk_meb2/production/_ext/199634090/drv_tmr_static.o
                0x9d018df0                DRV_TMR0_Tasks

.text.DRV_TMR1_Tasks
                0x9d018e6c       0x7c
 .text.DRV_TMR1_Tasks
                0x9d018e6c       0x7c build/pic32mz_ef_sk_meb2/production/_ext/199634090/drv_tmr_static.o
                0x9d018e6c                DRV_TMR1_Tasks

.text.fptoul    0x9d018ee8       0x7c
 .text.fptoul   0x9d018ee8       0x7c c:/program files (x86)/microchip/xc32/v1.42/bin/bin/../../lib/gcc/pic32mx/4.8.3/../../../../pic32mx/lib\libm.a(fptoul.o)
                0x9d018ee8                fptoul
                0x9d018ee8                fptoui
                0x9d018ee8                __fixunssfsi

.text.huffmanDecodeSymbol
                0x9d018f64       0x78
 .text.huffmanDecodeSymbol
                0x9d018f64       0x78 build/pic32mz_ef_sk_meb2/production/_ext/493934858/lodepng.o

.text.addColorBits
                0x9d018fdc       0x78
 .text.addColorBits
                0x9d018fdc       0x78 build/pic32mz_ef_sk_meb2/production/_ext/493934858/lodepng.o

.text.paethPredictor
                0x9d019054       0x78
 .text.paethPredictor
                0x9d019054       0x78 build/pic32mz_ef_sk_meb2/production/_ext/493934858/lodepng.o

.text.GFXU_StringIndexLookup
                0x9d0190cc       0x78
 .text.GFXU_StringIndexLookup
                0x9d0190cc       0x78 build/pic32mz_ef_sk_meb2/production/_ext/1597685232/gfxu_string_utils.o
                0x9d0190cc                GFXU_StringIndexLookup

.text.handleTouchDown
                0x9d019144       0x78
 .text.handleTouchDown
                0x9d019144       0x78 build/pic32mz_ef_sk_meb2/production/_ext/1907747181/libaria_input.o
                0x9d019144                handleTouchDown

.text.laList_Clear
                0x9d0191bc       0x78
 .text.laList_Clear
                0x9d0191bc       0x78 build/pic32mz_ef_sk_meb2/production/_ext/1907747181/libaria_list.o
                0x9d0191bc                laList_Clear

.text._laWidget_Destructor
                0x9d019234       0x78
 .text._laWidget_Destructor
                0x9d019234       0x78 build/pic32mz_ef_sk_meb2/production/_ext/1907747181/libaria_widget.o
                0x9d019234                _laWidget_Destructor

.text.GFX_PixelBufferGet_Unsafe
                0x9d0192ac       0x78
 .text.GFX_PixelBufferGet_Unsafe
                0x9d0192ac       0x78 build/pic32mz_ef_sk_meb2/production/_ext/1847583374/gfx_pixel_buffer.o
                0x9d0192ac                GFX_PixelBufferGet_Unsafe

.text.ucvector_reserve
                0x9d019324       0x74
 .text.ucvector_reserve
                0x9d019324       0x74 build/pic32mz_ef_sk_meb2/production/_ext/493934858/lodepng.o

.text.GFXU_StringFontIndexLookup
                0x9d019398       0x74
 .text.GFXU_StringFontIndexLookup
                0x9d019398       0x74 build/pic32mz_ef_sk_meb2/production/_ext/1597685232/gfxu_string_utils.o
                0x9d019398                GFXU_StringFontIndexLookup

.text.GFXU_DrawUnknownGlyph
                0x9d01940c       0x74
 .text.GFXU_DrawUnknownGlyph
                0x9d01940c       0x74 build/pic32mz_ef_sk_meb2/production/_ext/1597685232/gfxu_string_utils.o
                0x9d01940c                GFXU_DrawUnknownGlyph

.text.laContext_SetFocusWidget
                0x9d019480       0x74
 .text.laContext_SetFocusWidget
                0x9d019480       0x74 build/pic32mz_ef_sk_meb2/production/_ext/1907747181/libaria_context.o
                0x9d019480                laContext_SetFocusWidget

.text.laScreen_SetLayer
                0x9d0194f4       0x74
 .text.laScreen_SetLayer
                0x9d0194f4       0x74 build/pic32mz_ef_sk_meb2/production/_ext/1907747181/libaria_screen.o
                0x9d0194f4                laScreen_SetLayer

.text.laUtils_ChildIntersectsParent
                0x9d019568       0x74
 .text.laUtils_ChildIntersectsParent
                0x9d019568       0x74 build/pic32mz_ef_sk_meb2/production/_ext/1907747181/libaria_utils.o
                0x9d019568                laUtils_ChildIntersectsParent

.text.GFX_RectContainsRect
                0x9d0195dc       0x74
 .text.GFX_RectContainsRect
                0x9d0195dc       0x74 build/pic32mz_ef_sk_meb2/production/_ext/1847583374/gfx_rect.o
                0x9d0195dc                GFX_RectContainsRect

.text.GFX_RectIntersects
                0x9d019650       0x74
 .text.GFX_RectIntersects
                0x9d019650       0x74 build/pic32mz_ef_sk_meb2/production/_ext/1847583374/gfx_rect.o
                0x9d019650                GFX_RectIntersects

.text.laList_Find
                0x9d000110       0x70
 .text.laList_Find
                0x9d000110       0x70 build/pic32mz_ef_sk_meb2/production/_ext/1907747181/libaria_list.o
                0x9d000110                laList_Find

.text.laString_CreateFromID
                0x9d000190       0x70
 .text.laString_CreateFromID
                0x9d000190       0x70 build/pic32mz_ef_sk_meb2/production/_ext/1907747181/libaria_string.o
                0x9d000190                laString_CreateFromID

.text.laUtils_RectToScreenSpace
                0x9d0196c4       0x70
 .text.laUtils_RectToScreenSpace
                0x9d0196c4       0x70 build/pic32mz_ef_sk_meb2/production/_ext/1907747181/libaria_utils.o
                0x9d0196c4                laUtils_RectToScreenSpace

.text.GFX_Set   0x9d019734       0x70
 .text.GFX_Set  0x9d019734       0x70 build/pic32mz_ef_sk_meb2/production/_ext/1847583374/gfx.o
                0x9d019734                GFX_Set

.text.GFX_ScaleInteger
                0x9d0197a4       0x70
 .text.GFX_ScaleInteger
                0x9d0197a4       0x70 build/pic32mz_ef_sk_meb2/production/_ext/1847583374/gfx_math.o
                0x9d0197a4                GFX_ScaleInteger

.text.GFX_Lerp  0x9d019814       0x70
 .text.GFX_Lerp
                0x9d019814       0x70 build/pic32mz_ef_sk_meb2/production/_ext/1847583374/gfx_math.o
                0x9d019814                GFX_Lerp

.text.LibAria_Initialize
                0x9d019884       0x70
 .text.LibAria_Initialize
                0x9d019884       0x70 build/pic32mz_ef_sk_meb2/production/_ext/1740298103/libaria_harmony.o
                0x9d019884                LibAria_Initialize

.text.i2c_Write_Reg
                0x9d0198f4       0x6c
 .text.i2c_Write_Reg
                0x9d0198f4       0x6c build/pic32mz_ef_sk_meb2/production/_ext/1360937237/i2c_bitbanging.o
                0x9d0198f4                i2c_Write_Reg

.text.JPEG_wGetBits
                0x9d019960       0x6c
 .text.JPEG_wGetBits
                0x9d019960       0x6c build/pic32mz_ef_sk_meb2/production/_ext/1597685232/gfxu_image_jpg_internal.o

.text.laString_Destroy
                0x9d0199cc       0x6c
 .text.laString_Destroy
                0x9d0199cc       0x6c build/pic32mz_ef_sk_meb2/production/_ext/1907747181/libaria_string.o
                0x9d0199cc                laString_Destroy

.text.laUtils_GetLayer
                0x9d019a38       0x6c
 .text.laUtils_GetLayer
                0x9d019a38       0x6c build/pic32mz_ef_sk_meb2/production/_ext/1907747181/libaria_utils.o
                0x9d019a38                laUtils_GetLayer

.text._laLabelWidget_Constructor
                0x9d019aa4       0x6c
 .text._laLabelWidget_Constructor
                0x9d019aa4       0x6c build/pic32mz_ef_sk_meb2/production/_ext/1907747181/libaria_widget_label.o
                0x9d019aa4                _laLabelWidget_Constructor

.text.SYS_DMA_Initialize
                0x9d019b10       0x6c
 .text.SYS_DMA_Initialize
                0x9d019b10       0x6c build/pic32mz_ef_sk_meb2/production/_ext/853959373/sys_dma.o
                0x9d019b10                SYS_DMA_Initialize

.text.setBitOfReversedStream
                0x9d019b7c       0x68
 .text.setBitOfReversedStream
                0x9d019b7c       0x68 build/pic32mz_ef_sk_meb2/production/_ext/493934858/lodepng.o

.text.laContext_GetScreenRect
                0x9d019be4       0x68
 .text.laContext_GetScreenRect
                0x9d019be4       0x68 build/pic32mz_ef_sk_meb2/production/_ext/1907747181/libaria_context.o
                0x9d019be4                laContext_GetScreenRect

.text._laImageWidget_Constructor
                0x9d019c4c       0x68
 .text._laImageWidget_Constructor
                0x9d019c4c       0x68 build/pic32mz_ef_sk_meb2/production/_ext/1907747181/libaria_widget_image.o
                0x9d019c4c                _laImageWidget_Constructor

.text.defDrawGradientColorGet
                0x9d019cb4       0x68
 .text.defDrawGradientColorGet
                0x9d019cb4       0x68 build/pic32mz_ef_sk_meb2/production/_ext/1847583374/gfx_default_impl.o
                0x9d019cb4                defDrawGradientColorGet

.text.GFX_PixelBufferOffsetGet
                0x9d019d1c       0x68
 .text.GFX_PixelBufferOffsetGet
                0x9d019d1c       0x68 build/pic32mz_ef_sk_meb2/production/_ext/1847583374/gfx_pixel_buffer.o
                0x9d019d1c                GFX_PixelBufferOffsetGet

.text.GFX_PixelBufferSet
                0x9d019d84       0x68
 .text.GFX_PixelBufferSet
                0x9d019d84       0x68 build/pic32mz_ef_sk_meb2/production/_ext/1847583374/gfx_pixel_buffer.o
                0x9d019d84                GFX_PixelBufferSet

.text.getNumColorChannels
                0x9d019dec       0x64
 .text.getNumColorChannels
                0x9d019dec       0x64 build/pic32mz_ef_sk_meb2/production/_ext/493934858/lodepng.o

.text._laLayer_Moved
                0x9d019e50       0x64
 .text._laLayer_Moved
                0x9d019e50       0x64 build/pic32mz_ef_sk_meb2/production/_ext/1907747181/libaria_layer.o
                0x9d019e50                _laLayer_Moved

.text._laLayer_Resized
                0x9d019eb4       0x64
 .text._laLayer_Resized
                0x9d019eb4       0x64 build/pic32mz_ef_sk_meb2/production/_ext/1907747181/libaria_layer.o
                0x9d019eb4                _laLayer_Resized

.text._laLayer_Paint
                0x9d019f18       0x64
 .text._laLayer_Paint
                0x9d019f18       0x64 build/pic32mz_ef_sk_meb2/production/_ext/1907747181/libaria_layer.o
                0x9d019f18                _laLayer_Paint

.text.isAncestorOf
                0x9d019f7c       0x64
 .text.isAncestorOf
                0x9d019f7c       0x64 build/pic32mz_ef_sk_meb2/production/_ext/1907747181/libaria_widget.o

.text.laWidget_RemoveChild
                0x9d019fe0       0x64
 .text.laWidget_RemoveChild
                0x9d019fe0       0x64 build/pic32mz_ef_sk_meb2/production/_ext/1907747181/libaria_widget.o
                0x9d019fe0                laWidget_RemoveChild

.text.laButtonWidget_SetText
                0x9d01a044       0x64
 .text.laButtonWidget_SetText
                0x9d01a044       0x64 build/pic32mz_ef_sk_meb2/production/_ext/1907747181/libaria_widget_button.o
                0x9d01a044                laButtonWidget_SetText

.text.laLabelWidget_SetText
                0x9d01a0a8       0x64
 .text.laLabelWidget_SetText
                0x9d01a0a8       0x64 build/pic32mz_ef_sk_meb2/production/_ext/1907747181/libaria_widget_label.o
                0x9d01a0a8                laLabelWidget_SetText

.text._laRectangleWidget_Constructor
                0x9d01a10c       0x64
 .text._laRectangleWidget_Constructor
                0x9d01a10c       0x64 build/pic32mz_ef_sk_meb2/production/_ext/1907747181/libaria_widget_rectangle.o
                0x9d01a10c                _laRectangleWidget_Constructor

.text.defLayerSizeGet
                0x9d01a170       0x64
 .text.defLayerSizeGet
                0x9d01a170       0x64 build/pic32mz_ef_sk_meb2/production/_ext/1847583374/gfx_default_impl.o
                0x9d01a170                defLayerSizeGet

.text.defLayerSizeSet
                0x9d01a1d4       0x64
 .text.defLayerSizeSet
                0x9d01a1d4       0x64 build/pic32mz_ef_sk_meb2/production/_ext/1847583374/gfx_default_impl.o
                0x9d01a1d4                defLayerSizeSet

.text.indexGet  0x9d01a238       0x64
 .text.indexGet
                0x9d01a238       0x64 build/pic32mz_ef_sk_meb2/production/_ext/1847583374/gfx_pixel_buffer.o

.text.rgb565_gs8
                0x9d01a29c       0x64
 .text.rgb565_gs8
                0x9d01a29c       0x64 build/pic32mz_ef_sk_meb2/production/_ext/1847583374/gfx_color_convert.o

.text.rgb332_gs8
                0x9d01a300       0x64
 .text.rgb332_gs8
                0x9d01a300       0x64 build/pic32mz_ef_sk_meb2/production/_ext/1847583374/gfx_color_convert.o

.text.DRV_TMR_AlarmRegister
                0x9d01a364       0x64
 .text.DRV_TMR_AlarmRegister
                0x9d01a364       0x64 build/pic32mz_ef_sk_meb2/production/_ext/199634090/drv_tmr_mapping.o
                0x9d01a364                DRV_TMR_AlarmRegister

.text.JPEG_wReadWord
                0x9d01a3c8       0x60
 .text.JPEG_wReadWord
                0x9d01a3c8       0x60 build/pic32mz_ef_sk_meb2/production/_ext/1597685232/gfxu_image_jpg_internal.o

.text.JPEG_sGetBitsValue
                0x9d01a428       0x60
 .text.JPEG_sGetBitsValue
                0x9d01a428       0x60 build/pic32mz_ef_sk_meb2/production/_ext/1597685232/gfxu_image_jpg_internal.o

.text.color_tree_cleanup
                0x9d01a488       0x60
 .text.color_tree_cleanup
                0x9d01a488       0x60 build/pic32mz_ef_sk_meb2/production/_ext/493934858/lodepng.o

.text.GFXU_GetStringHeight
                0x9d01a4e8       0x60
 .text.GFXU_GetStringHeight
                0x9d01a4e8       0x60 build/pic32mz_ef_sk_meb2/production/_ext/1597685232/gfxu_string_query.o
                0x9d01a4e8                GFXU_GetStringHeight

.text._laContext_HandleScreenChangeEvent
                0x9d01a548       0x60
 .text._laContext_HandleScreenChangeEvent
                0x9d01a548       0x60 build/pic32mz_ef_sk_meb2/production/_ext/1907747181/libaria_context.o
                0x9d01a548                _laContext_HandleScreenChangeEvent

.text._laInput_HandleInputEvent
                0x9d01a5a8       0x60
 .text._laInput_HandleInputEvent
                0x9d01a5a8       0x60 build/pic32mz_ef_sk_meb2/production/_ext/1907747181/libaria_input.o
                0x9d01a5a8                _laInput_HandleInputEvent

.text.GFX_LayerSwap
                0x9d01a608       0x60
 .text.GFX_LayerSwap
                0x9d01a608       0x60 build/pic32mz_ef_sk_meb2/production/_ext/1847583374/gfx_layer.o
                0x9d01a608                GFX_LayerSwap

.text.GFX_PixelBufferGetIndex
                0x9d01a668       0x60
 .text.GFX_PixelBufferGetIndex
                0x9d01a668       0x60 build/pic32mz_ef_sk_meb2/production/_ext/1847583374/gfx_pixel_buffer.o
                0x9d01a668                GFX_PixelBufferGetIndex

.text.lut_argb8888
                0x9d01a6c8       0x60
 .text.lut_argb8888
                0x9d01a6c8       0x60 build/pic32mz_ef_sk_meb2/production/_ext/1847583374/gfx_color_convert.o

.text.lut_rgba8888
                0x9d01a728       0x60
 .text.lut_rgba8888
                0x9d01a728       0x60 build/pic32mz_ef_sk_meb2/production/_ext/1847583374/gfx_color_convert.o

.text.lut_rgb888
                0x9d01a788       0x60
 .text.lut_rgb888
                0x9d01a788       0x60 build/pic32mz_ef_sk_meb2/production/_ext/1847583374/gfx_color_convert.o

.text.lut_rgba5551
                0x9d01a7e8       0x60
 .text.lut_rgba5551
                0x9d01a7e8       0x60 build/pic32mz_ef_sk_meb2/production/_ext/1847583374/gfx_color_convert.o

.text.lut_rgb565
                0x9d01a848       0x60
 .text.lut_rgb565
                0x9d01a848       0x60 build/pic32mz_ef_sk_meb2/production/_ext/1847583374/gfx_color_convert.o

.text.lut_rgb332
                0x9d01a8a8       0x60
 .text.lut_rgb332
                0x9d01a8a8       0x60 build/pic32mz_ef_sk_meb2/production/_ext/1847583374/gfx_color_convert.o

.text.lut_gs8   0x9d01a908       0x60
 .text.lut_gs8  0x9d01a908       0x60 build/pic32mz_ef_sk_meb2/production/_ext/1847583374/gfx_color_convert.o

.text.sitofp    0x9d01a968       0x60
 .text.sitofp   0x9d01a968       0x60 c:/program files (x86)/microchip/xc32/v1.42/bin/bin/../../lib/gcc/pic32mx/4.8.3/../../../../pic32mx/lib\libm.a(sitofp.o)
                0x9d01a968                sitofp
                0x9d01a968                litofp
                0x9d01a968                __floatsisf

.text.lodepng_chunk_check_crc
                0x9d01a9c8       0x5c
 .text.lodepng_chunk_check_crc
                0x9d01a9c8       0x5c build/pic32mz_ef_sk_meb2/production/_ext/493934858/lodepng.o
                0x9d01a9c8                lodepng_chunk_check_crc

.text.stringEntrySizeRequestCompleted
                0x9d01aa24       0x5c
 .text.stringEntrySizeRequestCompleted
                0x9d01aa24       0x5c build/pic32mz_ef_sk_meb2/production/_ext/1597685232/gfxu_string_external.o

.text.laUtils_RectToLayerSpace
                0x9d01aa80       0x5c
 .text.laUtils_RectToLayerSpace
                0x9d01aa80       0x5c build/pic32mz_ef_sk_meb2/production/_ext/1907747181/libaria_utils.o
                0x9d01aa80                laUtils_RectToLayerSpace

.text.defLayerActiveSet
                0x9d01aadc       0x5c
 .text.defLayerActiveSet
                0x9d01aadc       0x5c build/pic32mz_ef_sk_meb2/production/_ext/1847583374/gfx_default_impl.o
                0x9d01aadc                defLayerActiveSet

.text.defDrawGradientColorSet
                0x9d01ab38       0x5c
 .text.defDrawGradientColorSet
                0x9d01ab38       0x5c build/pic32mz_ef_sk_meb2/production/_ext/1847583374/gfx_default_impl.o
                0x9d01ab38                defDrawGradientColorSet

.text.GFX_PixelBufferDestroy
                0x9d01ab94       0x5c
 .text.GFX_PixelBufferDestroy
                0x9d01ab94       0x5c build/pic32mz_ef_sk_meb2/production/_ext/1847583374/gfx_pixel_buffer.o
                0x9d01ab94                GFX_PixelBufferDestroy

.text.SYS_DMA_ChannelAllocate
                0x9d01abf0       0x5c
 .text.SYS_DMA_ChannelAllocate
                0x9d01abf0       0x5c build/pic32mz_ef_sk_meb2/production/_ext/853959373/sys_dma.o
                0x9d01abf0                SYS_DMA_ChannelAllocate

.rodata         0x9d01ac4c       0x5c
 .rodata        0x9d01ac4c       0x5c build/pic32mz_ef_sk_meb2/production/_ext/1465531745/bsp.o

.text.stringArraySizeRequestCompleted
                0x9d01aca8       0x58
 .text.stringArraySizeRequestCompleted
                0x9d01aca8       0x58 build/pic32mz_ef_sk_meb2/production/_ext/1597685232/gfxu_string_external.o

.text.laDraw_LineBorder
                0x9d01ad00       0x58
 .text.laDraw_LineBorder
                0x9d01ad00       0x58 build/pic32mz_ef_sk_meb2/production/_ext/1907747181/libaria_draw.o
                0x9d01ad00                laDraw_LineBorder

.text.laImageWidget_New
                0x9d01ad58       0x58
 .text.laImageWidget_New
                0x9d01ad58       0x58 build/pic32mz_ef_sk_meb2/production/_ext/1907747181/libaria_widget_image.o
                0x9d01ad58                laImageWidget_New

.text.laRectangleWidget_New
                0x9d01adb0       0x58
 .text.laRectangleWidget_New
                0x9d01adb0       0x58 build/pic32mz_ef_sk_meb2/production/_ext/1907747181/libaria_widget_rectangle.o
                0x9d01adb0                laRectangleWidget_New

.text.GFX_ColorModeInfoGet
                0x9d01ae08       0x58
 .text.GFX_ColorModeInfoGet
                0x9d01ae08       0x58 build/pic32mz_ef_sk_meb2/production/_ext/1847583374/gfx_color.o
                0x9d01ae08                GFX_ColorModeInfoGet

.text.defDrawPaletteGet
                0x9d01ae60       0x58
 .text.defDrawPaletteGet
                0x9d01ae60       0x58 build/pic32mz_ef_sk_meb2/production/_ext/1847583374/gfx_default_impl.o
                0x9d01ae60                defDrawPaletteGet

.text.DRV_TMR0_AlarmRegister
                0x9d01aeb8       0x58
 .text.DRV_TMR0_AlarmRegister
                0x9d01aeb8       0x58 build/pic32mz_ef_sk_meb2/production/_ext/199634090/drv_tmr_static.o
                0x9d01aeb8                DRV_TMR0_AlarmRegister

.text.DRV_TMR1_AlarmRegister
                0x9d01af10       0x58
 .text.DRV_TMR1_AlarmRegister
                0x9d01af10       0x58 build/pic32mz_ef_sk_meb2/production/_ext/199634090/drv_tmr_static.o
                0x9d01af10                DRV_TMR1_AlarmRegister

.text.SYS_DEVCON_SystemUnlock
                0x9d01af68       0x58
 .text.SYS_DEVCON_SystemUnlock
                0x9d01af68       0x58 build/pic32mz_ef_sk_meb2/production/_ext/924081491/sys_devcon.o
                0x9d01af68                SYS_DEVCON_SystemUnlock

.text.main_entry
                0x9d01afc0       0x54
 .text.main_entry
                0x9d01afc0       0x54 c:/program files (x86)/microchip/xc32/v1.42/bin/bin/../../lib/gcc/pic32mx/4.8.3/../../../../pic32mx/lib/./proc/32MZ2048ECG144/crt0_mips32r2.o
                0x9d01aff4                __crt0_exit

.text.ucvector_push_back
                0x9d01b014       0x54
 .text.ucvector_push_back
                0x9d01b014       0x54 build/pic32mz_ef_sk_meb2/production/_ext/493934858/lodepng.o

.text.lodepng_crc32
                0x9d01b068       0x54
 .text.lodepng_crc32
                0x9d01b068       0x54 build/pic32mz_ef_sk_meb2/production/_ext/493934858/lodepng.o
                0x9d01b068                lodepng_crc32

.text.lodepng_get_raw_size_idat
                0x9d01b0bc       0x54
 .text.lodepng_get_raw_size_idat
                0x9d01b0bc       0x54 build/pic32mz_ef_sk_meb2/production/_ext/493934858/lodepng.o

.text.lodepng_get_raw_size
                0x9d01b110       0x54
 .text.lodepng_get_raw_size
                0x9d01b110       0x54 build/pic32mz_ef_sk_meb2/production/_ext/493934858/lodepng.o
                0x9d01b110                lodepng_get_raw_size

.text._laContext_UpdateWidget
                0x9d01b164       0x54
 .text._laContext_UpdateWidget
                0x9d01b164       0x54 build/pic32mz_ef_sk_meb2/production/_ext/1907747181/libaria_context.o
                0x9d01b164                _laContext_UpdateWidget

.text.laWidget_GetCumulativeAlphaEnable
                0x9d01b1b8       0x54
 .text.laWidget_GetCumulativeAlphaEnable
                0x9d01b1b8       0x54 build/pic32mz_ef_sk_meb2/production/_ext/1907747181/libaria_widget.o
                0x9d01b1b8                laWidget_GetCumulativeAlphaEnable

.text._laButtonWidget_Destructor
                0x9d01b20c       0x54
 .text._laButtonWidget_Destructor
                0x9d01b20c       0x54 build/pic32mz_ef_sk_meb2/production/_ext/1907747181/libaria_widget_button.o
                0x9d01b20c                _laButtonWidget_Destructor

.text._laLabelWidget_Destructor
                0x9d01b260       0x54
 .text._laLabelWidget_Destructor
                0x9d01b260       0x54 build/pic32mz_ef_sk_meb2/production/_ext/1907747181/libaria_widget_label.o
                0x9d01b260                _laLabelWidget_Destructor

.text.GFX_Get   0x9d01b2b4       0x54
 .text.GFX_Get  0x9d01b2b4       0x54 build/pic32mz_ef_sk_meb2/production/_ext/1847583374/gfx.o
                0x9d01b2b4                GFX_Get

.text.defLayerPositionGet
                0x9d01b308       0x54
 .text.defLayerPositionGet
                0x9d01b308       0x54 build/pic32mz_ef_sk_meb2/production/_ext/1847583374/gfx_default_impl.o
                0x9d01b308                defLayerPositionGet

.text.orient_90
                0x9d01b35c       0x54
 .text.orient_90
                0x9d01b35c       0x54 build/pic32mz_ef_sk_meb2/production/_ext/1847583374/gfx_util.o

.text.orient_270
                0x9d01b3b0       0x54
 .text.orient_270
                0x9d01b3b0       0x54 build/pic32mz_ef_sk_meb2/production/_ext/1847583374/gfx_util.o

.text.lodepng_info_cleanup
                0x9d01b404       0x50
 .text.lodepng_info_cleanup
                0x9d01b404       0x50 build/pic32mz_ef_sk_meb2/production/_ext/493934858/lodepng.o
                0x9d01b404                lodepng_info_cleanup

.text.laButtonWidget_New
                0x9d01b454       0x50
 .text.laButtonWidget_New
                0x9d01b454       0x50 build/pic32mz_ef_sk_meb2/production/_ext/1907747181/libaria_widget_button.o
                0x9d01b454                laButtonWidget_New

.text.laLabelWidget_New
                0x9d01b4a4       0x50
 .text.laLabelWidget_New
                0x9d01b4a4       0x50 build/pic32mz_ef_sk_meb2/production/_ext/1907747181/libaria_widget_label.o
                0x9d01b4a4                laLabelWidget_New

.text.GFX_PixelBufferGet
                0x9d01b4f4       0x50
 .text.GFX_PixelBufferGet
                0x9d01b4f4       0x50 build/pic32mz_ef_sk_meb2/production/_ext/1847583374/gfx_pixel_buffer.o
                0x9d01b4f4                GFX_PixelBufferGet

.text.GFX_RectContainsPoint
                0x9d01b544       0x50
 .text.GFX_RectContainsPoint
                0x9d01b544       0x50 build/pic32mz_ef_sk_meb2/production/_ext/1847583374/gfx_rect.o
                0x9d01b544                GFX_RectContainsPoint

.text.sbrk      0x9d01b594       0x50
 .text.sbrk     0x9d01b594       0x50 c:/program files (x86)/microchip/xc32/v1.42/bin/bin/../../lib/gcc/pic32mx/4.8.3/../../../../pic32mx/lib\libpic32.a(sbrk.o)
                0x9d01b594                sbrk

.rodata         0x9d01b5e4       0x4c
 .rodata        0x9d01b5e4       0x4c build/pic32mz_ef_sk_meb2/production/_ext/1597685232/gfxu_image_jpg_internal.o

.text.readBitsFromStream
                0x9d01b630       0x4c
 .text.readBitsFromStream
                0x9d01b630       0x4c build/pic32mz_ef_sk_meb2/production/_ext/493934858/lodepng.o

.text._laWidget_Paint
                0x9d01b67c       0x4c
 .text._laWidget_Paint
                0x9d01b67c       0x4c build/pic32mz_ef_sk_meb2/production/_ext/1907747181/libaria_widget_skin_classic.o
                0x9d01b67c                _laWidget_Paint

.text._laButtonWidget_Paint
                0x9d01b6c8       0x4c
 .text._laButtonWidget_Paint
                0x9d01b6c8       0x4c build/pic32mz_ef_sk_meb2/production/_ext/1907747181/libaria_widget_button_skin_classic.o
                0x9d01b6c8                _laButtonWidget_Paint

.text._laImageWidget_Paint
                0x9d01b714       0x4c
 .text._laImageWidget_Paint
                0x9d01b714       0x4c build/pic32mz_ef_sk_meb2/production/_ext/1907747181/libaria_widget_image_skin_classic.o
                0x9d01b714                _laImageWidget_Paint

.text._laLabelWidget_Paint
                0x9d01b760       0x4c
 .text._laLabelWidget_Paint
                0x9d01b760       0x4c build/pic32mz_ef_sk_meb2/production/_ext/1907747181/libaria_widget_label_skin_classic.o
                0x9d01b760                _laLabelWidget_Paint

.text.defLayerBufferCoherentSet
                0x9d01b7ac       0x4c
 .text.defLayerBufferCoherentSet
                0x9d01b7ac       0x4c build/pic32mz_ef_sk_meb2/production/_ext/1847583374/gfx_default_impl.o
                0x9d01b7ac                defLayerBufferCoherentSet

.text.orient_180
                0x9d01b7f8       0x4c
 .text.orient_180
                0x9d01b7f8       0x4c build/pic32mz_ef_sk_meb2/production/_ext/1847583374/gfx_util.o

.text.DRV_TMR_Start
                0x9d01b844       0x4c
 .text.DRV_TMR_Start
                0x9d01b844       0x4c build/pic32mz_ef_sk_meb2/production/_ext/199634090/drv_tmr_mapping.o
                0x9d01b844                DRV_TMR_Start

.text           0x9d01b890       0x4c
 .text          0x9d01b890       0x4c c:/program files (x86)/microchip/xc32/v1.42/bin/bin/../../lib/gcc/pic32mx/4.8.3\libgcc.a(floatunsisf.o)
                0x9d01b890                __floatunsisf

.text.calloc    0x9d01b8dc       0x4c
 .text.calloc   0x9d01b8dc       0x4c c:/program files (x86)/microchip/xc32/v1.42/bin/bin/../../lib/gcc/pic32mx/4.8.3/../../../../pic32mx/lib\libc.a(calloc.o)
                0x9d01b8dc                calloc

.text.APP_Initialize
                0x9d01b928       0x48
 .text.APP_Initialize
                0x9d01b928       0x48 build/pic32mz_ef_sk_meb2/production/_ext/1360937237/app.o
                0x9d01b928                APP_Initialize

.text.GFXU_GetStringSizeInBytes
                0x9d01b970       0x48
 .text.GFXU_GetStringSizeInBytes
                0x9d01b970       0x48 build/pic32mz_ef_sk_meb2/production/_ext/1597685232/gfxu_string_query.o
                0x9d01b970                GFXU_GetStringSizeInBytes

.text.laContext_AddScreen
                0x9d01b9b8       0x48
 .text.laContext_AddScreen
                0x9d01b9b8       0x48 build/pic32mz_ef_sk_meb2/production/_ext/1907747181/libaria_context.o
                0x9d01b9b8                laContext_AddScreen

.text.laEvent_AddEvent
                0x9d01ba00       0x48
 .text.laEvent_AddEvent
                0x9d01ba00       0x48 build/pic32mz_ef_sk_meb2/production/_ext/1907747181/libaria_event.o
                0x9d01ba00                laEvent_AddEvent

.text.laList_Get
                0x9d01ba48       0x48
 .text.laList_Get
                0x9d01ba48       0x48 build/pic32mz_ef_sk_meb2/production/_ext/1907747181/libaria_list.o
                0x9d01ba48                laList_Get

.text.la_strcpy
                0x9d01ba90       0x48
 .text.la_strcpy
                0x9d01ba90       0x48 build/pic32mz_ef_sk_meb2/production/_ext/1907747181/libaria_string.o

.text._laWidget_InvalidateArea
                0x9d01bad8       0x48
 .text._laWidget_InvalidateArea
                0x9d01bad8       0x48 build/pic32mz_ef_sk_meb2/production/_ext/1907747181/libaria_widget.o
                0x9d01bad8                _laWidget_InvalidateArea

.text._laImageWidget_Destructor
                0x9d01bb20       0x48
 .text._laImageWidget_Destructor
                0x9d01bb20       0x48 build/pic32mz_ef_sk_meb2/production/_ext/1907747181/libaria_widget_image.o
                0x9d01bb20                _laImageWidget_Destructor

.text.defDrawClipRectGet
                0x9d01bb68       0x48
 .text.defDrawClipRectGet
                0x9d01bb68       0x48 build/pic32mz_ef_sk_meb2/production/_ext/1847583374/gfx_default_impl.o
                0x9d01bb68                defDrawClipRectGet

.text.defDrawClipRectSet
                0x9d01bbb0       0x48
 .text.defDrawClipRectSet
                0x9d01bbb0       0x48 build/pic32mz_ef_sk_meb2/production/_ext/1847583374/gfx_default_impl.o
                0x9d01bbb0                defDrawClipRectSet

.text.DRV_TMR_AlarmEnable
                0x9d01bbf8       0x48
 .text.DRV_TMR_AlarmEnable
                0x9d01bbf8       0x48 build/pic32mz_ef_sk_meb2/production/_ext/199634090/drv_tmr_mapping.o
                0x9d01bbf8                DRV_TMR_AlarmEnable

.text.driverLCCInfoGet
                0x9d01bc40       0x48
 .text.driverLCCInfoGet
                0x9d01bc40       0x48 build/pic32mz_ef_sk_meb2/production/_ext/713288229/drv_gfx_lcc_generic.o
                0x9d01bc40                driverLCCInfoGet

.text.SYS_DEVCON_SystemLock
                0x9d01bc88       0x48
 .text.SYS_DEVCON_SystemLock
                0x9d01bc88       0x48 build/pic32mz_ef_sk_meb2/production/_ext/924081491/sys_devcon.o
                0x9d01bc88                SYS_DEVCON_SystemLock

.text.BSP_Initialize
                0x9d01bcd0       0x48
 .text.BSP_Initialize
                0x9d01bcd0       0x48 build/pic32mz_ef_sk_meb2/production/_ext/1465531745/bsp.o
                0x9d01bcd0                BSP_Initialize

.text._bootstrap_exception_handler
                0x9d01bd18       0x48
 .text._bootstrap_exception_handler
                0x9d01bd18       0x48 c:/program files (x86)/microchip/xc32/v1.42/bin/bin/../../lib/gcc/pic32mx/4.8.3/../../../../pic32mx/lib\libpic32.a(default-bootstrap-exception-handler.o)
                0x9d01bd18                _bootstrap_exception_handler

.text._cache_err_exception_handler
                0x9d01bd60       0x48
 .text._cache_err_exception_handler
                0x9d01bd60       0x48 c:/program files (x86)/microchip/xc32/v1.42/bin/bin/../../lib/gcc/pic32mx/4.8.3/../../../../pic32mx/lib\libpic32.a(default-cache-err-exception-handler.o)
                0x9d01bd60                _cache_err_exception_handler

.text._simple_tlb_refill_exception_handler
                0x9d01bda8       0x48
 .text._simple_tlb_refill_exception_handler
                0x9d01bda8       0x48 c:/program files (x86)/microchip/xc32/v1.42/bin/bin/../../lib/gcc/pic32mx/4.8.3/../../../../pic32mx/lib\libpic32.a(default-simple-tlb-refill-exception-handler.o)
                0x9d01bda8                _simple_tlb_refill_exception_handler

.text.lodepng_encoder_settings_init
                0x9d01bdf0       0x44
 .text.lodepng_encoder_settings_init
                0x9d01bdf0       0x44 build/pic32mz_ef_sk_meb2/production/_ext/493934858/lodepng.o
                0x9d01bdf0                lodepng_encoder_settings_init

.text.lodepng_state_init
                0x9d01be34       0x44
 .text.lodepng_state_init
                0x9d01be34       0x44 build/pic32mz_ef_sk_meb2/production/_ext/493934858/lodepng.o
                0x9d01be34                lodepng_state_init

.text._laWidget_InvalidateChildren
                0x9d01be78       0x44
 .text._laWidget_InvalidateChildren
                0x9d01be78       0x44 build/pic32mz_ef_sk_meb2/production/_ext/1907747181/libaria_widget.o
                0x9d01be78                _laWidget_InvalidateChildren

.text.defBegin  0x9d01bebc       0x44
 .text.defBegin
                0x9d01bebc       0x44 build/pic32mz_ef_sk_meb2/production/_ext/1847583374/gfx_default_impl.o
                0x9d01bebc                defBegin

.text.defLayerBufferIsAllocated
                0x9d01bf00       0x44
 .text.defLayerBufferIsAllocated
                0x9d01bf00       0x44 build/pic32mz_ef_sk_meb2/production/_ext/1847583374/gfx_default_impl.o
                0x9d01bf00                defLayerBufferIsAllocated

.text.get_layerBufferAddress
                0x9d01bf44       0x44
 .text.get_layerBufferAddress
                0x9d01bf44       0x44 build/pic32mz_ef_sk_meb2/production/_ext/1847583374/gfx_get.o
                0x9d01bf44                get_layerBufferAddress

.text.get_layerBufferCoherent
                0x9d01bf88       0x44
 .text.get_layerBufferCoherent
                0x9d01bf88       0x44 build/pic32mz_ef_sk_meb2/production/_ext/1847583374/gfx_get.o
                0x9d01bf88                get_layerBufferCoherent

.text.get_layerBufferAllocated
                0x9d01bfcc       0x44
 .text.get_layerBufferAllocated
                0x9d01bfcc       0x44 build/pic32mz_ef_sk_meb2/production/_ext/1847583374/gfx_get.o
                0x9d01bfcc                get_layerBufferAllocated

.text.GFX_ColorLerp
                0x9d01c010       0x44
 .text.GFX_ColorLerp
                0x9d01c010       0x44 build/pic32mz_ef_sk_meb2/production/_ext/1847583374/gfx_color_lerp.o
                0x9d01c010                GFX_ColorLerp

.text.GFX_PercentWholeRounded
                0x9d01c054       0x44
 .text.GFX_PercentWholeRounded
                0x9d01c054       0x44 build/pic32mz_ef_sk_meb2/production/_ext/1847583374/gfx_math.o
                0x9d01c054                GFX_PercentWholeRounded

.text.lccDestroy
                0x9d01c098       0x44
 .text.lccDestroy
                0x9d01c098       0x44 build/pic32mz_ef_sk_meb2/production/_ext/713288229/drv_gfx_lcc_generic.o

.text           0x9d01c0dc       0x44
 .text          0x9d01c0dc       0x44 c:/program files (x86)/microchip/xc32/v1.42/bin/bin/../../lib/gcc/pic32mx/4.8.3/../../../../pic32mx/lib\pic32_software_reset.o
                0x9d01c0dc                __pic32_software_reset

.text.JPEG_Read
                0x9d01c120       0x40
 .text.JPEG_Read
                0x9d01c120       0x40 build/pic32mz_ef_sk_meb2/production/_ext/1597685232/gfxu_image_jpg_internal.o

.text.ucvector_resize
                0x9d01c160       0x40
 .text.ucvector_resize
                0x9d01c160       0x40 build/pic32mz_ef_sk_meb2/production/_ext/493934858/lodepng.o

.text.string_init
                0x9d01c1a0       0x40
 .text.string_init
                0x9d01c1a0       0x40 build/pic32mz_ef_sk_meb2/production/_ext/493934858/lodepng.o

.text.GFXU_DrawCharString
                0x9d01c1e0       0x40
 .text.GFXU_DrawCharString
                0x9d01c1e0       0x40 build/pic32mz_ef_sk_meb2/production/_ext/1597685232/gfxu_string.o
                0x9d01c1e0                GFXU_DrawCharString

.text.laContext_Update
                0x9d01c220       0x40
 .text.laContext_Update
                0x9d01c220       0x40 build/pic32mz_ef_sk_meb2/production/_ext/1907747181/libaria_context.o
                0x9d01c220                laContext_Update

.text._laWidget_ValidateChildren
                0x9d01c260       0x40
 .text._laWidget_ValidateChildren
                0x9d01c260       0x40 build/pic32mz_ef_sk_meb2/production/_ext/1907747181/libaria_widget.o
                0x9d01c260                _laWidget_ValidateChildren

.text.defBrightnessSet
                0x9d01c2a0       0x40
 .text.defBrightnessSet
                0x9d01c2a0       0x40 build/pic32mz_ef_sk_meb2/production/_ext/1847583374/gfx_default_impl.o
                0x9d01c2a0                defBrightnessSet

.text.get_drawGradientColor
                0x9d01c2e0       0x40
 .text.get_drawGradientColor
                0x9d01c2e0       0x40 build/pic32mz_ef_sk_meb2/production/_ext/1847583374/gfx_get.o
                0x9d01c2e0                get_drawGradientColor

.text.GFX_PixelBufferOffsetGet_Unsafe
                0x9d01c320       0x40
 .text.GFX_PixelBufferOffsetGet_Unsafe
                0x9d01c320       0x40 build/pic32mz_ef_sk_meb2/production/_ext/1847583374/gfx_pixel_buffer.o
                0x9d01c320                GFX_PixelBufferOffsetGet_Unsafe

.text.rgba5551_rgba8888
                0x9d01c360       0x40
 .text.rgba5551_rgba8888
                0x9d01c360       0x40 build/pic32mz_ef_sk_meb2/production/_ext/1847583374/gfx_color_convert.o

.text.rgba5551_argb8888
                0x9d01c3a0       0x40
 .text.rgba5551_argb8888
                0x9d01c3a0       0x40 build/pic32mz_ef_sk_meb2/production/_ext/1847583374/gfx_color_convert.o

.text.GFX_ColorConvert
                0x9d01c3e0       0x40
 .text.GFX_ColorConvert
                0x9d01c3e0       0x40 build/pic32mz_ef_sk_meb2/production/_ext/1847583374/gfx_color_convert.o
                0x9d01c3e0                GFX_ColorConvert

.text.zlib_decompress
                0x9d01c420       0x3c
 .text.zlib_decompress
                0x9d01c420       0x3c build/pic32mz_ef_sk_meb2/production/_ext/493934858/lodepng.o

.text.lodepng_compress_settings_init
                0x9d01c45c       0x3c
 .text.lodepng_compress_settings_init
                0x9d01c45c       0x3c build/pic32mz_ef_sk_meb2/production/_ext/493934858/lodepng.o
                0x9d01c45c                lodepng_compress_settings_init

.text.lodepng_palette_clear
                0x9d01c498       0x3c
 .text.lodepng_palette_clear
                0x9d01c498       0x3c build/pic32mz_ef_sk_meb2/production/_ext/493934858/lodepng.o
                0x9d01c498                lodepng_palette_clear

.text.GFXU_DrawGlyphRow
                0x9d01c4d4       0x3c
 .text.GFXU_DrawGlyphRow
                0x9d01c4d4       0x3c build/pic32mz_ef_sk_meb2/production/_ext/1597685232/gfxu_string_utils.o
                0x9d01c4d4                GFXU_DrawGlyphRow

.text.laContext_GetActiveScreenIndex
                0x9d01c510       0x3c
 .text.laContext_GetActiveScreenIndex
                0x9d01c510       0x3c build/pic32mz_ef_sk_meb2/production/_ext/1907747181/libaria_context.o
                0x9d01c510                laContext_GetActiveScreenIndex

.text.handleTouchUp
                0x9d01c54c       0x3c
 .text.handleTouchUp
                0x9d01c54c       0x3c build/pic32mz_ef_sk_meb2/production/_ext/1907747181/libaria_input.o
                0x9d01c54c                handleTouchUp

.text.handleTouchMoved
                0x9d01c588       0x3c
 .text.handleTouchMoved
                0x9d01c588       0x3c build/pic32mz_ef_sk_meb2/production/_ext/1907747181/libaria_input.o
                0x9d01c588                handleTouchMoved

.text.defVSyncCallbackSet
                0x9d01c5c4       0x3c
 .text.defVSyncCallbackSet
                0x9d01c5c4       0x3c build/pic32mz_ef_sk_meb2/production/_ext/1847583374/gfx_default_impl.o
                0x9d01c5c4                defVSyncCallbackSet

.text.defHSyncCallbackSet
                0x9d01c600       0x3c
 .text.defHSyncCallbackSet
                0x9d01c600       0x3c build/pic32mz_ef_sk_meb2/production/_ext/1847583374/gfx_default_impl.o
                0x9d01c600                defHSyncCallbackSet

.text.defLayerBufferAddressGet
                0x9d01c63c       0x3c
 .text.defLayerBufferAddressGet
                0x9d01c63c       0x3c build/pic32mz_ef_sk_meb2/production/_ext/1847583374/gfx_default_impl.o
                0x9d01c63c                defLayerBufferAddressGet

.text.defLayerBufferCoherentGet
                0x9d01c678       0x3c
 .text.defLayerBufferCoherentGet
                0x9d01c678       0x3c build/pic32mz_ef_sk_meb2/production/_ext/1847583374/gfx_default_impl.o
                0x9d01c678                defLayerBufferCoherentGet

.text.defLayerAlphaAmountSet
                0x9d01c6b4       0x3c
 .text.defLayerAlphaAmountSet
                0x9d01c6b4       0x3c build/pic32mz_ef_sk_meb2/production/_ext/1847583374/gfx_default_impl.o
                0x9d01c6b4                defLayerAlphaAmountSet

.text.set_drawGradientColor
                0x9d01c6f0       0x3c
 .text.set_drawGradientColor
                0x9d01c6f0       0x3c build/pic32mz_ef_sk_meb2/production/_ext/1847583374/gfx_set.o
                0x9d01c6f0                set_drawGradientColor

.text._general_exception_handler
                0x9d01c72c       0x3c
 .text._general_exception_handler
                0x9d01c72c       0x3c build/pic32mz_ef_sk_meb2/production/_ext/1951523377/system_exceptions.o
                0x9d01c72c                _general_exception_handler

.text.HuffmanTree_cleanup
                0x9d01c768       0x38
 .text.HuffmanTree_cleanup
                0x9d01c768       0x38 build/pic32mz_ef_sk_meb2/production/_ext/493934858/lodepng.o

.text.GFXU_DecodeCodePoint
                0x9d01c7a0       0x38
 .text.GFXU_DecodeCodePoint
                0x9d01c7a0       0x38 build/pic32mz_ef_sk_meb2/production/_ext/1597685232/gfxu_string_utils.o
                0x9d01c7a0                GFXU_DecodeCodePoint

.text.laInitialize
                0x9d01c7d8       0x38
 .text.laInitialize
                0x9d01c7d8       0x38 build/pic32mz_ef_sk_meb2/production/_ext/1907747181/libaria.o
                0x9d01c7d8                laInitialize

.text._laContext_Update
                0x9d01c810       0x38
 .text._laContext_Update
                0x9d01c810       0x38 build/pic32mz_ef_sk_meb2/production/_ext/1907747181/libaria_context.o
                0x9d01c810                _laContext_Update

.text.laEditWidget_StartEdit
                0x9d01c848       0x38
 .text.laEditWidget_StartEdit
                0x9d01c848       0x38 build/pic32mz_ef_sk_meb2/production/_ext/1907747181/libaria_editwidget.o
                0x9d01c848                laEditWidget_StartEdit

.text.GFX_Update
                0x9d01c880       0x38
 .text.GFX_Update
                0x9d01c880       0x38 build/pic32mz_ef_sk_meb2/production/_ext/1847583374/gfx.o
                0x9d01c880                GFX_Update

.text.GFX_Begin
                0x9d01c8b8       0x38
 .text.GFX_Begin
                0x9d01c8b8       0x38 build/pic32mz_ef_sk_meb2/production/_ext/1847583374/gfx.o
                0x9d01c8b8                GFX_Begin

.text.defDrawBlendModeSet
                0x9d01c8f0       0x38
 .text.defDrawBlendModeSet
                0x9d01c8f0       0x38 build/pic32mz_ef_sk_meb2/production/_ext/1847583374/gfx_default_impl.o
                0x9d01c8f0                defDrawBlendModeSet

.text.GFX_DriverIntfGet
                0x9d01c928       0x38
 .text.GFX_DriverIntfGet
                0x9d01c928       0x38 build/pic32mz_ef_sk_meb2/production/_ext/1847583374/gfx_driver_interface.o
                0x9d01c928                GFX_DriverIntfGet

.text.get_brightness
                0x9d01c960       0x38
 .text.get_brightness
                0x9d01c960       0x38 build/pic32mz_ef_sk_meb2/production/_ext/1847583374/gfx_get.o
                0x9d01c960                get_brightness

.text.get_vsyncCallback
                0x9d01c998       0x38
 .text.get_vsyncCallback
                0x9d01c998       0x38 build/pic32mz_ef_sk_meb2/production/_ext/1847583374/gfx_get.o
                0x9d01c998                get_vsyncCallback

.text.get_hsyncCallback
                0x9d01c9d0       0x38
 .text.get_hsyncCallback
                0x9d01c9d0       0x38 build/pic32mz_ef_sk_meb2/production/_ext/1847583374/gfx_get.o
                0x9d01c9d0                get_hsyncCallback

.text.get_orientation
                0x9d01ca08       0x38
 .text.get_orientation
                0x9d01ca08       0x38 build/pic32mz_ef_sk_meb2/production/_ext/1847583374/gfx_get.o
                0x9d01ca08                get_orientation

.text.get_mirroring
                0x9d01ca40       0x38
 .text.get_mirroring
                0x9d01ca40       0x38 build/pic32mz_ef_sk_meb2/production/_ext/1847583374/gfx_get.o
                0x9d01ca40                get_mirroring

.text.get_colorMode
                0x9d01ca78       0x38
 .text.get_colorMode
                0x9d01ca78       0x38 build/pic32mz_ef_sk_meb2/production/_ext/1847583374/gfx_get.o
                0x9d01ca78                get_colorMode

.text.get_layerEnabled
                0x9d01cab0       0x38
 .text.get_layerEnabled
                0x9d01cab0       0x38 build/pic32mz_ef_sk_meb2/production/_ext/1847583374/gfx_get.o
                0x9d01cab0                get_layerEnabled

.text.get_layerVisible
                0x9d01cae8       0x38
 .text.get_layerVisible
                0x9d01cae8       0x38 build/pic32mz_ef_sk_meb2/production/_ext/1847583374/gfx_get.o
                0x9d01cae8                get_layerVisible

.text.get_layerVsync
                0x9d01cb20       0x38
 .text.get_layerVsync
                0x9d01cb20       0x38 build/pic32mz_ef_sk_meb2/production/_ext/1847583374/gfx_get.o
                0x9d01cb20                get_layerVsync

.text.get_layerSwap
                0x9d01cb58       0x38
 .text.get_layerSwap
                0x9d01cb58       0x38 build/pic32mz_ef_sk_meb2/production/_ext/1847583374/gfx_get.o
                0x9d01cb58                get_layerSwap

.text.get_layerAlphaEnable
                0x9d01cb90       0x38
 .text.get_layerAlphaEnable
                0x9d01cb90       0x38 build/pic32mz_ef_sk_meb2/production/_ext/1847583374/gfx_get.o
                0x9d01cb90                get_layerAlphaEnable

.text.get_layerAlphaAmount
                0x9d01cbc8       0x38
 .text.get_layerAlphaAmount
                0x9d01cbc8       0x38 build/pic32mz_ef_sk_meb2/production/_ext/1847583374/gfx_get.o
                0x9d01cbc8                get_layerAlphaAmount

.text.get_layerMaskEnable
                0x9d01cc00       0x38
 .text.get_layerMaskEnable
                0x9d01cc00       0x38 build/pic32mz_ef_sk_meb2/production/_ext/1847583374/gfx_get.o
                0x9d01cc00                get_layerMaskEnable

.text.get_layerMaskColor
                0x9d01cc38       0x38
 .text.get_layerMaskColor
                0x9d01cc38       0x38 build/pic32mz_ef_sk_meb2/production/_ext/1847583374/gfx_get.o
                0x9d01cc38                get_layerMaskColor

.text.get_layerBufferCount
                0x9d01cc70       0x38
 .text.get_layerBufferCount
                0x9d01cc70       0x38 build/pic32mz_ef_sk_meb2/production/_ext/1847583374/gfx_get.o
                0x9d01cc70                get_layerBufferCount

.text.get_drawMode
                0x9d01cca8       0x38
 .text.get_drawMode
                0x9d01cca8       0x38 build/pic32mz_ef_sk_meb2/production/_ext/1847583374/gfx_get.o
                0x9d01cca8                get_drawMode

.text.get_drawColor
                0x9d01cce0       0x38
 .text.get_drawColor
                0x9d01cce0       0x38 build/pic32mz_ef_sk_meb2/production/_ext/1847583374/gfx_get.o
                0x9d01cce0                get_drawColor

.text.get_drawBlendMode
                0x9d01cd18       0x38
 .text.get_drawBlendMode
                0x9d01cd18       0x38 build/pic32mz_ef_sk_meb2/production/_ext/1847583374/gfx_get.o
                0x9d01cd18                get_drawBlendMode

.text.get_drawAlphaEnable
                0x9d01cd50       0x38
 .text.get_drawAlphaEnable
                0x9d01cd50       0x38 build/pic32mz_ef_sk_meb2/production/_ext/1847583374/gfx_get.o
                0x9d01cd50                get_drawAlphaEnable

.text.get_drawAlphaValue
                0x9d01cd88       0x38
 .text.get_drawAlphaValue
                0x9d01cd88       0x38 build/pic32mz_ef_sk_meb2/production/_ext/1847583374/gfx_get.o
                0x9d01cd88                get_drawAlphaValue

.text.get_drawMaskEnable
                0x9d01cdc0       0x38
 .text.get_drawMaskEnable
                0x9d01cdc0       0x38 build/pic32mz_ef_sk_meb2/production/_ext/1847583374/gfx_get.o
                0x9d01cdc0                get_drawMaskEnable

.text.get_drawMaskValue
                0x9d01cdf8       0x38
 .text.get_drawMaskValue
                0x9d01cdf8       0x38 build/pic32mz_ef_sk_meb2/production/_ext/1847583374/gfx_get.o
                0x9d01cdf8                get_drawMaskValue

.text.get_drawThickness
                0x9d01ce30       0x38
 .text.get_drawThickness
                0x9d01ce30       0x38 build/pic32mz_ef_sk_meb2/production/_ext/1847583374/gfx_get.o
                0x9d01ce30                get_drawThickness

.text.get_drawClipEnable
                0x9d01ce68       0x38
 .text.get_drawClipEnable
                0x9d01ce68       0x38 build/pic32mz_ef_sk_meb2/production/_ext/1847583374/gfx_get.o
                0x9d01ce68                get_drawClipEnable

.text._GFX_LayerSizeSet
                0x9d01cea0       0x38
 .text._GFX_LayerSizeSet
                0x9d01cea0       0x38 build/pic32mz_ef_sk_meb2/production/_ext/1847583374/gfx_layer.o
                0x9d01cea0                _GFX_LayerSizeSet

.text.GFX_ColorBlendAlpha
                0x9d01ced8       0x38
 .text.GFX_ColorBlendAlpha
                0x9d01ced8       0x38 build/pic32mz_ef_sk_meb2/production/_ext/1847583374/gfx_color_blend.o
                0x9d01ced8                GFX_ColorBlendAlpha

.text.SYS_DMA_ChannelEnable
                0x9d01cf10       0x38
 .text.SYS_DMA_ChannelEnable
                0x9d01cf10       0x38 build/pic32mz_ef_sk_meb2/production/_ext/853959373/sys_dma.o
                0x9d01cf10                SYS_DMA_ChannelEnable

.text.SYS_DMA_ChannelForceStart
                0x9d01cf48       0x38
 .text.SYS_DMA_ChannelForceStart
                0x9d01cf48       0x38 build/pic32mz_ef_sk_meb2/production/_ext/853959373/sys_dma.o
                0x9d01cf48                SYS_DMA_ChannelForceStart

.text.DRV_TMR0_Start
                0x9d01cf80       0x38
 .text.DRV_TMR0_Start
                0x9d01cf80       0x38 build/pic32mz_ef_sk_meb2/production/_ext/199634090/drv_tmr_static.o
                0x9d01cf80                DRV_TMR0_Start

.text.ucvector_cleanup
                0x9d01cfb8       0x34
 .text.ucvector_cleanup
                0x9d01cfb8       0x34 build/pic32mz_ef_sk_meb2/production/_ext/493934858/lodepng.o

.text.uivector_cleanup
                0x9d01cfec       0x34
 .text.uivector_cleanup
                0x9d01cfec       0x34 build/pic32mz_ef_sk_meb2/production/_ext/493934858/lodepng.o

.text.laInput_SetEnabled
                0x9d01d020       0x34
 .text.laInput_SetEnabled
                0x9d01d020       0x34 build/pic32mz_ef_sk_meb2/production/_ext/1907747181/libaria_input.o
                0x9d01d020                laInput_SetEnabled

.text.laWidget_SetScheme
                0x9d01d054       0x34
 .text.laWidget_SetScheme
                0x9d01d054       0x34 build/pic32mz_ef_sk_meb2/production/_ext/1907747181/libaria_widget.o
                0x9d01d054                laWidget_SetScheme

.text.laImageWidget_SetImage
                0x9d01d088       0x34
 .text.laImageWidget_SetImage
                0x9d01d088       0x34 build/pic32mz_ef_sk_meb2/production/_ext/1907747181/libaria_widget_image.o
                0x9d01d088                laImageWidget_SetImage

.text.defLayerBufferFree
                0x9d01d0bc       0x34
 .text.defLayerBufferFree
                0x9d01d0bc       0x34 build/pic32mz_ef_sk_meb2/production/_ext/1847583374/gfx_default_impl.o
                0x9d01d0bc                defLayerBufferFree

.text.defLayerBufferAllocate
                0x9d01d0f0       0x34
 .text.defLayerBufferAllocate
                0x9d01d0f0       0x34 build/pic32mz_ef_sk_meb2/production/_ext/1847583374/gfx_default_impl.o
                0x9d01d0f0                defLayerBufferAllocate

.text.get_driverInfo
                0x9d01d124       0x34
 .text.get_driverInfo
                0x9d01d124       0x34 build/pic32mz_ef_sk_meb2/production/_ext/1847583374/gfx_get.o
                0x9d01d124                get_driverInfo

.text.get_brightnessRange
                0x9d01d158       0x34
 .text.get_brightnessRange
                0x9d01d158       0x34 build/pic32mz_ef_sk_meb2/production/_ext/1847583374/gfx_get.o
                0x9d01d158                get_brightnessRange

.text.get_layerCount
                0x9d01d18c       0x34
 .text.get_layerCount
                0x9d01d18c       0x34 build/pic32mz_ef_sk_meb2/production/_ext/1847583374/gfx_get.o
                0x9d01d18c                get_layerCount

.text.get_layerActive
                0x9d01d1c0       0x34
 .text.get_layerActive
                0x9d01d1c0       0x34 build/pic32mz_ef_sk_meb2/production/_ext/1847583374/gfx_get.o
                0x9d01d1c0                get_layerActive

.text.get_layerPosition
                0x9d01d1f4       0x34
 .text.get_layerPosition
                0x9d01d1f4       0x34 build/pic32mz_ef_sk_meb2/production/_ext/1847583374/gfx_get.o
                0x9d01d1f4                get_layerPosition

.text.get_layerSize
                0x9d01d228       0x34
 .text.get_layerSize
                0x9d01d228       0x34 build/pic32mz_ef_sk_meb2/production/_ext/1847583374/gfx_get.o
                0x9d01d228                get_layerSize

.text.get_drawPalette
                0x9d01d25c       0x34
 .text.get_drawPalette
                0x9d01d25c       0x34 build/pic32mz_ef_sk_meb2/production/_ext/1847583374/gfx_get.o
                0x9d01d25c                get_drawPalette

.text.set_layerPosition
                0x9d01d290       0x34
 .text.set_layerPosition
                0x9d01d290       0x34 build/pic32mz_ef_sk_meb2/production/_ext/1847583374/gfx_set.o
                0x9d01d290                set_layerPosition

.text.set_layerSize
                0x9d01d2c4       0x34
 .text.set_layerSize
                0x9d01d2c4       0x34 build/pic32mz_ef_sk_meb2/production/_ext/1847583374/gfx_set.o
                0x9d01d2c4                set_layerSize

.text.set_layerBufferAddress
                0x9d01d2f8       0x34
 .text.set_layerBufferAddress
                0x9d01d2f8       0x34 build/pic32mz_ef_sk_meb2/production/_ext/1847583374/gfx_set.o
                0x9d01d2f8                set_layerBufferAddress

.text.set_layerBufferCoherent
                0x9d01d32c       0x34
 .text.set_layerBufferCoherent
                0x9d01d32c       0x34 build/pic32mz_ef_sk_meb2/production/_ext/1847583374/gfx_set.o
                0x9d01d32c                set_layerBufferCoherent

.text.LibAria_Tasks
                0x9d01d360       0x34
 .text.LibAria_Tasks
                0x9d01d360       0x34 build/pic32mz_ef_sk_meb2/production/_ext/1740298103/libaria_harmony.o
                0x9d01d360                LibAria_Tasks

.text.lodepng_get_bpp
                0x9d01d394       0x30
 .text.lodepng_get_bpp
                0x9d01d394       0x30 build/pic32mz_ef_sk_meb2/production/_ext/493934858/lodepng.o
                0x9d01d394                lodepng_get_bpp

.text.lodepng_state_cleanup
                0x9d01d3c4       0x30
 .text.lodepng_state_cleanup
                0x9d01d3c4       0x30 build/pic32mz_ef_sk_meb2/production/_ext/493934858/lodepng.o
                0x9d01d3c4                lodepng_state_cleanup

.text.laEditWidget_EndEdit
                0x9d01d3f4       0x30
 .text.laEditWidget_EndEdit
                0x9d01d3f4       0x30 build/pic32mz_ef_sk_meb2/production/_ext/1907747181/libaria_editwidget.o
                0x9d01d3f4                laEditWidget_EndEdit

.text.GFX_End   0x9d01d424       0x30
 .text.GFX_End  0x9d01d424       0x30 build/pic32mz_ef_sk_meb2/production/_ext/1847583374/gfx.o
                0x9d01d424                GFX_End

.text.defLayerEnabledSet
                0x9d01d454       0x30
 .text.defLayerEnabledSet
                0x9d01d454       0x30 build/pic32mz_ef_sk_meb2/production/_ext/1847583374/gfx_default_impl.o
                0x9d01d454                defLayerEnabledSet

.text.defLayerVisibleSet
                0x9d01d484       0x30
 .text.defLayerVisibleSet
                0x9d01d484       0x30 build/pic32mz_ef_sk_meb2/production/_ext/1847583374/gfx_default_impl.o
                0x9d01d484                defLayerVisibleSet

.text.defLayerVsyncSet
                0x9d01d4b4       0x30
 .text.defLayerVsyncSet
                0x9d01d4b4       0x30 build/pic32mz_ef_sk_meb2/production/_ext/1847583374/gfx_default_impl.o
                0x9d01d4b4                defLayerVsyncSet

.text.defLayerAlphaEnableSet
                0x9d01d4e4       0x30
 .text.defLayerAlphaEnableSet
                0x9d01d4e4       0x30 build/pic32mz_ef_sk_meb2/production/_ext/1847583374/gfx_default_impl.o
                0x9d01d4e4                defLayerAlphaEnableSet

.text.defLayerMaskEnableSet
                0x9d01d514       0x30
 .text.defLayerMaskEnableSet
                0x9d01d514       0x30 build/pic32mz_ef_sk_meb2/production/_ext/1847583374/gfx_default_impl.o
                0x9d01d514                defLayerMaskEnableSet

.text.defLayerMaskColorSet
                0x9d01d544       0x30
 .text.defLayerMaskColorSet
                0x9d01d544       0x30 build/pic32mz_ef_sk_meb2/production/_ext/1847583374/gfx_default_impl.o
                0x9d01d544                defLayerMaskColorSet

.text.get_drawClipRect
                0x9d01d574       0x30
 .text.get_drawClipRect
                0x9d01d574       0x30 build/pic32mz_ef_sk_meb2/production/_ext/1847583374/gfx_get.o
                0x9d01d574                get_drawClipRect

.text.set_brightness
                0x9d01d5a4       0x30
 .text.set_brightness
                0x9d01d5a4       0x30 build/pic32mz_ef_sk_meb2/production/_ext/1847583374/gfx_set.o
                0x9d01d5a4                set_brightness

.text.set_vsyncCallback
                0x9d01d5d4       0x30
 .text.set_vsyncCallback
                0x9d01d5d4       0x30 build/pic32mz_ef_sk_meb2/production/_ext/1847583374/gfx_set.o
                0x9d01d5d4                set_vsyncCallback

.text.set_hsyncCallback
                0x9d01d604       0x30
 .text.set_hsyncCallback
                0x9d01d604       0x30 build/pic32mz_ef_sk_meb2/production/_ext/1847583374/gfx_set.o
                0x9d01d604                set_hsyncCallback

.text.set_orientation
                0x9d01d634       0x30
 .text.set_orientation
                0x9d01d634       0x30 build/pic32mz_ef_sk_meb2/production/_ext/1847583374/gfx_set.o
                0x9d01d634                set_orientation

.text.set_mirroring
                0x9d01d664       0x30
 .text.set_mirroring
                0x9d01d664       0x30 build/pic32mz_ef_sk_meb2/production/_ext/1847583374/gfx_set.o
                0x9d01d664                set_mirroring

.text.set_colorMode
                0x9d01d694       0x30
 .text.set_colorMode
                0x9d01d694       0x30 build/pic32mz_ef_sk_meb2/production/_ext/1847583374/gfx_set.o
                0x9d01d694                set_colorMode

.text.set_layerActive
                0x9d01d6c4       0x30
 .text.set_layerActive
                0x9d01d6c4       0x30 build/pic32mz_ef_sk_meb2/production/_ext/1847583374/gfx_set.o
                0x9d01d6c4                set_layerActive

.text.set_layerEnabled
                0x9d01d6f4       0x30
 .text.set_layerEnabled
                0x9d01d6f4       0x30 build/pic32mz_ef_sk_meb2/production/_ext/1847583374/gfx_set.o
                0x9d01d6f4                set_layerEnabled

.text.set_layerVisible
                0x9d01d724       0x30
 .text.set_layerVisible
                0x9d01d724       0x30 build/pic32mz_ef_sk_meb2/production/_ext/1847583374/gfx_set.o
                0x9d01d724                set_layerVisible

.text.set_layerVsync
                0x9d01d754       0x30
 .text.set_layerVsync
                0x9d01d754       0x30 build/pic32mz_ef_sk_meb2/production/_ext/1847583374/gfx_set.o
                0x9d01d754                set_layerVsync

.text.set_layerSwap
                0x9d01d784       0x30
 .text.set_layerSwap
                0x9d01d784       0x30 build/pic32mz_ef_sk_meb2/production/_ext/1847583374/gfx_set.o
                0x9d01d784                set_layerSwap

.text.set_layerAlphaEnable
                0x9d01d7b4       0x30
 .text.set_layerAlphaEnable
                0x9d01d7b4       0x30 build/pic32mz_ef_sk_meb2/production/_ext/1847583374/gfx_set.o
                0x9d01d7b4                set_layerAlphaEnable

.text.set_layerAlphaAmount
                0x9d01d7e4       0x30
 .text.set_layerAlphaAmount
                0x9d01d7e4       0x30 build/pic32mz_ef_sk_meb2/production/_ext/1847583374/gfx_set.o
                0x9d01d7e4                set_layerAlphaAmount

.text.set_layerMaskEnable
                0x9d01d814       0x30
 .text.set_layerMaskEnable
                0x9d01d814       0x30 build/pic32mz_ef_sk_meb2/production/_ext/1847583374/gfx_set.o
                0x9d01d814                set_layerMaskEnable

.text.set_layerMaskColor
                0x9d01d844       0x30
 .text.set_layerMaskColor
                0x9d01d844       0x30 build/pic32mz_ef_sk_meb2/production/_ext/1847583374/gfx_set.o
                0x9d01d844                set_layerMaskColor

.text.set_layerBufferCount
                0x9d01d874       0x30
 .text.set_layerBufferCount
                0x9d01d874       0x30 build/pic32mz_ef_sk_meb2/production/_ext/1847583374/gfx_set.o
                0x9d01d874                set_layerBufferCount

.text.set_layerBufferAllocated
                0x9d01d8a4       0x30
 .text.set_layerBufferAllocated
                0x9d01d8a4       0x30 build/pic32mz_ef_sk_meb2/production/_ext/1847583374/gfx_set.o
                0x9d01d8a4                set_layerBufferAllocated

.text.set_layerBufferFree
                0x9d01d8d4       0x30
 .text.set_layerBufferFree
                0x9d01d8d4       0x30 build/pic32mz_ef_sk_meb2/production/_ext/1847583374/gfx_set.o
                0x9d01d8d4                set_layerBufferFree

.text.set_drawMode
                0x9d01d904       0x30
 .text.set_drawMode
                0x9d01d904       0x30 build/pic32mz_ef_sk_meb2/production/_ext/1847583374/gfx_set.o
                0x9d01d904                set_drawMode

.text.set_drawColor
                0x9d01d934       0x30
 .text.set_drawColor
                0x9d01d934       0x30 build/pic32mz_ef_sk_meb2/production/_ext/1847583374/gfx_set.o
                0x9d01d934                set_drawColor

.text.set_drawPalette
                0x9d01d964       0x30
 .text.set_drawPalette
                0x9d01d964       0x30 build/pic32mz_ef_sk_meb2/production/_ext/1847583374/gfx_set.o
                0x9d01d964                set_drawPalette

.text.set_drawBlendMode
                0x9d01d994       0x30
 .text.set_drawBlendMode
                0x9d01d994       0x30 build/pic32mz_ef_sk_meb2/production/_ext/1847583374/gfx_set.o
                0x9d01d994                set_drawBlendMode

.text.set_drawAlphaEnable
                0x9d01d9c4       0x30
 .text.set_drawAlphaEnable
                0x9d01d9c4       0x30 build/pic32mz_ef_sk_meb2/production/_ext/1847583374/gfx_set.o
                0x9d01d9c4                set_drawAlphaEnable

.text.set_drawAlphaValue
                0x9d01d9f4       0x30
 .text.set_drawAlphaValue
                0x9d01d9f4       0x30 build/pic32mz_ef_sk_meb2/production/_ext/1847583374/gfx_set.o
                0x9d01d9f4                set_drawAlphaValue

.text.set_drawMaskEnable
                0x9d01da24       0x30
 .text.set_drawMaskEnable
                0x9d01da24       0x30 build/pic32mz_ef_sk_meb2/production/_ext/1847583374/gfx_set.o
                0x9d01da24                set_drawMaskEnable

.text.set_drawMaskValue
                0x9d01da54       0x30
 .text.set_drawMaskValue
                0x9d01da54       0x30 build/pic32mz_ef_sk_meb2/production/_ext/1847583374/gfx_set.o
                0x9d01da54                set_drawMaskValue

.text.set_drawThickness
                0x9d01da84       0x30
 .text.set_drawThickness
                0x9d01da84       0x30 build/pic32mz_ef_sk_meb2/production/_ext/1847583374/gfx_set.o
                0x9d01da84                set_drawThickness

.text.set_drawClipEnable
                0x9d01dab4       0x30
 .text.set_drawClipEnable
                0x9d01dab4       0x30 build/pic32mz_ef_sk_meb2/production/_ext/1847583374/gfx_set.o
                0x9d01dab4                set_drawClipEnable

.text.set_drawClipRect
                0x9d01dae4       0x30
 .text.set_drawClipRect
                0x9d01dae4       0x30 build/pic32mz_ef_sk_meb2/production/_ext/1847583374/gfx_set.o
                0x9d01dae4                set_drawClipRect

.text.rgb332_rgb888
                0x9d01db14       0x30
 .text.rgb332_rgb888
                0x9d01db14       0x30 build/pic32mz_ef_sk_meb2/production/_ext/1847583374/gfx_color_convert.o

.text.rgb332_rgba8888
                0x9d01db44       0x30
 .text.rgb332_rgba8888
                0x9d01db44       0x30 build/pic32mz_ef_sk_meb2/production/_ext/1847583374/gfx_color_convert.o

.text.rgb332_argb8888
                0x9d01db74       0x30
 .text.rgb332_argb8888
                0x9d01db74       0x30 build/pic32mz_ef_sk_meb2/production/_ext/1847583374/gfx_color_convert.o

.text.rgba5551_rgb888
                0x9d01dba4       0x30
 .text.rgba5551_rgb888
                0x9d01dba4       0x30 build/pic32mz_ef_sk_meb2/production/_ext/1847583374/gfx_color_convert.o

.text.rgba8888_rgba5551
                0x9d01dbd4       0x30
 .text.rgba8888_rgba5551
                0x9d01dbd4       0x30 build/pic32mz_ef_sk_meb2/production/_ext/1847583374/gfx_color_convert.o

.text.argb8888_rgba5551
                0x9d01dc04       0x30
 .text.argb8888_rgba5551
                0x9d01dc04       0x30 build/pic32mz_ef_sk_meb2/production/_ext/1847583374/gfx_color_convert.o

.text.DRV_TMR0_AlarmEnable
                0x9d01dc34       0x30
 .text.DRV_TMR0_AlarmEnable
                0x9d01dc34       0x30 build/pic32mz_ef_sk_meb2/production/_ext/199634090/drv_tmr_static.o
                0x9d01dc34                DRV_TMR0_AlarmEnable

.text.DRV_TMR1_Start
                0x9d01dc64       0x30
 .text.DRV_TMR1_Start
                0x9d01dc64       0x30 build/pic32mz_ef_sk_meb2/production/_ext/199634090/drv_tmr_static.o
                0x9d01dc64                DRV_TMR1_Start

.text.DRV_TMR1_AlarmEnable
                0x9d01dc94       0x30
 .text.DRV_TMR1_AlarmEnable
                0x9d01dc94       0x30 build/pic32mz_ef_sk_meb2/production/_ext/199634090/drv_tmr_static.o
                0x9d01dc94                DRV_TMR1_AlarmEnable

.text.free      0x9d01dcc4       0x30
 .text.free     0x9d01dcc4       0x30 c:/program files (x86)/microchip/xc32/v1.42/bin/bin/../../lib/gcc/pic32mx/4.8.3/../../../../pic32mx/lib\libc.a(malloc.o)
                0x9d01dcc4                free

.text.JPEG_bReadByte
                0x9d01dcf4       0x2c
 .text.JPEG_bReadByte
                0x9d01dcf4       0x2c build/pic32mz_ef_sk_meb2/production/_ext/1597685232/gfxu_image_jpg_internal.o

.text.lodepng_read32bitInt
                0x9d01dd20       0x2c
 .text.lodepng_read32bitInt
                0x9d01dd20       0x2c build/pic32mz_ef_sk_meb2/production/_ext/493934858/lodepng.o
                0x9d01dd20                lodepng_read32bitInt

.text.lodepng_chunk_next_const
                0x9d01dd4c       0x2c
 .text.lodepng_chunk_next_const
                0x9d01dd4c       0x2c build/pic32mz_ef_sk_meb2/production/_ext/493934858/lodepng.o
                0x9d01dd4c                lodepng_chunk_next_const

.text.lodepng_color_mode_init
                0x9d01dd78       0x2c
 .text.lodepng_color_mode_init
                0x9d01dd78       0x2c build/pic32mz_ef_sk_meb2/production/_ext/493934858/lodepng.o
                0x9d01dd78                lodepng_color_mode_init

.text.getDiscreteValueAtIndex
                0x9d01dda4       0x2c
 .text.getDiscreteValueAtIndex
                0x9d01dda4       0x2c build/pic32mz_ef_sk_meb2/production/_ext/1597685232/gfxu_image_utils.o
                0x9d01dda4                getDiscreteValueAtIndex

.text.getOffsetFromIndexAndBPP
                0x9d01ddd0       0x2c
 .text.getOffsetFromIndexAndBPP
                0x9d01ddd0       0x2c build/pic32mz_ef_sk_meb2/production/_ext/1597685232/gfxu_image_utils.o
                0x9d01ddd0                getOffsetFromIndexAndBPP

.text.defDrawModeSet
                0x9d01ddfc       0x2c
 .text.defDrawModeSet
                0x9d01ddfc       0x2c build/pic32mz_ef_sk_meb2/production/_ext/1847583374/gfx_default_impl.o
                0x9d01ddfc                defDrawModeSet

.text.defDrawColorSet
                0x9d01de28       0x2c
 .text.defDrawColorSet
                0x9d01de28       0x2c build/pic32mz_ef_sk_meb2/production/_ext/1847583374/gfx_default_impl.o
                0x9d01de28                defDrawColorSet

.text.defDrawAlphaEnableSet
                0x9d01de54       0x2c
 .text.defDrawAlphaEnableSet
                0x9d01de54       0x2c build/pic32mz_ef_sk_meb2/production/_ext/1847583374/gfx_default_impl.o
                0x9d01de54                defDrawAlphaEnableSet

.text.defDrawAlphaValueSet
                0x9d01de80       0x2c
 .text.defDrawAlphaValueSet
                0x9d01de80       0x2c build/pic32mz_ef_sk_meb2/production/_ext/1847583374/gfx_default_impl.o
                0x9d01de80                defDrawAlphaValueSet

.text.defDrawMaskEnableSet
                0x9d01deac       0x2c
 .text.defDrawMaskEnableSet
                0x9d01deac       0x2c build/pic32mz_ef_sk_meb2/production/_ext/1847583374/gfx_default_impl.o
                0x9d01deac                defDrawMaskEnableSet

.text.defDrawMaskValueSet
                0x9d01ded8       0x2c
 .text.defDrawMaskValueSet
                0x9d01ded8       0x2c build/pic32mz_ef_sk_meb2/production/_ext/1847583374/gfx_default_impl.o
                0x9d01ded8                defDrawMaskValueSet

.text.defDrawThicknessSet
                0x9d01df04       0x2c
 .text.defDrawThicknessSet
                0x9d01df04       0x2c build/pic32mz_ef_sk_meb2/production/_ext/1847583374/gfx_default_impl.o
                0x9d01df04                defDrawThicknessSet

.text.defDrawClipEnabledSet
                0x9d01df30       0x2c
 .text.defDrawClipEnabledSet
                0x9d01df30       0x2c build/pic32mz_ef_sk_meb2/production/_ext/1847583374/gfx_default_impl.o
                0x9d01df30                defDrawClipEnabledSet

.text.indexGet1bpp
                0x9d01df5c       0x2c
 .text.indexGet1bpp
                0x9d01df5c       0x2c build/pic32mz_ef_sk_meb2/production/_ext/1847583374/gfx_pixel_buffer.o

.text.GFX_UtilOrientPoint
                0x9d01df88       0x2c
 .text.GFX_UtilOrientPoint
                0x9d01df88       0x2c build/pic32mz_ef_sk_meb2/production/_ext/1847583374/gfx_util.o
                0x9d01df88                GFX_UtilOrientPoint

.text.GFX_LayerSizeFromOrientedSpace
                0x9d01dfb4       0x2c
 .text.GFX_LayerSizeFromOrientedSpace
                0x9d01dfb4       0x2c build/pic32mz_ef_sk_meb2/production/_ext/1847583374/gfx_util.o
                0x9d01dfb4                GFX_LayerSizeFromOrientedSpace

.text.GFX_LayerSizeToOrientedSpace
                0x9d01dfe0       0x2c
 .text.GFX_LayerSizeToOrientedSpace
                0x9d01dfe0       0x2c build/pic32mz_ef_sk_meb2/production/_ext/1847583374/gfx_util.o
                0x9d01dfe0                GFX_LayerSizeToOrientedSpace

.text.rgb565_argb8888
                0x9d01e00c       0x2c
 .text.rgb565_argb8888
                0x9d01e00c       0x2c build/pic32mz_ef_sk_meb2/production/_ext/1847583374/gfx_color_convert.o

.text.GFX_Percent
                0x9d01e038       0x2c
 .text.GFX_Percent
                0x9d01e038       0x2c build/pic32mz_ef_sk_meb2/production/_ext/1847583374/gfx_math.o
                0x9d01e038                GFX_Percent

.text.SYS_Tasks
                0x9d01e064       0x2c
 .text.SYS_Tasks
                0x9d01e064       0x2c build/pic32mz_ef_sk_meb2/production/_ext/1951523377/system_tasks.o
                0x9d01e064                SYS_Tasks

.text._stub_sbd_memlayout
                0x9d01e090       0x2c
 .text._stub_sbd_memlayout
                0x9d01e090       0x2c c:/program files (x86)/microchip/xc32/v1.42/bin/bin/../../lib/gcc/pic32mx/4.8.3/../../../../pic32mx/lib\libpic32.a(sbrk.o)
                0x9d01e090                _sbd_memlayout
                0x9d01e090                _stub_sbd_memlayout

.text.readBitFromReversedStream
                0x9d01e0bc       0x28
 .text.readBitFromReversedStream
                0x9d01e0bc       0x28 build/pic32mz_ef_sk_meb2/production/_ext/493934858/lodepng.o

.text.lodepng_decoder_settings_init
                0x9d01e0e4       0x28
 .text.lodepng_decoder_settings_init
                0x9d01e0e4       0x28 build/pic32mz_ef_sk_meb2/production/_ext/493934858/lodepng.o
                0x9d01e0e4                lodepng_decoder_settings_init

.text.headerReadRequestCompleted
                0x9d01e10c       0x28
 .text.headerReadRequestCompleted
                0x9d01e10c       0x28 build/pic32mz_ef_sk_meb2/production/_ext/1597685232/gfxu_image_rle_external.o

.text.laContext_SetStringTable
                0x9d01e134       0x28
 .text.laContext_SetStringTable
                0x9d01e134       0x28 build/pic32mz_ef_sk_meb2/production/_ext/1907747181/libaria_context.o
                0x9d01e134                laContext_SetStringTable

.text.laWidget_SetBorderType
                0x9d01e15c       0x28
 .text.laWidget_SetBorderType
                0x9d01e15c       0x28 build/pic32mz_ef_sk_meb2/production/_ext/1907747181/libaria_widget.o
                0x9d01e15c                laWidget_SetBorderType

.text.laWidget_SetDrawBackground
                0x9d01e184       0x28
 .text.laWidget_SetDrawBackground
                0x9d01e184       0x28 build/pic32mz_ef_sk_meb2/production/_ext/1907747181/libaria_widget.o
                0x9d01e184                laWidget_SetDrawBackground

.text.GFX_Initialize
                0x9d01e1ac       0x28
 .text.GFX_Initialize
                0x9d01e1ac       0x28 build/pic32mz_ef_sk_meb2/production/_ext/1847583374/gfx.o
                0x9d01e1ac                GFX_Initialize

.text.orient_0  0x9d01e1d4       0x28
 .text.orient_0
                0x9d01e1d4       0x28 build/pic32mz_ef_sk_meb2/production/_ext/1847583374/gfx_util.o

.text.rgb332_rgb565
                0x9d01e1fc       0x28
 .text.rgb332_rgb565
                0x9d01e1fc       0x28 build/pic32mz_ef_sk_meb2/production/_ext/1847583374/gfx_color_convert.o

.text.rgb332_rgba5551
                0x9d01e224       0x28
 .text.rgb332_rgba5551
                0x9d01e224       0x28 build/pic32mz_ef_sk_meb2/production/_ext/1847583374/gfx_color_convert.o

.text.rgb565_rgba8888
                0x9d01e24c       0x28
 .text.rgb565_rgba8888
                0x9d01e24c       0x28 build/pic32mz_ef_sk_meb2/production/_ext/1847583374/gfx_color_convert.o

.text.rgb888_rgba5551
                0x9d01e274       0x28
 .text.rgb888_rgba5551
                0x9d01e274       0x28 build/pic32mz_ef_sk_meb2/production/_ext/1847583374/gfx_color_convert.o

.text.GFX_InitializeDriverList
                0x9d01e29c       0x28
 .text.GFX_InitializeDriverList
                0x9d01e29c       0x28 build/pic32mz_ef_sk_meb2/production/_ext/477038478/gfx_driver_def.o
                0x9d01e29c                GFX_InitializeDriverList

.text.APP_TimerUsCallback
                0x9d01e2c4       0x24
 .text.APP_TimerUsCallback
                0x9d01e2c4       0x24 build/pic32mz_ef_sk_meb2/production/_ext/1360937237/app.o
                0x9d01e2c4                APP_TimerUsCallback

.text.laList_Create
                0x9d01e2e8       0x24
 .text.laList_Create
                0x9d01e2e8       0x24 build/pic32mz_ef_sk_meb2/production/_ext/1907747181/libaria_list.o
                0x9d01e2e8                laList_Create

.text.laString_Initialize
                0x9d01e30c       0x24
 .text.laString_Initialize
                0x9d01e30c       0x24 build/pic32mz_ef_sk_meb2/production/_ext/1907747181/libaria_string.o
                0x9d01e30c                laString_Initialize

.text.defEnd    0x9d01e330       0x24
 .text.defEnd   0x9d01e330       0x24 build/pic32mz_ef_sk_meb2/production/_ext/1847583374/gfx_default_impl.o
                0x9d01e330                defEnd

.text.defLayerEnabledGet
                0x9d01e354       0x24
 .text.defLayerEnabledGet
                0x9d01e354       0x24 build/pic32mz_ef_sk_meb2/production/_ext/1847583374/gfx_default_impl.o
                0x9d01e354                defLayerEnabledGet

.text.defLayerVisibleGet
                0x9d01e378       0x24
 .text.defLayerVisibleGet
                0x9d01e378       0x24 build/pic32mz_ef_sk_meb2/production/_ext/1847583374/gfx_default_impl.o
                0x9d01e378                defLayerVisibleGet

.text.defLayerBufferCountGet
                0x9d01e39c       0x24
 .text.defLayerBufferCountGet
                0x9d01e39c       0x24 build/pic32mz_ef_sk_meb2/production/_ext/1847583374/gfx_default_impl.o
                0x9d01e39c                defLayerBufferCountGet

.text.defLayerVsyncGet
                0x9d01e3c0       0x24
 .text.defLayerVsyncGet
                0x9d01e3c0       0x24 build/pic32mz_ef_sk_meb2/production/_ext/1847583374/gfx_default_impl.o
                0x9d01e3c0                defLayerVsyncGet

.text.defLayerSwapGet
                0x9d01e3e4       0x24
 .text.defLayerSwapGet
                0x9d01e3e4       0x24 build/pic32mz_ef_sk_meb2/production/_ext/1847583374/gfx_default_impl.o
                0x9d01e3e4                defLayerSwapGet

.text.defLayerAlphaEnableGet
                0x9d01e408       0x24
 .text.defLayerAlphaEnableGet
                0x9d01e408       0x24 build/pic32mz_ef_sk_meb2/production/_ext/1847583374/gfx_default_impl.o
                0x9d01e408                defLayerAlphaEnableGet

.text.defLayerAlphaAmountGet
                0x9d01e42c       0x24
 .text.defLayerAlphaAmountGet
                0x9d01e42c       0x24 build/pic32mz_ef_sk_meb2/production/_ext/1847583374/gfx_default_impl.o
                0x9d01e42c                defLayerAlphaAmountGet

.text.defLayerMaskEnableGet
                0x9d01e450       0x24
 .text.defLayerMaskEnableGet
                0x9d01e450       0x24 build/pic32mz_ef_sk_meb2/production/_ext/1847583374/gfx_default_impl.o
                0x9d01e450                defLayerMaskEnableGet

.text.defLayerMaskColorGet
                0x9d01e474       0x24
 .text.defLayerMaskColorGet
                0x9d01e474       0x24 build/pic32mz_ef_sk_meb2/production/_ext/1847583374/gfx_default_impl.o
                0x9d01e474                defLayerMaskColorGet

.text.indexGet4bpp
                0x9d01e498       0x24
 .text.indexGet4bpp
                0x9d01e498       0x24 build/pic32mz_ef_sk_meb2/production/_ext/1847583374/gfx_pixel_buffer.o

.text.rgb565_rgb888
                0x9d01e4bc       0x24
 .text.rgb565_rgb888
                0x9d01e4bc       0x24 build/pic32mz_ef_sk_meb2/production/_ext/1847583374/gfx_color_convert.o

.text.rgb888_rgb332
                0x9d01e4e0       0x24
 .text.rgb888_rgb332
                0x9d01e4e0       0x24 build/pic32mz_ef_sk_meb2/production/_ext/1847583374/gfx_color_convert.o

.text.rgba8888_rgb888
                0x9d01e504       0x24
 .text.rgba8888_rgb888
                0x9d01e504       0x24 build/pic32mz_ef_sk_meb2/production/_ext/1847583374/gfx_color_convert.o

.text.DRV_TMR0_AlarmDisable
                0x9d01e528       0x24
 .text.DRV_TMR0_AlarmDisable
                0x9d01e528       0x24 build/pic32mz_ef_sk_meb2/production/_ext/199634090/drv_tmr_static.o
                0x9d01e528                DRV_TMR0_AlarmDisable

.text.DRV_TMR1_AlarmDisable
                0x9d01e54c       0x24
 .text.DRV_TMR1_AlarmDisable
                0x9d01e54c       0x24 build/pic32mz_ef_sk_meb2/production/_ext/199634090/drv_tmr_static.o
                0x9d01e54c                DRV_TMR1_AlarmDisable

.text.main      0x9d01e570       0x20
 .text.main     0x9d01e570       0x20 build/pic32mz_ef_sk_meb2/production/_ext/1360937237/main.o
                0x9d01e570                main

.text.getDiscreteValueAtIndex1
                0x9d01e590       0x20
 .text.getDiscreteValueAtIndex1
                0x9d01e590       0x20 build/pic32mz_ef_sk_meb2/production/_ext/1597685232/gfxu_image_utils.o
                0x9d01e590                getDiscreteValueAtIndex1

.text.laLayer_Delete
                0x9d01e5b0       0x20
 .text.laLayer_Delete
                0x9d01e5b0       0x20 build/pic32mz_ef_sk_meb2/production/_ext/1907747181/libaria_layer.o
                0x9d01e5b0                laLayer_Delete

.text.defBrightnessGet
                0x9d01e5d0       0x20
 .text.defBrightnessGet
                0x9d01e5d0       0x20 build/pic32mz_ef_sk_meb2/production/_ext/1847583374/gfx_default_impl.o
                0x9d01e5d0                defBrightnessGet

.text.defVSyncCallbackGet
                0x9d01e5f0       0x20
 .text.defVSyncCallbackGet
                0x9d01e5f0       0x20 build/pic32mz_ef_sk_meb2/production/_ext/1847583374/gfx_default_impl.o
                0x9d01e5f0                defVSyncCallbackGet

.text.defHSyncCallbackGet
                0x9d01e610       0x20
 .text.defHSyncCallbackGet
                0x9d01e610       0x20 build/pic32mz_ef_sk_meb2/production/_ext/1847583374/gfx_default_impl.o
                0x9d01e610                defHSyncCallbackGet

.text.defOrientationGet
                0x9d01e630       0x20
 .text.defOrientationGet
                0x9d01e630       0x20 build/pic32mz_ef_sk_meb2/production/_ext/1847583374/gfx_default_impl.o
                0x9d01e630                defOrientationGet

.text.defMirroringGet
                0x9d01e650       0x20
 .text.defMirroringGet
                0x9d01e650       0x20 build/pic32mz_ef_sk_meb2/production/_ext/1847583374/gfx_default_impl.o
                0x9d01e650                defMirroringGet

.text.defColorModeGet
                0x9d01e670       0x20
 .text.defColorModeGet
                0x9d01e670       0x20 build/pic32mz_ef_sk_meb2/production/_ext/1847583374/gfx_default_impl.o
                0x9d01e670                defColorModeGet

.text.defLayerActiveGet
                0x9d01e690       0x20
 .text.defLayerActiveGet
                0x9d01e690       0x20 build/pic32mz_ef_sk_meb2/production/_ext/1847583374/gfx_default_impl.o
                0x9d01e690                defLayerActiveGet

.text.defDrawModeGet
                0x9d01e6b0       0x20
 .text.defDrawModeGet
                0x9d01e6b0       0x20 build/pic32mz_ef_sk_meb2/production/_ext/1847583374/gfx_default_impl.o
                0x9d01e6b0                defDrawModeGet

.text.defDrawColorGet
                0x9d01e6d0       0x20
 .text.defDrawColorGet
                0x9d01e6d0       0x20 build/pic32mz_ef_sk_meb2/production/_ext/1847583374/gfx_default_impl.o
                0x9d01e6d0                defDrawColorGet

.text.defDrawBlendModeGet
                0x9d01e6f0       0x20
 .text.defDrawBlendModeGet
                0x9d01e6f0       0x20 build/pic32mz_ef_sk_meb2/production/_ext/1847583374/gfx_default_impl.o
                0x9d01e6f0                defDrawBlendModeGet

.text.defDrawAlphaEnableGet
                0x9d01e710       0x20
 .text.defDrawAlphaEnableGet
                0x9d01e710       0x20 build/pic32mz_ef_sk_meb2/production/_ext/1847583374/gfx_default_impl.o
                0x9d01e710                defDrawAlphaEnableGet

.text.defDrawAlphaValueGet
                0x9d01e730       0x20
 .text.defDrawAlphaValueGet
                0x9d01e730       0x20 build/pic32mz_ef_sk_meb2/production/_ext/1847583374/gfx_default_impl.o
                0x9d01e730                defDrawAlphaValueGet

.text.defDrawMaskEnableGet
                0x9d01e750       0x20
 .text.defDrawMaskEnableGet
                0x9d01e750       0x20 build/pic32mz_ef_sk_meb2/production/_ext/1847583374/gfx_default_impl.o
                0x9d01e750                defDrawMaskEnableGet

.text.defDrawMaskValueGet
                0x9d01e770       0x20
 .text.defDrawMaskValueGet
                0x9d01e770       0x20 build/pic32mz_ef_sk_meb2/production/_ext/1847583374/gfx_default_impl.o
                0x9d01e770                defDrawMaskValueGet

.text.defDrawThicknessGet
                0x9d01e790       0x20
 .text.defDrawThicknessGet
                0x9d01e790       0x20 build/pic32mz_ef_sk_meb2/production/_ext/1847583374/gfx_default_impl.o
                0x9d01e790                defDrawThicknessGet

.text.defDrawClipEnabledGet
                0x9d01e7b0       0x20
 .text.defDrawClipEnabledGet
                0x9d01e7b0       0x20 build/pic32mz_ef_sk_meb2/production/_ext/1847583374/gfx_default_impl.o
                0x9d01e7b0                defDrawClipEnabledGet

.text.gs8_rgb565
                0x9d01e7d0       0x20
 .text.gs8_rgb565
                0x9d01e7d0       0x20 build/pic32mz_ef_sk_meb2/production/_ext/1847583374/gfx_color_convert.o

.text.gs8_rgba5551
                0x9d01e7f0       0x20
 .text.gs8_rgba5551
                0x9d01e7f0       0x20 build/pic32mz_ef_sk_meb2/production/_ext/1847583374/gfx_color_convert.o

.text.rgb565_rgb332
                0x9d01e810       0x20
 .text.rgb565_rgb332
                0x9d01e810       0x20 build/pic32mz_ef_sk_meb2/production/_ext/1847583374/gfx_color_convert.o

.text.rgba5551_rgb332
                0x9d01e830       0x20
 .text.rgba5551_rgb332
                0x9d01e830       0x20 build/pic32mz_ef_sk_meb2/production/_ext/1847583374/gfx_color_convert.o

.text.rgb888_rgb565
                0x9d01e850       0x20
 .text.rgb888_rgb565
                0x9d01e850       0x20 build/pic32mz_ef_sk_meb2/production/_ext/1847583374/gfx_color_convert.o

.text.rgba8888_rgb332
                0x9d01e870       0x20
 .text.rgba8888_rgb332
                0x9d01e870       0x20 build/pic32mz_ef_sk_meb2/production/_ext/1847583374/gfx_color_convert.o

.text.rgba8888_rgb565
                0x9d01e890       0x20
 .text.rgba8888_rgb565
                0x9d01e890       0x20 build/pic32mz_ef_sk_meb2/production/_ext/1847583374/gfx_color_convert.o

.text.driverLCCContextInitialize
                0x9d01e8b0       0x20
 .text.driverLCCContextInitialize
                0x9d01e8b0       0x20 build/pic32mz_ef_sk_meb2/production/_ext/713288229/drv_gfx_lcc_generic.o
                0x9d01e8b0                driverLCCContextInitialize

.text.Delay_ms  0x9d01e8d0       0x1c
 .text.Delay_ms
                0x9d01e8d0       0x1c build/pic32mz_ef_sk_meb2/production/_ext/1360937237/ov2640.o
                0x9d01e8d0                Delay_ms

.text.laUpdate  0x9d01e8ec       0x1c
 .text.laUpdate
                0x9d01e8ec       0x1c build/pic32mz_ef_sk_meb2/production/_ext/1907747181/libaria.o
                0x9d01e8ec                laUpdate

.text.laContext_GetStringTable
                0x9d01e908       0x1c
 .text.laContext_GetStringTable
                0x9d01e908       0x1c build/pic32mz_ef_sk_meb2/production/_ext/1907747181/libaria_context.o
                0x9d01e908                laContext_GetStringTable

.text.laContext_GetStringLanguage
                0x9d01e924       0x1c
 .text.laContext_GetStringLanguage
                0x9d01e924       0x1c build/pic32mz_ef_sk_meb2/production/_ext/1907747181/libaria_context.o
                0x9d01e924                laContext_GetStringLanguage

.text.laContext_GetEditWidget
                0x9d01e940       0x1c
 .text.laContext_GetEditWidget
                0x9d01e940       0x1c build/pic32mz_ef_sk_meb2/production/_ext/1907747181/libaria_context.o
                0x9d01e940                laContext_GetEditWidget

.text.laLayer_SetBufferCount
                0x9d01e95c       0x1c
 .text.laLayer_SetBufferCount
                0x9d01e95c       0x1c build/pic32mz_ef_sk_meb2/production/_ext/1907747181/libaria_layer.o
                0x9d01e95c                laLayer_SetBufferCount

.text._laLayer_Invalidate
                0x9d01e978       0x1c
 .text._laLayer_Invalidate
                0x9d01e978       0x1c build/pic32mz_ef_sk_meb2/production/_ext/1907747181/libaria_layer.o
                0x9d01e978                _laLayer_Invalidate

.text._laRectangleWidget_Destructor
                0x9d01e994       0x1c
 .text._laRectangleWidget_Destructor
                0x9d01e994       0x1c build/pic32mz_ef_sk_meb2/production/_ext/1907747181/libaria_widget_rectangle.o
                0x9d01e994                _laRectangleWidget_Destructor

.text.defPixelGet
                0x9d01e9b0       0x1c
 .text.defPixelGet
                0x9d01e9b0       0x1c build/pic32mz_ef_sk_meb2/production/_ext/1847583374/gfx_default_impl.o
                0x9d01e9b0                defPixelGet

.text.defPixelSet
                0x9d01e9cc       0x1c
 .text.defPixelSet
                0x9d01e9cc       0x1c build/pic32mz_ef_sk_meb2/production/_ext/1847583374/gfx_default_impl.o
                0x9d01e9cc                defPixelSet

.text.GFX_DriverIntfInitialize
                0x9d01e9e8       0x1c
 .text.GFX_DriverIntfInitialize
                0x9d01e9e8       0x1c build/pic32mz_ef_sk_meb2/production/_ext/1847583374/gfx_driver_interface.o
                0x9d01e9e8                GFX_DriverIntfInitialize

.text.gs8_rgba8888
                0x9d01ea04       0x1c
 .text.gs8_rgba8888
                0x9d01ea04       0x1c build/pic32mz_ef_sk_meb2/production/_ext/1847583374/gfx_color_convert.o

.text.gs8_argb8888
                0x9d01ea20       0x1c
 .text.gs8_argb8888
                0x9d01ea20       0x1c build/pic32mz_ef_sk_meb2/production/_ext/1847583374/gfx_color_convert.o

.text.lerp_gs8  0x9d01ea3c       0x1c
 .text.lerp_gs8
                0x9d01ea3c       0x1c build/pic32mz_ef_sk_meb2/production/_ext/1847583374/gfx_color_lerp.o

.text.getDiscreteValueAtIndex4
                0x9d01ea58       0x18
 .text.getDiscreteValueAtIndex4
                0x9d01ea58       0x18 build/pic32mz_ef_sk_meb2/production/_ext/1597685232/gfxu_image_utils.o
                0x9d01ea58                getDiscreteValueAtIndex4

.text.GFXU_DecodeASCII
                0x9d01ea70       0x18
 .text.GFXU_DecodeASCII
                0x9d01ea70       0x18 build/pic32mz_ef_sk_meb2/production/_ext/1597685232/gfxu_string_utils.o
                0x9d01ea70                GFXU_DecodeASCII

.text.GFX_DisplayInfoPtrGet
                0x9d01ea88       0x18
 .text.GFX_DisplayInfoPtrGet
                0x9d01ea88       0x18 build/pic32mz_ef_sk_meb2/production/_ext/1847583374/gfx_display.o
                0x9d01ea88                GFX_DisplayInfoPtrGet

.text.gs8_rgb332
                0x9d01eaa0       0x18
 .text.gs8_rgb332
                0x9d01eaa0       0x18 build/pic32mz_ef_sk_meb2/production/_ext/1847583374/gfx_color_convert.o

.text.rgb565_rgba5551
                0x9d01eab8       0x18
 .text.rgb565_rgba5551
                0x9d01eab8       0x18 build/pic32mz_ef_sk_meb2/production/_ext/1847583374/gfx_color_convert.o

.text           0x9d01ead0       0x18
 .text          0x9d01ead0       0x18 c:/program files (x86)/microchip/xc32/v1.42/bin/bin/../../lib/gcc/pic32mx/4.8.3/../../../../pic32mx/lib\libpic32.a(default-nmi-handler.o)
                0x9d01ead0                _nmi_handler

.text.APP_TimerCallback
                0x9d01eae8       0x14
 .text.APP_TimerCallback
                0x9d01eae8       0x14 build/pic32mz_ef_sk_meb2/production/_ext/1360937237/app.o
                0x9d01eae8                APP_TimerCallback

.text.paletteReadRequestCompleted
                0x9d01eafc       0x28
 .text.paletteReadRequestCompleted
                0x9d01eafc       0x14 build/pic32mz_ef_sk_meb2/production/_ext/1597685232/gfxu_image_raw_external.o
 .text.paletteReadRequestCompleted
                0x9d01eb10       0x14 build/pic32mz_ef_sk_meb2/production/_ext/1597685232/gfxu_image_rle_external.o

.text.fontDataRequestCompleted
                0x9d01eb24       0x14
 .text.fontDataRequestCompleted
                0x9d01eb24       0x14 build/pic32mz_ef_sk_meb2/production/_ext/1597685232/gfxu_string_external.o

.text.laContext_GetDefaultScheme
                0x9d01eb38       0x14
 .text.laContext_GetDefaultScheme
                0x9d01eb38       0x14 build/pic32mz_ef_sk_meb2/production/_ext/1907747181/libaria_context.o
                0x9d01eb38                laContext_GetDefaultScheme

.text.laScreen_GetLayerIndex
                0x9d01eb4c       0x14
 .text.laScreen_GetLayerIndex
                0x9d01eb4c       0x14 build/pic32mz_ef_sk_meb2/production/_ext/1907747181/libaria_screen.o
                0x9d01eb4c                laScreen_GetLayerIndex

.text.defBrightnessRangeGet
                0x9d01eb60       0x14
 .text.defBrightnessRangeGet
                0x9d01eb60       0x14 build/pic32mz_ef_sk_meb2/production/_ext/1847583374/gfx_default_impl.o
                0x9d01eb60                defBrightnessRangeGet

.text.get_displayCount
                0x9d01eb74       0x14
 .text.get_displayCount
                0x9d01eb74       0x14 build/pic32mz_ef_sk_meb2/production/_ext/1847583374/gfx_get.o
                0x9d01eb74                get_displayCount

.text.get_driverCount
                0x9d01eb88       0x14
 .text.get_driverCount
                0x9d01eb88       0x14 build/pic32mz_ef_sk_meb2/production/_ext/1847583374/gfx_get.o
                0x9d01eb88                get_driverCount

.text.gs8_rgb888
                0x9d01eb9c       0x14
 .text.gs8_rgb888
                0x9d01eb9c       0x14 build/pic32mz_ef_sk_meb2/production/_ext/1847583374/gfx_color_convert.o

.text.rgba5551_rgb565
                0x9d01ebb0       0x14
 .text.rgba5551_rgb565
                0x9d01ebb0       0x14 build/pic32mz_ef_sk_meb2/production/_ext/1847583374/gfx_color_convert.o

.text.SYS_DMA_Suspend
                0x9d01ebc4       0x14
 .text.SYS_DMA_Suspend
                0x9d01ebc4       0x14 build/pic32mz_ef_sk_meb2/production/_ext/853959373/sys_dma.o
                0x9d01ebc4                SYS_DMA_Suspend

.text.SYS_DMA_Resume
                0x9d01ebd8       0x14
 .text.SYS_DMA_Resume
                0x9d01ebd8       0x14 build/pic32mz_ef_sk_meb2/production/_ext/853959373/sys_dma.o
                0x9d01ebd8                SYS_DMA_Resume

.text.SYS_INT_Initialize
                0x9d01ebec       0x14
 .text.SYS_INT_Initialize
                0x9d01ebec       0x14 build/pic32mz_ef_sk_meb2/production/_ext/1042686532/sys_int_pic32.o
                0x9d01ebec                SYS_INT_Initialize

.text.SYS_DEVCON_Initialize
                0x9d01ec00       0x14
 .text.SYS_DEVCON_Initialize
                0x9d01ec00       0x14 build/pic32mz_ef_sk_meb2/production/_ext/924081491/sys_devcon.o
                0x9d01ec00                SYS_DEVCON_Initialize

.rodata         0x9d01ec14       0x20
 .rodata        0x9d01ec14       0x10 build/pic32mz_ef_sk_meb2/production/_ext/1907747181/libaria_widget_image_skin_classic.o
 .rodata        0x9d01ec24       0x10 build/pic32mz_ef_sk_meb2/production/_ext/1907747181/libaria_widget_label_skin_classic.o

.text.blend_rgba5551
                0x9d01ec34       0x10
 .text.blend_rgba5551
                0x9d01ec34       0x10 build/pic32mz_ef_sk_meb2/production/_ext/1847583374/gfx_color_blend.o

.text.alpha_rgba8888
                0x9d01ec44       0x10
 .text.alpha_rgba8888
                0x9d01ec44       0x10 build/pic32mz_ef_sk_meb2/production/_ext/1847583374/gfx_color_blend.o

.text.DRV_TMR_Open
                0x9d01ec54       0x10
 .text.DRV_TMR_Open
                0x9d01ec54       0x10 build/pic32mz_ef_sk_meb2/production/_ext/199634090/drv_tmr_mapping.o
                0x9d01ec54                DRV_TMR_Open

.text.calcOffset24bpp
                0x9d01ec64        0xc
 .text.calcOffset24bpp
                0x9d01ec64        0xc build/pic32mz_ef_sk_meb2/production/_ext/1597685232/gfxu_image_utils.o

.text.laContext_SetActive
                0x9d01ec70        0xc
 .text.laContext_SetActive
                0x9d01ec70        0xc build/pic32mz_ef_sk_meb2/production/_ext/1907747181/libaria_context.o
                0x9d01ec70                laContext_SetActive

.text.GFX_DriverIntfPtrGet
                0x9d01ec7c        0xc
 .text.GFX_DriverIntfPtrGet
                0x9d01ec7c        0xc build/pic32mz_ef_sk_meb2/production/_ext/1847583374/gfx_driver_interface.o
                0x9d01ec7c                GFX_DriverIntfPtrGet

.text.alpha_rgba5551
                0x9d01ec88        0xc
 .text.alpha_rgba5551
                0x9d01ec88        0xc build/pic32mz_ef_sk_meb2/production/_ext/1847583374/gfx_color_blend.o

.text.alpha_argb8888
                0x9d01ec94        0xc
 .text.alpha_argb8888
                0x9d01ec94        0xc build/pic32mz_ef_sk_meb2/production/_ext/1847583374/gfx_color_blend.o

.text.rgb888_rgba8888
                0x9d01eca0        0xc
 .text.rgb888_rgba8888
                0x9d01eca0        0xc build/pic32mz_ef_sk_meb2/production/_ext/1847583374/gfx_color_convert.o

.text.rgb888_argb8888
                0x9d01ecac        0xc
 .text.rgb888_argb8888
                0x9d01ecac        0xc build/pic32mz_ef_sk_meb2/production/_ext/1847583374/gfx_color_convert.o

.text.SYS_CLK_SystemFrequencyGet
                0x9d01ecb8        0xc
 .text.SYS_CLK_SystemFrequencyGet
                0x9d01ecb8        0xc build/pic32mz_ef_sk_meb2/production/_ext/1847413222/sys_clk.o
                0x9d01ecb8                SYS_CLK_SystemFrequencyGet

.text.getDiscreteValueAtIndex8
                0x9d01ecc4        0x8
 .text.getDiscreteValueAtIndex8
                0x9d01ecc4        0x8 build/pic32mz_ef_sk_meb2/production/_ext/1597685232/gfxu_image_utils.o
                0x9d01ecc4                getDiscreteValueAtIndex8

.text.calcOffset1bpp
                0x9d01eccc        0x8
 .text.calcOffset1bpp
                0x9d01eccc        0x8 build/pic32mz_ef_sk_meb2/production/_ext/1597685232/gfxu_image_utils.o

.text.calcOffset4bpp
                0x9d01ecd4        0x8
 .text.calcOffset4bpp
                0x9d01ecd4        0x8 build/pic32mz_ef_sk_meb2/production/_ext/1597685232/gfxu_image_utils.o

.text.calcOffset8bpp
                0x9d01ecdc        0x8
 .text.calcOffset8bpp
                0x9d01ecdc        0x8 build/pic32mz_ef_sk_meb2/production/_ext/1597685232/gfxu_image_utils.o

.text.calcOffset16bpp
                0x9d01ece4        0x8
 .text.calcOffset16bpp
                0x9d01ece4        0x8 build/pic32mz_ef_sk_meb2/production/_ext/1597685232/gfxu_image_utils.o

.text.calcOffset32bpp
                0x9d01ecec        0x8
 .text.calcOffset32bpp
                0x9d01ecec        0x8 build/pic32mz_ef_sk_meb2/production/_ext/1597685232/gfxu_image_utils.o

.text.laContext_GetActive
                0x9d01ecf4        0x8
 .text.laContext_GetActive
                0x9d01ecf4        0x8 build/pic32mz_ef_sk_meb2/production/_ext/1907747181/libaria_context.o
                0x9d01ecf4                laContext_GetActive

.text.update    0x9d01ecfc        0x8
 .text.update   0x9d01ecfc        0x8 build/pic32mz_ef_sk_meb2/production/_ext/1907747181/libaria_widget.o

.text.moved     0x9d01ed04        0x8
 .text.moved    0x9d01ed04        0x8 build/pic32mz_ef_sk_meb2/production/_ext/1907747181/libaria_widget.o

.text.resized   0x9d01ed0c        0x8
 .text.resized  0x9d01ed0c        0x8 build/pic32mz_ef_sk_meb2/production/_ext/1907747181/libaria_widget.o

.text.focusGained
                0x9d01ed14        0x8
 .text.focusGained
                0x9d01ed14        0x8 build/pic32mz_ef_sk_meb2/production/_ext/1907747181/libaria_widget.o

.text.focusLost
                0x9d01ed1c        0x8
 .text.focusLost
                0x9d01ed1c        0x8 build/pic32mz_ef_sk_meb2/production/_ext/1907747181/libaria_widget.o

.text.touchDownEvent
                0x9d01ed24        0x8
 .text.touchDownEvent
                0x9d01ed24        0x8 build/pic32mz_ef_sk_meb2/production/_ext/1907747181/libaria_widget.o

.text.touchUpEvent
                0x9d01ed2c        0x8
 .text.touchUpEvent
                0x9d01ed2c        0x8 build/pic32mz_ef_sk_meb2/production/_ext/1907747181/libaria_widget.o

.text.touchMovedEvent
                0x9d01ed34        0x8
 .text.touchMovedEvent
                0x9d01ed34        0x8 build/pic32mz_ef_sk_meb2/production/_ext/1907747181/libaria_widget.o

.text.GFX_ActiveContext
                0x9d01ed3c        0x8
 .text.GFX_ActiveContext
                0x9d01ed3c        0x8 build/pic32mz_ef_sk_meb2/production/_ext/1847583374/gfx_context.o
                0x9d01ed3c                GFX_ActiveContext

.text.GFX_ContextActiveSet
                0x9d01ed44        0x8
 .text.GFX_ContextActiveSet
                0x9d01ed44        0x8 build/pic32mz_ef_sk_meb2/production/_ext/1847583374/gfx_context.o
                0x9d01ed44                GFX_ContextActiveSet

.text._GFX_DefaultSyncCallback
                0x9d01ed4c        0x8
 .text._GFX_DefaultSyncCallback
                0x9d01ed4c        0x8 build/pic32mz_ef_sk_meb2/production/_ext/1847583374/gfx_context.o
                0x9d01ed4c                _GFX_DefaultSyncCallback

.text.defUpdate
                0x9d01ed54        0x8
 .text.defUpdate
                0x9d01ed54        0x8 build/pic32mz_ef_sk_meb2/production/_ext/1847583374/gfx_default_impl.o
                0x9d01ed54                defUpdate

.text.defLayerSwapped
                0x9d01ed5c        0x8
 .text.defLayerSwapped
                0x9d01ed5c        0x8 build/pic32mz_ef_sk_meb2/production/_ext/1847583374/gfx_default_impl.o
                0x9d01ed5c                defLayerSwapped

.text.defDrawLock
                0x9d01ed64        0x8
 .text.defDrawLock
                0x9d01ed64        0x8 build/pic32mz_ef_sk_meb2/production/_ext/1847583374/gfx_default_impl.o
                0x9d01ed64                defDrawLock

.text.defDrawUnlock
                0x9d01ed6c        0x8
 .text.defDrawUnlock
                0x9d01ed6c        0x8 build/pic32mz_ef_sk_meb2/production/_ext/1847583374/gfx_default_impl.o
                0x9d01ed6c                defDrawUnlock

.text.defInterrupt
                0x9d01ed74        0x8
 .text.defInterrupt
                0x9d01ed74        0x8 build/pic32mz_ef_sk_meb2/production/_ext/1847583374/gfx_default_impl.o
                0x9d01ed74                defInterrupt

.text.get_unimplemented
                0x9d01ed7c        0x8
 .text.get_unimplemented
                0x9d01ed7c        0x8 build/pic32mz_ef_sk_meb2/production/_ext/1847583374/gfx_get.o
                0x9d01ed7c                get_unimplemented

.text.set_unimplemented
                0x9d01ed84        0x8
 .text.set_unimplemented
                0x9d01ed84        0x8 build/pic32mz_ef_sk_meb2/production/_ext/1847583374/gfx_set.o
                0x9d01ed84                set_unimplemented

.text.blend_none
                0x9d01ed8c        0x8
 .text.blend_none
                0x9d01ed8c        0x8 build/pic32mz_ef_sk_meb2/production/_ext/1847583374/gfx_color_blend.o

.text.alpha_none
                0x9d01ed94        0x8
 .text.alpha_none
                0x9d01ed94        0x8 build/pic32mz_ef_sk_meb2/production/_ext/1847583374/gfx_color_blend.o

.text.no_conv   0x9d01ed9c        0x8
 .text.no_conv  0x9d01ed9c        0x8 build/pic32mz_ef_sk_meb2/production/_ext/1847583374/gfx_color_convert.o

.text.gs8_yuv   0x9d01eda4        0x8
 .text.gs8_yuv  0x9d01eda4        0x8 build/pic32mz_ef_sk_meb2/production/_ext/1847583374/gfx_color_convert.o

.text.rgb332_yuv
                0x9d01edac        0x8
 .text.rgb332_yuv
                0x9d01edac        0x8 build/pic32mz_ef_sk_meb2/production/_ext/1847583374/gfx_color_convert.o

.text.rgb565_yuv
                0x9d01edb4        0x8
 .text.rgb565_yuv
                0x9d01edb4        0x8 build/pic32mz_ef_sk_meb2/production/_ext/1847583374/gfx_color_convert.o

.text.rgba5551_gs8
                0x9d01edbc        0x8
 .text.rgba5551_gs8
                0x9d01edbc        0x8 build/pic32mz_ef_sk_meb2/production/_ext/1847583374/gfx_color_convert.o

.text.rgba5551_yuv
                0x9d01edc4        0x8
 .text.rgba5551_yuv
                0x9d01edc4        0x8 build/pic32mz_ef_sk_meb2/production/_ext/1847583374/gfx_color_convert.o

.text.rgb888_gs8
                0x9d01edcc        0x8
 .text.rgb888_gs8
                0x9d01edcc        0x8 build/pic32mz_ef_sk_meb2/production/_ext/1847583374/gfx_color_convert.o

.text.rgb888_yuv
                0x9d01edd4        0x8
 .text.rgb888_yuv
                0x9d01edd4        0x8 build/pic32mz_ef_sk_meb2/production/_ext/1847583374/gfx_color_convert.o

.text.rgba8888_gs8
                0x9d01eddc        0x8
 .text.rgba8888_gs8
                0x9d01eddc        0x8 build/pic32mz_ef_sk_meb2/production/_ext/1847583374/gfx_color_convert.o

.text.rgba8888_argb8888
                0x9d01ede4        0x8
 .text.rgba8888_argb8888
                0x9d01ede4        0x8 build/pic32mz_ef_sk_meb2/production/_ext/1847583374/gfx_color_convert.o

.text.rgba8888_yuv
                0x9d01edec        0x8
 .text.rgba8888_yuv
                0x9d01edec        0x8 build/pic32mz_ef_sk_meb2/production/_ext/1847583374/gfx_color_convert.o

.text.argb8888_rgb888
                0x9d01edf4        0x8
 .text.argb8888_rgb888
                0x9d01edf4        0x8 build/pic32mz_ef_sk_meb2/production/_ext/1847583374/gfx_color_convert.o

.text.argb8888_rgba8888
                0x9d01edfc        0x8
 .text.argb8888_rgba8888
                0x9d01edfc        0x8 build/pic32mz_ef_sk_meb2/production/_ext/1847583374/gfx_color_convert.o

.text.yuv_gs8   0x9d01ee04        0x8
 .text.yuv_gs8  0x9d01ee04        0x8 build/pic32mz_ef_sk_meb2/production/_ext/1847583374/gfx_color_convert.o

.text.yuv_rgb332
                0x9d01ee0c        0x8
 .text.yuv_rgb332
                0x9d01ee0c        0x8 build/pic32mz_ef_sk_meb2/production/_ext/1847583374/gfx_color_convert.o

.text.yuv_rgb565
                0x9d01ee14        0x8
 .text.yuv_rgb565
                0x9d01ee14        0x8 build/pic32mz_ef_sk_meb2/production/_ext/1847583374/gfx_color_convert.o

.text.yuv_rgba5551
                0x9d01ee1c        0x8
 .text.yuv_rgba5551
                0x9d01ee1c        0x8 build/pic32mz_ef_sk_meb2/production/_ext/1847583374/gfx_color_convert.o

.text.yuv_rgb888
                0x9d01ee24        0x8
 .text.yuv_rgb888
                0x9d01ee24        0x8 build/pic32mz_ef_sk_meb2/production/_ext/1847583374/gfx_color_convert.o

.text.yuv_rgba8888
                0x9d01ee2c        0x8
 .text.yuv_rgba8888
                0x9d01ee2c        0x8 build/pic32mz_ef_sk_meb2/production/_ext/1847583374/gfx_color_convert.o

.text.yuv_argb8888
                0x9d01ee34        0x8
 .text.yuv_argb8888
                0x9d01ee34        0x8 build/pic32mz_ef_sk_meb2/production/_ext/1847583374/gfx_color_convert.o

.text.lut_yuv   0x9d01ee3c        0x8
 .text.lut_yuv  0x9d01ee3c        0x8 build/pic32mz_ef_sk_meb2/production/_ext/1847583374/gfx_color_convert.o

.text.cpuDrawLine_AA
                0x9d01ee44        0x8
 .text.cpuDrawLine_AA
                0x9d01ee44        0x8 build/pic32mz_ef_sk_meb2/production/_ext/1847583374/gfx_draw_line.o
                0x9d01ee44                cpuDrawLine_AA

.text.cpuDrawRect_Line_AA
                0x9d01ee4c        0x8
 .text.cpuDrawRect_Line_AA
                0x9d01ee4c        0x8 build/pic32mz_ef_sk_meb2/production/_ext/1847583374/gfx_draw_rect.o
                0x9d01ee4c                cpuDrawRect_Line_AA

.text.cpuDrawRect_Fill_AA
                0x9d01ee54        0x8
 .text.cpuDrawRect_Fill_AA
                0x9d01ee54        0x8 build/pic32mz_ef_sk_meb2/production/_ext/1847583374/gfx_draw_rect.o
                0x9d01ee54                cpuDrawRect_Fill_AA

.text.layerBufferCountSet
                0x9d01ee5c        0x8
 .text.layerBufferCountSet
                0x9d01ee5c        0x8 build/pic32mz_ef_sk_meb2/production/_ext/713288229/drv_gfx_lcc_generic.o

.text.layerBufferAddressSet
                0x9d01ee64        0x8
 .text.layerBufferAddressSet
                0x9d01ee64        0x8 build/pic32mz_ef_sk_meb2/production/_ext/713288229/drv_gfx_lcc_generic.o

.text.layerBufferAllocate
                0x9d01ee6c        0x8
 .text.layerBufferAllocate
                0x9d01ee6c        0x8 build/pic32mz_ef_sk_meb2/production/_ext/713288229/drv_gfx_lcc_generic.o

.text._on_reset
                0x9d01ee74        0x8
 .text._on_reset
                0x9d01ee74        0x8 c:/program files (x86)/microchip/xc32/v1.42/bin/bin/../../lib/gcc/pic32mx/4.8.3/../../../../pic32mx/lib\libpic32.a(default-on-reset.o)
                0x9d01ee74                _on_reset

.text._on_bootstrap
                0x9d01ee7c        0x8
 .text._on_bootstrap
                0x9d01ee7c        0x8 c:/program files (x86)/microchip/xc32/v1.42/bin/bin/../../lib/gcc/pic32mx/4.8.3/../../../../pic32mx/lib\libpic32.a(default-on-bootstrap.o)
                0x9d01ee7c                _on_bootstrap

.rodata         0x9d01ee84        0x8
 .rodata        0x9d01ee84        0x4 build/pic32mz_ef_sk_meb2/production/_ext/713288229/drv_gfx_lcc_generic.o
 .rodata        0x9d01ee88        0x4 build/pic32mz_ef_sk_meb2/production/_ext/1951523377/system_init.o
                0x9d01ee88                sysDmaInit
